ARM GAS  C:\Users\wbz\AppData\Local\Temp\ccFjaPJJ.s 			page 1


   1              		.syntax unified
   2              		.cpu cortex-m3
   3              		.fpu softvfp
   4              		.eabi_attribute 20, 1
   5              		.eabi_attribute 21, 1
   6              		.eabi_attribute 23, 3
   7              		.eabi_attribute 24, 1
   8              		.eabi_attribute 25, 1
   9              		.eabi_attribute 26, 1
  10              		.eabi_attribute 30, 6
  11              		.eabi_attribute 18, 4
  12              		.thumb
  13              		.file	"Bootloadable_1.c"
  20 0000 98000000 		.text
  20      02006700 
  20      00000201 
  20      FB0E0D00 
  20      01010101 
  21              	.Ltext0:
  22              		.cfi_sections	.debug_frame
  23              		.section	.text.Bootloadable_1_Load,"ax",%progbits
  24              		.align	2
  25              		.global	Bootloadable_1_Load
  26              		.thumb
  27              		.thumb_func
  28              		.type	Bootloadable_1_Load, %function
  29              	Bootloadable_1_Load:
  30              	.LFB0:
  31              		.file 1 ".\\Generated_Source\\PSoC5\\Bootloadable_1.c"
   1:.\Generated_Source\PSoC5/Bootloadable_1.c **** /*******************************************************************************
   2:.\Generated_Source\PSoC5/Bootloadable_1.c **** * File Name: Bootloadable_1.c
   3:.\Generated_Source\PSoC5/Bootloadable_1.c **** * Version 1.10
   4:.\Generated_Source\PSoC5/Bootloadable_1.c **** *
   5:.\Generated_Source\PSoC5/Bootloadable_1.c **** *  Description:
   6:.\Generated_Source\PSoC5/Bootloadable_1.c **** *   Provides an API for the Bootloadable application. The API includes a
   7:.\Generated_Source\PSoC5/Bootloadable_1.c **** *   single function for starting bootloader.
   8:.\Generated_Source\PSoC5/Bootloadable_1.c **** *
   9:.\Generated_Source\PSoC5/Bootloadable_1.c **** ********************************************************************************
  10:.\Generated_Source\PSoC5/Bootloadable_1.c **** * Copyright 2008-2013, Cypress Semiconductor Corporation.  All rights reserved.
  11:.\Generated_Source\PSoC5/Bootloadable_1.c **** * You may use this file only in accordance with the license, terms, conditions,
  12:.\Generated_Source\PSoC5/Bootloadable_1.c **** * disclaimers, and limitations in the end user license agreement accompanying
  13:.\Generated_Source\PSoC5/Bootloadable_1.c **** * the software package with which this file was provided.
  14:.\Generated_Source\PSoC5/Bootloadable_1.c **** *******************************************************************************/
  15:.\Generated_Source\PSoC5/Bootloadable_1.c **** 
  16:.\Generated_Source\PSoC5/Bootloadable_1.c **** #include "Bootloadable_1.h"
  17:.\Generated_Source\PSoC5/Bootloadable_1.c **** 
  18:.\Generated_Source\PSoC5/Bootloadable_1.c **** 
  19:.\Generated_Source\PSoC5/Bootloadable_1.c **** /*******************************************************************************
  20:.\Generated_Source\PSoC5/Bootloadable_1.c **** * Function Name: Bootloadable_1_Load
  21:.\Generated_Source\PSoC5/Bootloadable_1.c **** ********************************************************************************
  22:.\Generated_Source\PSoC5/Bootloadable_1.c **** * Summary:
ARM GAS  C:\Users\wbz\AppData\Local\Temp\ccFjaPJJ.s 			page 2


  23:.\Generated_Source\PSoC5/Bootloadable_1.c **** *  Begins the bootloading algorithm, downloading a new ACD image from the host.
  24:.\Generated_Source\PSoC5/Bootloadable_1.c **** *
  25:.\Generated_Source\PSoC5/Bootloadable_1.c **** * Parameters:
  26:.\Generated_Source\PSoC5/Bootloadable_1.c **** *  None
  27:.\Generated_Source\PSoC5/Bootloadable_1.c **** *
  28:.\Generated_Source\PSoC5/Bootloadable_1.c **** * Returns:
  29:.\Generated_Source\PSoC5/Bootloadable_1.c **** *  This method will never return. It will load a new application and reset
  30:.\Generated_Source\PSoC5/Bootloadable_1.c **** *  the device.
  31:.\Generated_Source\PSoC5/Bootloadable_1.c **** *
  32:.\Generated_Source\PSoC5/Bootloadable_1.c **** *******************************************************************************/
  33:.\Generated_Source\PSoC5/Bootloadable_1.c **** void Bootloadable_1_Load(void) 
  34:.\Generated_Source\PSoC5/Bootloadable_1.c **** {
  32              		.loc 1 34 0
  33              		.cfi_startproc
  34              		@ args = 0, pretend = 0, frame = 0
  35              		@ frame_needed = 1, uses_anonymous_args = 0
  36              		@ link register save eliminated.
  37 0000 80B4     		push	{r7}
  38              	.LCFI0:
  39              		.cfi_def_cfa_offset 4
  40 0002 00AF     		add	r7, sp, #0
  41              		.cfi_offset 7, -4
  42              	.LCFI1:
  43              		.cfi_def_cfa_register 7
  35:.\Generated_Source\PSoC5/Bootloadable_1.c ****     /* Schedule Bootloader to start after reset */
  36:.\Generated_Source\PSoC5/Bootloadable_1.c ****     Bootloadable_1_SET_RUN_TYPE(Bootloadable_1_START_BTLDR);
  44              		.loc 1 36 0
  45 0004 44F2FA63 		movw	r3, #:lower16:1073759994
  46 0008 C4F20003 		movt	r3, #:upper16:1073759994
  47 000c 4FF04002 		mov	r2, #64
  48 0010 1A70     		strb	r2, [r3, #0]
  37:.\Generated_Source\PSoC5/Bootloadable_1.c **** 
  38:.\Generated_Source\PSoC5/Bootloadable_1.c ****     /* Reset device */
  39:.\Generated_Source\PSoC5/Bootloadable_1.c ****     Bootloadable_1_SOFTWARE_RESET;
  49              		.loc 1 39 0
  50 0012 44F2F663 		movw	r3, #:lower16:1073759990
  51 0016 C4F20003 		movt	r3, #:upper16:1073759990
  52 001a 4FF00102 		mov	r2, #1
  53 001e 1A70     		strb	r2, [r3, #0]
  40:.\Generated_Source\PSoC5/Bootloadable_1.c **** }
  54              		.loc 1 40 0
  55 0020 BD46     		mov	sp, r7
  56 0022 80BC     		pop	{r7}
  57 0024 7047     		bx	lr
  58              		.cfi_endproc
  59              	.LFE0:
  60              		.size	Bootloadable_1_Load, .-Bootloadable_1_Load
  61 0026 00BF     		.section	.text.Bootloadable_1_SetFlashByte,"ax",%progbits
  62              		.align	2
  63              		.global	Bootloadable_1_SetFlashByte
  64              		.thumb
  65              		.thumb_func
  66              		.type	Bootloadable_1_SetFlashByte, %function
  67              	Bootloadable_1_SetFlashByte:
  68              	.LFB1:
  41:.\Generated_Source\PSoC5/Bootloadable_1.c **** 
  42:.\Generated_Source\PSoC5/Bootloadable_1.c **** 
ARM GAS  C:\Users\wbz\AppData\Local\Temp\ccFjaPJJ.s 			page 3


  43:.\Generated_Source\PSoC5/Bootloadable_1.c **** /*******************************************************************************
  44:.\Generated_Source\PSoC5/Bootloadable_1.c **** * Function Name: Bootloadable_1_SetFlashByte
  45:.\Generated_Source\PSoC5/Bootloadable_1.c **** ********************************************************************************
  46:.\Generated_Source\PSoC5/Bootloadable_1.c **** * Summary:
  47:.\Generated_Source\PSoC5/Bootloadable_1.c **** *  Sets byte at specified address in Flash.
  48:.\Generated_Source\PSoC5/Bootloadable_1.c **** *
  49:.\Generated_Source\PSoC5/Bootloadable_1.c **** * Parameters:  
  50:.\Generated_Source\PSoC5/Bootloadable_1.c **** *  None
  51:.\Generated_Source\PSoC5/Bootloadable_1.c **** *
  52:.\Generated_Source\PSoC5/Bootloadable_1.c **** * Returns:
  53:.\Generated_Source\PSoC5/Bootloadable_1.c **** *  None
  54:.\Generated_Source\PSoC5/Bootloadable_1.c **** *
  55:.\Generated_Source\PSoC5/Bootloadable_1.c **** *******************************************************************************/
  56:.\Generated_Source\PSoC5/Bootloadable_1.c **** void Bootloadable_1_SetFlashByte(uint32 address, uint8 runType) 
  57:.\Generated_Source\PSoC5/Bootloadable_1.c **** {
  69              		.loc 1 57 0
  70              		.cfi_startproc
  71              		@ args = 0, pretend = 0, frame = 280
  72              		@ frame_needed = 1, uses_anonymous_args = 0
  73 0000 80B5     		push	{r7, lr}
  74              	.LCFI2:
  75              		.cfi_def_cfa_offset 8
  76 0002 C6B0     		sub	sp, sp, #280
  77              	.LCFI3:
  78              		.cfi_def_cfa_offset 288
  79 0004 00AF     		add	r7, sp, #0
  80              		.cfi_offset 14, -4
  81              		.cfi_offset 7, -8
  82              	.LCFI4:
  83              		.cfi_def_cfa_register 7
  84 0006 07F10403 		add	r3, r7, #4
  85 000a 1860     		str	r0, [r3, #0]
  86 000c 0A46     		mov	r2, r1
  87 000e 07F10403 		add	r3, r7, #4
  88 0012 03F1FF33 		add	r3, r3, #-1
  89 0016 1A70     		strb	r2, [r3, #0]
  58:.\Generated_Source\PSoC5/Bootloadable_1.c ****     uint32 flsAddr = address - CYDEV_FLASH_BASE;
  90              		.loc 1 58 0
  91 0018 07F10403 		add	r3, r7, #4
  92 001c 1B68     		ldr	r3, [r3, #0]
  93 001e C7F80831 		str	r3, [r7, #264]
  59:.\Generated_Source\PSoC5/Bootloadable_1.c ****     uint8 rowData[CYDEV_FLS_ROW_SIZE];
  60:.\Generated_Source\PSoC5/Bootloadable_1.c **** 
  61:.\Generated_Source\PSoC5/Bootloadable_1.c ****     #if !(CY_PSOC4)
  62:.\Generated_Source\PSoC5/Bootloadable_1.c ****         uint8 arrayId = (flsAddr / CYDEV_FLS_SECTOR_SIZE);
  94              		.loc 1 62 0
  95 0022 D7F80831 		ldr	r3, [r7, #264]
  96 0026 4FEA1343 		lsr	r3, r3, #16
  97 002a 87F80D31 		strb	r3, [r7, #269]
  63:.\Generated_Source\PSoC5/Bootloadable_1.c ****     #endif  /* !(CY_PSOC4) */
  64:.\Generated_Source\PSoC5/Bootloadable_1.c **** 
  65:.\Generated_Source\PSoC5/Bootloadable_1.c ****     uint16 rowNum = ((flsAddr % CYDEV_FLS_SECTOR_SIZE) / CYDEV_FLS_ROW_SIZE);
  98              		.loc 1 65 0
  99 002e D7F80831 		ldr	r3, [r7, #264]
 100 0032 4FEA0343 		lsl	r3, r3, #16
 101 0036 4FEA1343 		lsr	r3, r3, #16
 102 003a 4FEA1323 		lsr	r3, r3, #8
ARM GAS  C:\Users\wbz\AppData\Local\Temp\ccFjaPJJ.s 			page 4


 103 003e A7F80E31 		strh	r3, [r7, #270]	@ movhi
  66:.\Generated_Source\PSoC5/Bootloadable_1.c ****     uint32 baseAddr = address - (address % CYDEV_FLS_ROW_SIZE);
 104              		.loc 1 66 0
 105 0042 07F10403 		add	r3, r7, #4
 106 0046 1B68     		ldr	r3, [r3, #0]
 107 0048 23F0FF03 		bic	r3, r3, #255
 108 004c C7F81031 		str	r3, [r7, #272]
  67:.\Generated_Source\PSoC5/Bootloadable_1.c ****     uint16 idx;
  68:.\Generated_Source\PSoC5/Bootloadable_1.c **** 
  69:.\Generated_Source\PSoC5/Bootloadable_1.c **** 
  70:.\Generated_Source\PSoC5/Bootloadable_1.c ****     for (idx = 0; idx < CYDEV_FLS_ROW_SIZE; idx++)
 109              		.loc 1 70 0
 110 0050 4FF00003 		mov	r3, #0
 111 0054 A7F81631 		strh	r3, [r7, #278]	@ movhi
 112 0058 10E0     		b	.L4
 113              	.L5:
  71:.\Generated_Source\PSoC5/Bootloadable_1.c ****     {
  72:.\Generated_Source\PSoC5/Bootloadable_1.c ****         rowData[idx] = Bootloadable_1_GET_CODE_DATA(baseAddr + idx);
 114              		.loc 1 72 0
 115 005a B7F81631 		ldrh	r3, [r7, #278]
 116 005e B7F81611 		ldrh	r1, [r7, #278]
 117 0062 D7F81021 		ldr	r2, [r7, #272]
 118 0066 0A44     		add	r2, r1, r2
 119 0068 1178     		ldrb	r1, [r2, #0]	@ zero_extendqisi2
 120 006a 07F10802 		add	r2, r7, #8
 121 006e D154     		strb	r1, [r2, r3]
 122              		.loc 1 70 0
 123 0070 B7F81631 		ldrh	r3, [r7, #278]	@ movhi
 124 0074 03F10103 		add	r3, r3, #1
 125 0078 A7F81631 		strh	r3, [r7, #278]	@ movhi
 126              	.L4:
 127 007c B7F81631 		ldrh	r3, [r7, #278]
 128 0080 FF2B     		cmp	r3, #255
 129 0082 EAD9     		bls	.L5
  73:.\Generated_Source\PSoC5/Bootloadable_1.c ****     }
  74:.\Generated_Source\PSoC5/Bootloadable_1.c ****     rowData[address % CYDEV_FLS_ROW_SIZE] = runType;
 130              		.loc 1 74 0
 131 0084 07F10403 		add	r3, r7, #4
 132 0088 1B68     		ldr	r3, [r3, #0]
 133 008a 03F0FF02 		and	r2, r3, #255
 134 008e 07F10801 		add	r1, r7, #8
 135 0092 07F10403 		add	r3, r7, #4
 136 0096 03F1FF33 		add	r3, r3, #-1
 137 009a 1B78     		ldrb	r3, [r3, #0]
 138 009c 8B54     		strb	r3, [r1, r2]
  75:.\Generated_Source\PSoC5/Bootloadable_1.c **** 
  76:.\Generated_Source\PSoC5/Bootloadable_1.c ****     #if(CY_PSOC4)
  77:.\Generated_Source\PSoC5/Bootloadable_1.c ****         CySysFlashWriteRow(rowNum, rowData);
  78:.\Generated_Source\PSoC5/Bootloadable_1.c ****     #else
  79:.\Generated_Source\PSoC5/Bootloadable_1.c ****         CyWriteRowData(arrayId, rowNum, rowData);
 139              		.loc 1 79 0
 140 009e 97F80D11 		ldrb	r1, [r7, #269]	@ zero_extendqisi2
 141 00a2 B7F80E21 		ldrh	r2, [r7, #270]
 142 00a6 07F10803 		add	r3, r7, #8
 143 00aa 0846     		mov	r0, r1
 144 00ac 1146     		mov	r1, r2
 145 00ae 1A46     		mov	r2, r3
ARM GAS  C:\Users\wbz\AppData\Local\Temp\ccFjaPJJ.s 			page 5


 146 00b0 FFF7FEFF 		bl	CyWriteRowData
  80:.\Generated_Source\PSoC5/Bootloadable_1.c ****     #endif  /* (CY_PSOC4) */
  81:.\Generated_Source\PSoC5/Bootloadable_1.c **** }
 147              		.loc 1 81 0
 148 00b4 07F58C77 		add	r7, r7, #280
 149 00b8 BD46     		mov	sp, r7
 150 00ba 80BD     		pop	{r7, pc}
 151              		.cfi_endproc
 152              	.LFE1:
 153              		.size	Bootloadable_1_SetFlashByte, .-Bootloadable_1_SetFlashByte
 154              		.text
 155              	.Letext0: