ARM GAS  C:\Users\wbz\AppData\Local\Temp\ccitODTe.s 			page 1


   1              		.syntax unified
   2              		.cpu cortex-m3
   3              		.fpu softvfp
   4              		.eabi_attribute 20, 1
   5              		.eabi_attribute 21, 1
   6              		.eabi_attribute 23, 3
   7              		.eabi_attribute 24, 1
   8              		.eabi_attribute 25, 1
   9              		.eabi_attribute 26, 1
  10              		.eabi_attribute 30, 6
  11              		.eabi_attribute 18, 4
  12              		.thumb
  13              		.file	"PWM_1_PM.c"
  20 0000 CD000000 		.text
  20      02006C00 
  20      00000201 
  20      FB0E0D00 
  20      01010101 
  21              	.Ltext0:
  22              		.cfi_sections	.debug_frame
  23              		.bss
  24              		.align	2
  25              	PWM_1_backup:
  26 0000 00000000 		.space	8
  26      00000000 
  27              		.section	.text.PWM_1_SaveConfig,"ax",%progbits
  28              		.align	2
  29              		.global	PWM_1_SaveConfig
  30              		.thumb
  31              		.thumb_func
  32              		.type	PWM_1_SaveConfig, %function
  33              	PWM_1_SaveConfig:
  34              	.LFB0:
  35              		.file 1 ".\\Generated_Source\\PSoC5\\PWM_1_PM.c"
   1:.\Generated_Source\PSoC5/PWM_1_PM.c **** /*******************************************************************************
   2:.\Generated_Source\PSoC5/PWM_1_PM.c **** * File Name: PWM_1_PM.c
   3:.\Generated_Source\PSoC5/PWM_1_PM.c **** * Version 2.40
   4:.\Generated_Source\PSoC5/PWM_1_PM.c **** *
   5:.\Generated_Source\PSoC5/PWM_1_PM.c **** * Description:
   6:.\Generated_Source\PSoC5/PWM_1_PM.c **** *  This file provides the power management source code to API for the
   7:.\Generated_Source\PSoC5/PWM_1_PM.c **** *  PWM.
   8:.\Generated_Source\PSoC5/PWM_1_PM.c **** *
   9:.\Generated_Source\PSoC5/PWM_1_PM.c **** * Note:
  10:.\Generated_Source\PSoC5/PWM_1_PM.c **** *
  11:.\Generated_Source\PSoC5/PWM_1_PM.c **** ********************************************************************************
  12:.\Generated_Source\PSoC5/PWM_1_PM.c **** * Copyright 2008-2012, Cypress Semiconductor Corporation.  All rights reserved.
  13:.\Generated_Source\PSoC5/PWM_1_PM.c **** * You may use this file only in accordance with the license, terms, conditions,
  14:.\Generated_Source\PSoC5/PWM_1_PM.c **** * disclaimers, and limitations in the end user license agreement accompanying
  15:.\Generated_Source\PSoC5/PWM_1_PM.c **** * the software package with which this file was provided.
  16:.\Generated_Source\PSoC5/PWM_1_PM.c **** *******************************************************************************/
  17:.\Generated_Source\PSoC5/PWM_1_PM.c **** #include "cytypes.h"
ARM GAS  C:\Users\wbz\AppData\Local\Temp\ccitODTe.s 			page 2


  18:.\Generated_Source\PSoC5/PWM_1_PM.c **** #include "PWM_1.h"
  19:.\Generated_Source\PSoC5/PWM_1_PM.c **** 
  20:.\Generated_Source\PSoC5/PWM_1_PM.c **** static PWM_1_backupStruct PWM_1_backup;
  21:.\Generated_Source\PSoC5/PWM_1_PM.c **** 
  22:.\Generated_Source\PSoC5/PWM_1_PM.c **** 
  23:.\Generated_Source\PSoC5/PWM_1_PM.c **** /*******************************************************************************
  24:.\Generated_Source\PSoC5/PWM_1_PM.c **** * Function Name: PWM_1_SaveConfig
  25:.\Generated_Source\PSoC5/PWM_1_PM.c **** ********************************************************************************
  26:.\Generated_Source\PSoC5/PWM_1_PM.c **** *
  27:.\Generated_Source\PSoC5/PWM_1_PM.c **** * Summary:
  28:.\Generated_Source\PSoC5/PWM_1_PM.c **** *  Saves the current user configuration of the component.
  29:.\Generated_Source\PSoC5/PWM_1_PM.c **** *  
  30:.\Generated_Source\PSoC5/PWM_1_PM.c **** * Parameters:  
  31:.\Generated_Source\PSoC5/PWM_1_PM.c **** *  None
  32:.\Generated_Source\PSoC5/PWM_1_PM.c **** *
  33:.\Generated_Source\PSoC5/PWM_1_PM.c **** * Return: 
  34:.\Generated_Source\PSoC5/PWM_1_PM.c **** *  None
  35:.\Generated_Source\PSoC5/PWM_1_PM.c **** *
  36:.\Generated_Source\PSoC5/PWM_1_PM.c **** * Global variables:
  37:.\Generated_Source\PSoC5/PWM_1_PM.c **** *  PWM_1_backup:  Variables of this global structure are modified to 
  38:.\Generated_Source\PSoC5/PWM_1_PM.c **** *  store the values of non retention configuration registers when Sleep() API is 
  39:.\Generated_Source\PSoC5/PWM_1_PM.c **** *  called.
  40:.\Generated_Source\PSoC5/PWM_1_PM.c **** *
  41:.\Generated_Source\PSoC5/PWM_1_PM.c **** *******************************************************************************/
  42:.\Generated_Source\PSoC5/PWM_1_PM.c **** void PWM_1_SaveConfig(void) 
  43:.\Generated_Source\PSoC5/PWM_1_PM.c **** {
  36              		.loc 1 43 0
  37              		.cfi_startproc
  38              		@ args = 0, pretend = 0, frame = 0
  39              		@ frame_needed = 1, uses_anonymous_args = 0
  40 0000 80B5     		push	{r7, lr}
  41              	.LCFI0:
  42              		.cfi_def_cfa_offset 8
  43 0002 00AF     		add	r7, sp, #0
  44              		.cfi_offset 14, -4
  45              		.cfi_offset 7, -8
  46              	.LCFI1:
  47              		.cfi_def_cfa_register 7
  44:.\Generated_Source\PSoC5/PWM_1_PM.c ****     
  45:.\Generated_Source\PSoC5/PWM_1_PM.c ****     #if(!PWM_1_UsingFixedFunction)
  46:.\Generated_Source\PSoC5/PWM_1_PM.c ****         #if (CY_UDB_V0)
  47:.\Generated_Source\PSoC5/PWM_1_PM.c ****             PWM_1_backup.PWMUdb = PWM_1_ReadCounter();
  48:.\Generated_Source\PSoC5/PWM_1_PM.c ****             PWM_1_backup.PWMPeriod = PWM_1_ReadPeriod();
  49:.\Generated_Source\PSoC5/PWM_1_PM.c ****             #if (PWM_1_UseStatus)
  50:.\Generated_Source\PSoC5/PWM_1_PM.c ****                 PWM_1_backup.InterruptMaskValue = PWM_1_STATUS_MASK;
  51:.\Generated_Source\PSoC5/PWM_1_PM.c ****             #endif /* (PWM_1_UseStatus) */
  52:.\Generated_Source\PSoC5/PWM_1_PM.c ****             
  53:.\Generated_Source\PSoC5/PWM_1_PM.c ****             #if(PWM_1_UseOneCompareMode)
  54:.\Generated_Source\PSoC5/PWM_1_PM.c ****                 PWM_1_backup.PWMCompareValue = PWM_1_ReadCompare();
  55:.\Generated_Source\PSoC5/PWM_1_PM.c ****             #else
  56:.\Generated_Source\PSoC5/PWM_1_PM.c ****                 PWM_1_backup.PWMCompareValue1 = PWM_1_ReadCompare1();
  57:.\Generated_Source\PSoC5/PWM_1_PM.c ****                 PWM_1_backup.PWMCompareValue2 = PWM_1_ReadCompare2();
  58:.\Generated_Source\PSoC5/PWM_1_PM.c ****             #endif /* (PWM_1_UseOneCompareMode) */
  59:.\Generated_Source\PSoC5/PWM_1_PM.c ****             
  60:.\Generated_Source\PSoC5/PWM_1_PM.c ****            #if(PWM_1_DeadBandUsed)
  61:.\Generated_Source\PSoC5/PWM_1_PM.c ****                 PWM_1_backup.PWMdeadBandValue = PWM_1_ReadDeadTime();
  62:.\Generated_Source\PSoC5/PWM_1_PM.c ****             #endif /* (PWM_1_DeadBandUsed) */
ARM GAS  C:\Users\wbz\AppData\Local\Temp\ccitODTe.s 			page 3


  63:.\Generated_Source\PSoC5/PWM_1_PM.c ****           
  64:.\Generated_Source\PSoC5/PWM_1_PM.c ****             #if ( PWM_1_KillModeMinTime)
  65:.\Generated_Source\PSoC5/PWM_1_PM.c ****                 PWM_1_backup.PWMKillCounterPeriod = PWM_1_ReadKillTime();
  66:.\Generated_Source\PSoC5/PWM_1_PM.c ****             #endif /* ( PWM_1_KillModeMinTime) */
  67:.\Generated_Source\PSoC5/PWM_1_PM.c ****         #endif /* (CY_UDB_V0) */
  68:.\Generated_Source\PSoC5/PWM_1_PM.c ****         
  69:.\Generated_Source\PSoC5/PWM_1_PM.c ****         #if (CY_UDB_V1)
  70:.\Generated_Source\PSoC5/PWM_1_PM.c ****             #if(!PWM_1_PWMModeIsCenterAligned)
  71:.\Generated_Source\PSoC5/PWM_1_PM.c ****                 PWM_1_backup.PWMPeriod = PWM_1_ReadPeriod();
  48              		.loc 1 71 0
  49 0004 FFF7FEFF 		bl	PWM_1_ReadPeriod
  50 0008 0346     		mov	r3, r0
  51 000a 1A46     		mov	r2, r3
  52 000c 40F20003 		movw	r3, #:lower16:PWM_1_backup
  53 0010 C0F20003 		movt	r3, #:upper16:PWM_1_backup
  54 0014 9A80     		strh	r2, [r3, #4]	@ movhi
  72:.\Generated_Source\PSoC5/PWM_1_PM.c ****             #endif /* (!PWM_1_PWMModeIsCenterAligned) */
  73:.\Generated_Source\PSoC5/PWM_1_PM.c ****             PWM_1_backup.PWMUdb = PWM_1_ReadCounter();
  55              		.loc 1 73 0
  56 0016 FFF7FEFF 		bl	PWM_1_ReadCounter
  57 001a 0346     		mov	r3, r0
  58 001c 1A46     		mov	r2, r3
  59 001e 40F20003 		movw	r3, #:lower16:PWM_1_backup
  60 0022 C0F20003 		movt	r3, #:upper16:PWM_1_backup
  61 0026 5A80     		strh	r2, [r3, #2]	@ movhi
  74:.\Generated_Source\PSoC5/PWM_1_PM.c ****             #if (PWM_1_UseStatus)
  75:.\Generated_Source\PSoC5/PWM_1_PM.c ****                 PWM_1_backup.InterruptMaskValue = PWM_1_STATUS_MASK;
  62              		.loc 1 75 0
  63 0028 46F28553 		movw	r3, #:lower16:1073767813
  64 002c C4F20003 		movt	r3, #:upper16:1073767813
  65 0030 1B78     		ldrb	r3, [r3, #0]
  66 0032 DAB2     		uxtb	r2, r3
  67 0034 40F20003 		movw	r3, #:lower16:PWM_1_backup
  68 0038 C0F20003 		movt	r3, #:upper16:PWM_1_backup
  69 003c 9A71     		strb	r2, [r3, #6]
  76:.\Generated_Source\PSoC5/PWM_1_PM.c ****             #endif /* (PWM_1_UseStatus) */
  77:.\Generated_Source\PSoC5/PWM_1_PM.c ****             
  78:.\Generated_Source\PSoC5/PWM_1_PM.c ****             #if(PWM_1_DeadBandMode == PWM_1__B_PWM__DBM_256_CLOCKS || \
  79:.\Generated_Source\PSoC5/PWM_1_PM.c ****                 PWM_1_DeadBandMode == PWM_1__B_PWM__DBM_2_4_CLOCKS)
  80:.\Generated_Source\PSoC5/PWM_1_PM.c ****                 PWM_1_backup.PWMdeadBandValue = PWM_1_ReadDeadTime();
  81:.\Generated_Source\PSoC5/PWM_1_PM.c ****             #endif /*  deadband count is either 2-4 clocks or 256 clocks */
  82:.\Generated_Source\PSoC5/PWM_1_PM.c ****             
  83:.\Generated_Source\PSoC5/PWM_1_PM.c ****             #if(PWM_1_KillModeMinTime)
  84:.\Generated_Source\PSoC5/PWM_1_PM.c ****                  PWM_1_backup.PWMKillCounterPeriod = PWM_1_ReadKillTime();
  85:.\Generated_Source\PSoC5/PWM_1_PM.c ****             #endif /* (PWM_1_KillModeMinTime) */
  86:.\Generated_Source\PSoC5/PWM_1_PM.c ****         #endif /* (CY_UDB_V1) */
  87:.\Generated_Source\PSoC5/PWM_1_PM.c ****         
  88:.\Generated_Source\PSoC5/PWM_1_PM.c ****         #if(PWM_1_UseControl)
  89:.\Generated_Source\PSoC5/PWM_1_PM.c ****             PWM_1_backup.PWMControlRegister = PWM_1_ReadControlRegister();
  70              		.loc 1 89 0
  71 003e FFF7FEFF 		bl	PWM_1_ReadControlRegister
  72 0042 0346     		mov	r3, r0
  73 0044 1A46     		mov	r2, r3
  74 0046 40F20003 		movw	r3, #:lower16:PWM_1_backup
  75 004a C0F20003 		movt	r3, #:upper16:PWM_1_backup
  76 004e DA71     		strb	r2, [r3, #7]
  90:.\Generated_Source\PSoC5/PWM_1_PM.c ****         #endif /* (PWM_1_UseControl) */
ARM GAS  C:\Users\wbz\AppData\Local\Temp\ccitODTe.s 			page 4


  91:.\Generated_Source\PSoC5/PWM_1_PM.c ****     #endif  /* (!PWM_1_UsingFixedFunction) */
  92:.\Generated_Source\PSoC5/PWM_1_PM.c **** }
  77              		.loc 1 92 0
  78 0050 80BD     		pop	{r7, pc}
  79              		.cfi_endproc
  80              	.LFE0:
  81              		.size	PWM_1_SaveConfig, .-PWM_1_SaveConfig
  82 0052 00BF     		.section	.text.PWM_1_RestoreConfig,"ax",%progbits
  83              		.align	2
  84              		.global	PWM_1_RestoreConfig
  85              		.thumb
  86              		.thumb_func
  87              		.type	PWM_1_RestoreConfig, %function
  88              	PWM_1_RestoreConfig:
  89              	.LFB1:
  93:.\Generated_Source\PSoC5/PWM_1_PM.c **** 
  94:.\Generated_Source\PSoC5/PWM_1_PM.c **** 
  95:.\Generated_Source\PSoC5/PWM_1_PM.c **** /*******************************************************************************
  96:.\Generated_Source\PSoC5/PWM_1_PM.c **** * Function Name: PWM_1_RestoreConfig
  97:.\Generated_Source\PSoC5/PWM_1_PM.c **** ********************************************************************************
  98:.\Generated_Source\PSoC5/PWM_1_PM.c **** * 
  99:.\Generated_Source\PSoC5/PWM_1_PM.c **** * Summary:
 100:.\Generated_Source\PSoC5/PWM_1_PM.c **** *  Restores the current user configuration of the component.
 101:.\Generated_Source\PSoC5/PWM_1_PM.c **** *
 102:.\Generated_Source\PSoC5/PWM_1_PM.c **** * Parameters:  
 103:.\Generated_Source\PSoC5/PWM_1_PM.c **** *  None
 104:.\Generated_Source\PSoC5/PWM_1_PM.c **** *
 105:.\Generated_Source\PSoC5/PWM_1_PM.c **** * Return: 
 106:.\Generated_Source\PSoC5/PWM_1_PM.c **** *  None
 107:.\Generated_Source\PSoC5/PWM_1_PM.c **** *
 108:.\Generated_Source\PSoC5/PWM_1_PM.c **** * Global variables:
 109:.\Generated_Source\PSoC5/PWM_1_PM.c **** *  PWM_1_backup:  Variables of this global structure are used to  
 110:.\Generated_Source\PSoC5/PWM_1_PM.c **** *  restore the values of non retention registers on wakeup from sleep mode.
 111:.\Generated_Source\PSoC5/PWM_1_PM.c **** *
 112:.\Generated_Source\PSoC5/PWM_1_PM.c **** *******************************************************************************/
 113:.\Generated_Source\PSoC5/PWM_1_PM.c **** void PWM_1_RestoreConfig(void) 
 114:.\Generated_Source\PSoC5/PWM_1_PM.c **** {
  90              		.loc 1 114 0
  91              		.cfi_startproc
  92              		@ args = 0, pretend = 0, frame = 0
  93              		@ frame_needed = 1, uses_anonymous_args = 0
  94 0000 80B5     		push	{r7, lr}
  95              	.LCFI2:
  96              		.cfi_def_cfa_offset 8
  97 0002 00AF     		add	r7, sp, #0
  98              		.cfi_offset 14, -4
  99              		.cfi_offset 7, -8
 100              	.LCFI3:
 101              		.cfi_def_cfa_register 7
 115:.\Generated_Source\PSoC5/PWM_1_PM.c ****         #if(!PWM_1_UsingFixedFunction)
 116:.\Generated_Source\PSoC5/PWM_1_PM.c ****             #if (CY_UDB_V0)
 117:.\Generated_Source\PSoC5/PWM_1_PM.c ****                 /* Interrupt State Backup for Critical Region*/
 118:.\Generated_Source\PSoC5/PWM_1_PM.c ****                 uint8 PWM_1_interruptState;
 119:.\Generated_Source\PSoC5/PWM_1_PM.c ****                 /* Enter Critical Region*/
 120:.\Generated_Source\PSoC5/PWM_1_PM.c ****                 PWM_1_interruptState = CyEnterCriticalSection();
 121:.\Generated_Source\PSoC5/PWM_1_PM.c ****                 #if (PWM_1_UseStatus)
 122:.\Generated_Source\PSoC5/PWM_1_PM.c ****                     /* Use the interrupt output of the status register for IRQ output */
ARM GAS  C:\Users\wbz\AppData\Local\Temp\ccitODTe.s 			page 5


 123:.\Generated_Source\PSoC5/PWM_1_PM.c ****                     PWM_1_STATUS_AUX_CTRL |= PWM_1_STATUS_ACTL_INT_EN_MASK;
 124:.\Generated_Source\PSoC5/PWM_1_PM.c ****                     
 125:.\Generated_Source\PSoC5/PWM_1_PM.c ****                     PWM_1_STATUS_MASK = PWM_1_backup.InterruptMaskValue;
 126:.\Generated_Source\PSoC5/PWM_1_PM.c ****                 #endif /* (PWM_1_UseStatus) */
 127:.\Generated_Source\PSoC5/PWM_1_PM.c ****                 
 128:.\Generated_Source\PSoC5/PWM_1_PM.c ****                 #if (PWM_1_Resolution == 8)
 129:.\Generated_Source\PSoC5/PWM_1_PM.c ****                     /* Set FIFO 0 to 1 byte register for period*/
 130:.\Generated_Source\PSoC5/PWM_1_PM.c ****                     PWM_1_AUX_CONTROLDP0 |= (PWM_1_AUX_CTRL_FIFO0_CLR);
 131:.\Generated_Source\PSoC5/PWM_1_PM.c ****                 #else /* (PWM_1_Resolution == 16)*/
 132:.\Generated_Source\PSoC5/PWM_1_PM.c ****                     /* Set FIFO 0 to 1 byte register for period */
 133:.\Generated_Source\PSoC5/PWM_1_PM.c ****                     PWM_1_AUX_CONTROLDP0 |= (PWM_1_AUX_CTRL_FIFO0_CLR);
 134:.\Generated_Source\PSoC5/PWM_1_PM.c ****                     PWM_1_AUX_CONTROLDP1 |= (PWM_1_AUX_CTRL_FIFO0_CLR);
 135:.\Generated_Source\PSoC5/PWM_1_PM.c ****                 #endif /* (PWM_1_Resolution == 8) */
 136:.\Generated_Source\PSoC5/PWM_1_PM.c ****                 /* Exit Critical Region*/
 137:.\Generated_Source\PSoC5/PWM_1_PM.c ****                 CyExitCriticalSection(PWM_1_interruptState);
 138:.\Generated_Source\PSoC5/PWM_1_PM.c ****                 
 139:.\Generated_Source\PSoC5/PWM_1_PM.c ****                 PWM_1_WriteCounter(PWM_1_backup.PWMUdb);
 140:.\Generated_Source\PSoC5/PWM_1_PM.c ****                 PWM_1_WritePeriod(PWM_1_backup.PWMPeriod);
 141:.\Generated_Source\PSoC5/PWM_1_PM.c ****                 
 142:.\Generated_Source\PSoC5/PWM_1_PM.c ****                 #if(PWM_1_UseOneCompareMode)
 143:.\Generated_Source\PSoC5/PWM_1_PM.c ****                     PWM_1_WriteCompare(PWM_1_backup.PWMCompareValue);
 144:.\Generated_Source\PSoC5/PWM_1_PM.c ****                 #else
 145:.\Generated_Source\PSoC5/PWM_1_PM.c ****                     PWM_1_WriteCompare1(PWM_1_backup.PWMCompareValue1);
 146:.\Generated_Source\PSoC5/PWM_1_PM.c ****                     PWM_1_WriteCompare2(PWM_1_backup.PWMCompareValue2);
 147:.\Generated_Source\PSoC5/PWM_1_PM.c ****                 #endif /* (PWM_1_UseOneCompareMode) */
 148:.\Generated_Source\PSoC5/PWM_1_PM.c ****                 
 149:.\Generated_Source\PSoC5/PWM_1_PM.c ****                #if(PWM_1_DeadBandMode == PWM_1__B_PWM__DBM_256_CLOCKS || \
 150:.\Generated_Source\PSoC5/PWM_1_PM.c ****                    PWM_1_DeadBandMode == PWM_1__B_PWM__DBM_2_4_CLOCKS)
 151:.\Generated_Source\PSoC5/PWM_1_PM.c ****                     PWM_1_WriteDeadTime(PWM_1_backup.PWMdeadBandValue);
 152:.\Generated_Source\PSoC5/PWM_1_PM.c ****                 #endif /* deadband count is either 2-4 clocks or 256 clocks */
 153:.\Generated_Source\PSoC5/PWM_1_PM.c ****             
 154:.\Generated_Source\PSoC5/PWM_1_PM.c ****                 #if ( PWM_1_KillModeMinTime)
 155:.\Generated_Source\PSoC5/PWM_1_PM.c ****                     PWM_1_WriteKillTime(PWM_1_backup.PWMKillCounterPeriod);
 156:.\Generated_Source\PSoC5/PWM_1_PM.c ****                 #endif /* ( PWM_1_KillModeMinTime) */
 157:.\Generated_Source\PSoC5/PWM_1_PM.c ****             #endif /* (CY_UDB_V0) */
 158:.\Generated_Source\PSoC5/PWM_1_PM.c ****             
 159:.\Generated_Source\PSoC5/PWM_1_PM.c ****             #if (CY_UDB_V1)
 160:.\Generated_Source\PSoC5/PWM_1_PM.c ****                 #if(!PWM_1_PWMModeIsCenterAligned)
 161:.\Generated_Source\PSoC5/PWM_1_PM.c ****                     PWM_1_WritePeriod(PWM_1_backup.PWMPeriod);
 102              		.loc 1 161 0
 103 0004 40F20003 		movw	r3, #:lower16:PWM_1_backup
 104 0008 C0F20003 		movt	r3, #:upper16:PWM_1_backup
 105 000c 9B88     		ldrh	r3, [r3, #4]
 106 000e 1846     		mov	r0, r3
 107 0010 FFF7FEFF 		bl	PWM_1_WritePeriod
 162:.\Generated_Source\PSoC5/PWM_1_PM.c ****                 #endif /* (!PWM_1_PWMModeIsCenterAligned) */
 163:.\Generated_Source\PSoC5/PWM_1_PM.c ****                 PWM_1_WriteCounter(PWM_1_backup.PWMUdb);
 108              		.loc 1 163 0
 109 0014 40F20003 		movw	r3, #:lower16:PWM_1_backup
 110 0018 C0F20003 		movt	r3, #:upper16:PWM_1_backup
 111 001c 5B88     		ldrh	r3, [r3, #2]
 112 001e 1846     		mov	r0, r3
 113 0020 FFF7FEFF 		bl	PWM_1_WriteCounter
 164:.\Generated_Source\PSoC5/PWM_1_PM.c ****                 #if (PWM_1_UseStatus)
 165:.\Generated_Source\PSoC5/PWM_1_PM.c ****                     PWM_1_STATUS_MASK = PWM_1_backup.InterruptMaskValue;
 114              		.loc 1 165 0
 115 0024 46F28553 		movw	r3, #:lower16:1073767813
ARM GAS  C:\Users\wbz\AppData\Local\Temp\ccitODTe.s 			page 6


 116 0028 C4F20003 		movt	r3, #:upper16:1073767813
 117 002c 40F20002 		movw	r2, #:lower16:PWM_1_backup
 118 0030 C0F20002 		movt	r2, #:upper16:PWM_1_backup
 119 0034 9279     		ldrb	r2, [r2, #6]	@ zero_extendqisi2
 120 0036 1A70     		strb	r2, [r3, #0]
 166:.\Generated_Source\PSoC5/PWM_1_PM.c ****                 #endif /* (PWM_1_UseStatus) */
 167:.\Generated_Source\PSoC5/PWM_1_PM.c ****                 
 168:.\Generated_Source\PSoC5/PWM_1_PM.c ****                 #if(PWM_1_DeadBandMode == PWM_1__B_PWM__DBM_256_CLOCKS || \
 169:.\Generated_Source\PSoC5/PWM_1_PM.c ****                     PWM_1_DeadBandMode == PWM_1__B_PWM__DBM_2_4_CLOCKS)
 170:.\Generated_Source\PSoC5/PWM_1_PM.c ****                     PWM_1_WriteDeadTime(PWM_1_backup.PWMdeadBandValue);
 171:.\Generated_Source\PSoC5/PWM_1_PM.c ****                 #endif /* deadband count is either 2-4 clocks or 256 clocks */
 172:.\Generated_Source\PSoC5/PWM_1_PM.c ****                 
 173:.\Generated_Source\PSoC5/PWM_1_PM.c ****                 #if(PWM_1_KillModeMinTime)
 174:.\Generated_Source\PSoC5/PWM_1_PM.c ****                     PWM_1_WriteKillTime(PWM_1_backup.PWMKillCounterPeriod);
 175:.\Generated_Source\PSoC5/PWM_1_PM.c ****                 #endif /* (PWM_1_KillModeMinTime) */
 176:.\Generated_Source\PSoC5/PWM_1_PM.c ****             #endif /* (CY_UDB_V1) */
 177:.\Generated_Source\PSoC5/PWM_1_PM.c ****             
 178:.\Generated_Source\PSoC5/PWM_1_PM.c ****             #if(PWM_1_UseControl)
 179:.\Generated_Source\PSoC5/PWM_1_PM.c ****                 PWM_1_WriteControlRegister(PWM_1_backup.PWMControlRegister); 
 121              		.loc 1 179 0
 122 0038 40F20003 		movw	r3, #:lower16:PWM_1_backup
 123 003c C0F20003 		movt	r3, #:upper16:PWM_1_backup
 124 0040 DB79     		ldrb	r3, [r3, #7]	@ zero_extendqisi2
 125 0042 1846     		mov	r0, r3
 126 0044 FFF7FEFF 		bl	PWM_1_WriteControlRegister
 180:.\Generated_Source\PSoC5/PWM_1_PM.c ****             #endif /* (PWM_1_UseControl) */
 181:.\Generated_Source\PSoC5/PWM_1_PM.c ****         #endif  /* (!PWM_1_UsingFixedFunction) */
 182:.\Generated_Source\PSoC5/PWM_1_PM.c ****     }
 127              		.loc 1 182 0
 128 0048 80BD     		pop	{r7, pc}
 129              		.cfi_endproc
 130              	.LFE1:
 131              		.size	PWM_1_RestoreConfig, .-PWM_1_RestoreConfig
 132 004a 00BF     		.section	.text.PWM_1_Sleep,"ax",%progbits
 133              		.align	2
 134              		.global	PWM_1_Sleep
 135              		.thumb
 136              		.thumb_func
 137              		.type	PWM_1_Sleep, %function
 138              	PWM_1_Sleep:
 139              	.LFB2:
 183:.\Generated_Source\PSoC5/PWM_1_PM.c **** 
 184:.\Generated_Source\PSoC5/PWM_1_PM.c **** 
 185:.\Generated_Source\PSoC5/PWM_1_PM.c **** /*******************************************************************************
 186:.\Generated_Source\PSoC5/PWM_1_PM.c **** * Function Name: PWM_1_Sleep
 187:.\Generated_Source\PSoC5/PWM_1_PM.c **** ********************************************************************************
 188:.\Generated_Source\PSoC5/PWM_1_PM.c **** * 
 189:.\Generated_Source\PSoC5/PWM_1_PM.c **** * Summary:
 190:.\Generated_Source\PSoC5/PWM_1_PM.c **** *  Disables block's operation and saves the user configuration. Should be called 
 191:.\Generated_Source\PSoC5/PWM_1_PM.c **** *  just prior to entering sleep.
 192:.\Generated_Source\PSoC5/PWM_1_PM.c **** *  
 193:.\Generated_Source\PSoC5/PWM_1_PM.c **** * Parameters:  
 194:.\Generated_Source\PSoC5/PWM_1_PM.c **** *  None
 195:.\Generated_Source\PSoC5/PWM_1_PM.c **** *
 196:.\Generated_Source\PSoC5/PWM_1_PM.c **** * Return: 
 197:.\Generated_Source\PSoC5/PWM_1_PM.c **** *  None
 198:.\Generated_Source\PSoC5/PWM_1_PM.c **** *
ARM GAS  C:\Users\wbz\AppData\Local\Temp\ccitODTe.s 			page 7


 199:.\Generated_Source\PSoC5/PWM_1_PM.c **** * Global variables:
 200:.\Generated_Source\PSoC5/PWM_1_PM.c **** *  PWM_1_backup.PWMEnableState:  Is modified depending on the enable 
 201:.\Generated_Source\PSoC5/PWM_1_PM.c **** *  state of the block before entering sleep mode.
 202:.\Generated_Source\PSoC5/PWM_1_PM.c **** *
 203:.\Generated_Source\PSoC5/PWM_1_PM.c **** *******************************************************************************/
 204:.\Generated_Source\PSoC5/PWM_1_PM.c **** void PWM_1_Sleep(void) 
 205:.\Generated_Source\PSoC5/PWM_1_PM.c **** {
 140              		.loc 1 205 0
 141              		.cfi_startproc
 142              		@ args = 0, pretend = 0, frame = 0
 143              		@ frame_needed = 1, uses_anonymous_args = 0
 144 0000 80B5     		push	{r7, lr}
 145              	.LCFI4:
 146              		.cfi_def_cfa_offset 8
 147 0002 00AF     		add	r7, sp, #0
 148              		.cfi_offset 14, -4
 149              		.cfi_offset 7, -8
 150              	.LCFI5:
 151              		.cfi_def_cfa_register 7
 206:.\Generated_Source\PSoC5/PWM_1_PM.c ****     #if(PWM_1_UseControl)
 207:.\Generated_Source\PSoC5/PWM_1_PM.c ****         if(PWM_1_CTRL_ENABLE == (PWM_1_CONTROL & PWM_1_CTRL_ENABLE))
 152              		.loc 1 207 0
 153 0004 46F27453 		movw	r3, #:lower16:1073767796
 154 0008 C4F20003 		movt	r3, #:upper16:1073767796
 155 000c 1B78     		ldrb	r3, [r3, #0]
 156 000e DBB2     		uxtb	r3, r3
 157 0010 5BB2     		sxtb	r3, r3
 158 0012 002B     		cmp	r3, #0
 159 0014 07DA     		bge	.L6
 208:.\Generated_Source\PSoC5/PWM_1_PM.c ****         {
 209:.\Generated_Source\PSoC5/PWM_1_PM.c ****             /*Component is enabled */
 210:.\Generated_Source\PSoC5/PWM_1_PM.c ****             PWM_1_backup.PWMEnableState = 1u;
 160              		.loc 1 210 0
 161 0016 40F20003 		movw	r3, #:lower16:PWM_1_backup
 162 001a C0F20003 		movt	r3, #:upper16:PWM_1_backup
 163 001e 4FF00102 		mov	r2, #1
 164 0022 1A70     		strb	r2, [r3, #0]
 165 0024 06E0     		b	.L7
 166              	.L6:
 211:.\Generated_Source\PSoC5/PWM_1_PM.c ****         }
 212:.\Generated_Source\PSoC5/PWM_1_PM.c ****         else
 213:.\Generated_Source\PSoC5/PWM_1_PM.c ****         {
 214:.\Generated_Source\PSoC5/PWM_1_PM.c ****             /* Component is disabled */
 215:.\Generated_Source\PSoC5/PWM_1_PM.c ****             PWM_1_backup.PWMEnableState = 0u;
 167              		.loc 1 215 0
 168 0026 40F20003 		movw	r3, #:lower16:PWM_1_backup
 169 002a C0F20003 		movt	r3, #:upper16:PWM_1_backup
 170 002e 4FF00002 		mov	r2, #0
 171 0032 1A70     		strb	r2, [r3, #0]
 172              	.L7:
 216:.\Generated_Source\PSoC5/PWM_1_PM.c ****         }
 217:.\Generated_Source\PSoC5/PWM_1_PM.c ****     #endif /* (PWM_1_UseControl) */
 218:.\Generated_Source\PSoC5/PWM_1_PM.c **** 
 219:.\Generated_Source\PSoC5/PWM_1_PM.c ****     /* Stop component */
 220:.\Generated_Source\PSoC5/PWM_1_PM.c ****     PWM_1_Stop();
 173              		.loc 1 220 0
 174 0034 FFF7FEFF 		bl	PWM_1_Stop
ARM GAS  C:\Users\wbz\AppData\Local\Temp\ccitODTe.s 			page 8


 221:.\Generated_Source\PSoC5/PWM_1_PM.c ****     
 222:.\Generated_Source\PSoC5/PWM_1_PM.c ****     /* Save registers configuration */
 223:.\Generated_Source\PSoC5/PWM_1_PM.c ****     PWM_1_SaveConfig();
 175              		.loc 1 223 0
 176 0038 FFF7FEFF 		bl	PWM_1_SaveConfig
 224:.\Generated_Source\PSoC5/PWM_1_PM.c **** }
 177              		.loc 1 224 0
 178 003c 80BD     		pop	{r7, pc}
 179              		.cfi_endproc
 180              	.LFE2:
 181              		.size	PWM_1_Sleep, .-PWM_1_Sleep
 182 003e 00BF     		.section	.text.PWM_1_Wakeup,"ax",%progbits
 183              		.align	2
 184              		.global	PWM_1_Wakeup
 185              		.thumb
 186              		.thumb_func
 187              		.type	PWM_1_Wakeup, %function
 188              	PWM_1_Wakeup:
 189              	.LFB3:
 225:.\Generated_Source\PSoC5/PWM_1_PM.c **** 
 226:.\Generated_Source\PSoC5/PWM_1_PM.c **** 
 227:.\Generated_Source\PSoC5/PWM_1_PM.c **** /*******************************************************************************
 228:.\Generated_Source\PSoC5/PWM_1_PM.c **** * Function Name: PWM_1_Wakeup
 229:.\Generated_Source\PSoC5/PWM_1_PM.c **** ********************************************************************************
 230:.\Generated_Source\PSoC5/PWM_1_PM.c **** * 
 231:.\Generated_Source\PSoC5/PWM_1_PM.c **** * Summary:
 232:.\Generated_Source\PSoC5/PWM_1_PM.c **** *  Restores and enables the user configuration. Should be called just after 
 233:.\Generated_Source\PSoC5/PWM_1_PM.c **** *  awaking from sleep.
 234:.\Generated_Source\PSoC5/PWM_1_PM.c **** *  
 235:.\Generated_Source\PSoC5/PWM_1_PM.c **** * Parameters:  
 236:.\Generated_Source\PSoC5/PWM_1_PM.c **** *  None
 237:.\Generated_Source\PSoC5/PWM_1_PM.c **** *
 238:.\Generated_Source\PSoC5/PWM_1_PM.c **** * Return: 
 239:.\Generated_Source\PSoC5/PWM_1_PM.c **** *  None
 240:.\Generated_Source\PSoC5/PWM_1_PM.c **** *
 241:.\Generated_Source\PSoC5/PWM_1_PM.c **** * Global variables:
 242:.\Generated_Source\PSoC5/PWM_1_PM.c **** *  PWM_1_backup.pwmEnable:  Is used to restore the enable state of 
 243:.\Generated_Source\PSoC5/PWM_1_PM.c **** *  block on wakeup from sleep mode.
 244:.\Generated_Source\PSoC5/PWM_1_PM.c **** *
 245:.\Generated_Source\PSoC5/PWM_1_PM.c **** *******************************************************************************/
 246:.\Generated_Source\PSoC5/PWM_1_PM.c **** void PWM_1_Wakeup(void) 
 247:.\Generated_Source\PSoC5/PWM_1_PM.c **** {
 190              		.loc 1 247 0
 191              		.cfi_startproc
 192              		@ args = 0, pretend = 0, frame = 0
 193              		@ frame_needed = 1, uses_anonymous_args = 0
 194 0000 80B5     		push	{r7, lr}
 195              	.LCFI6:
 196              		.cfi_def_cfa_offset 8
 197 0002 00AF     		add	r7, sp, #0
 198              		.cfi_offset 14, -4
 199              		.cfi_offset 7, -8
 200              	.LCFI7:
 201              		.cfi_def_cfa_register 7
 248:.\Generated_Source\PSoC5/PWM_1_PM.c ****      /* Restore registers values */
 249:.\Generated_Source\PSoC5/PWM_1_PM.c ****     PWM_1_RestoreConfig();
 202              		.loc 1 249 0
ARM GAS  C:\Users\wbz\AppData\Local\Temp\ccitODTe.s 			page 9


 203 0004 FFF7FEFF 		bl	PWM_1_RestoreConfig
 250:.\Generated_Source\PSoC5/PWM_1_PM.c ****     
 251:.\Generated_Source\PSoC5/PWM_1_PM.c ****     if(PWM_1_backup.PWMEnableState != 0u)
 204              		.loc 1 251 0
 205 0008 40F20003 		movw	r3, #:lower16:PWM_1_backup
 206 000c C0F20003 		movt	r3, #:upper16:PWM_1_backup
 207 0010 1B78     		ldrb	r3, [r3, #0]	@ zero_extendqisi2
 208 0012 002B     		cmp	r3, #0
 209 0014 01D0     		beq	.L11
 252:.\Generated_Source\PSoC5/PWM_1_PM.c ****     {
 253:.\Generated_Source\PSoC5/PWM_1_PM.c ****         /* Enable component's operation */
 254:.\Generated_Source\PSoC5/PWM_1_PM.c ****         PWM_1_Enable();
 210              		.loc 1 254 0
 211 0016 FFF7FEFF 		bl	PWM_1_Enable
 212              	.L11:
 255:.\Generated_Source\PSoC5/PWM_1_PM.c ****     } /* Do nothing if component's block was disabled before */
 256:.\Generated_Source\PSoC5/PWM_1_PM.c ****     
 257:.\Generated_Source\PSoC5/PWM_1_PM.c **** }
 213              		.loc 1 257 0
 214 001a 80BD     		pop	{r7, pc}
 215              		.cfi_endproc
 216              	.LFE3:
 217              		.size	PWM_1_Wakeup, .-PWM_1_Wakeup
 218              		.text
 219              	.Letext0: