ARM GAS  C:\Users\javier\AppData\Local\Temp\cc4t60gH.s 			page 1


   1              		.syntax unified
   2              		.cpu cortex-m3
   3              		.fpu softvfp
   4              		.eabi_attribute 20, 1
   5              		.eabi_attribute 21, 1
   6              		.eabi_attribute 23, 3
   7              		.eabi_attribute 24, 1
   8              		.eabi_attribute 25, 1
   9              		.eabi_attribute 26, 1
  10              		.eabi_attribute 30, 6
  11              		.eabi_attribute 34, 1
  12              		.eabi_attribute 18, 4
  13              		.thumb
  14              		.file	"FS_ConfigIO.c"
  15              		.text
  16              	.Ltext0:
  17              		.cfi_sections	.debug_frame
  18              		.section	.text.FS_X_Panic,"ax",%progbits
  19              		.align	2
  20              		.global	FS_X_Panic
  21              		.thumb
  22              		.thumb_func
  23              		.type	FS_X_Panic, %function
  24              	FS_X_Panic:
  25              	.LFB56:
  26              		.file 1 ".\\FS_ConfigIO.c"
   1:.\FS_ConfigIO.c **** /*********************************************************************
   2:.\FS_ConfigIO.c **** *                SEGGER MICROCONTROLLER GmbH & Co. KG                *
   3:.\FS_ConfigIO.c **** *        Solutions for real time microcontroller applications        *
   4:.\FS_ConfigIO.c **** **********************************************************************
   5:.\FS_ConfigIO.c **** *                                                                    *
   6:.\FS_ConfigIO.c **** *        (c) 2003-2010     SEGGER Microcontroller GmbH & Co KG       *
   7:.\FS_ConfigIO.c **** *                                                                    *
   8:.\FS_ConfigIO.c **** *        Internet: www.segger.com    Support:  support@segger.com    *
   9:.\FS_ConfigIO.c **** *                                                                    *
  10:.\FS_ConfigIO.c **** **********************************************************************
  11:.\FS_ConfigIO.c **** 
  12:.\FS_ConfigIO.c **** **** emFile file system for embedded applications ****
  13:.\FS_ConfigIO.c **** emFile is protected by international copyright laws. Knowledge of the
  14:.\FS_ConfigIO.c **** source code may not be used to write a similar product. This file may
  15:.\FS_ConfigIO.c **** only be used in accordance with a license and should not be re-
  16:.\FS_ConfigIO.c **** distributed in any way. We appreciate your understanding and fairness.
  17:.\FS_ConfigIO.c **** ----------------------------------------------------------------------
  18:.\FS_ConfigIO.c **** File        : FS_ConfigIO.c
  19:.\FS_ConfigIO.c **** Purpose     : I/O Configuration routines for Filesystem
  20:.\FS_ConfigIO.c **** ---------------------------END-OF-HEADER------------------------------
  21:.\FS_ConfigIO.c **** */
  22:.\FS_ConfigIO.c **** 
  23:.\FS_ConfigIO.c **** #include <stdio.h>
  24:.\FS_ConfigIO.c **** #include <device.h>
  25:.\FS_ConfigIO.c **** #include "FS.h"
  26:.\FS_ConfigIO.c **** 
  27:.\FS_ConfigIO.c **** /*********************************************************************
  28:.\FS_ConfigIO.c **** *
  29:.\FS_ConfigIO.c **** *       FS_X_Panic
  30:.\FS_ConfigIO.c **** *
  31:.\FS_ConfigIO.c **** *  Function description
ARM GAS  C:\Users\javier\AppData\Local\Temp\cc4t60gH.s 			page 2


  32:.\FS_ConfigIO.c **** *    Referred in debug builds of the file system only and
  33:.\FS_ConfigIO.c **** *    called only in case of fatal, unrecoverable errors.
  34:.\FS_ConfigIO.c **** */
  35:.\FS_ConfigIO.c **** void FS_X_Panic(int ErrorCode) {
  27              		.loc 1 35 0
  28              		.cfi_startproc
  29              		@ args = 0, pretend = 0, frame = 8
  30              		@ frame_needed = 1, uses_anonymous_args = 0
  31              		@ link register save eliminated.
  32 0000 80B4     		push	{r7}
  33              	.LCFI0:
  34              		.cfi_def_cfa_offset 4
  35              		.cfi_offset 7, -4
  36 0002 83B0     		sub	sp, sp, #12
  37              	.LCFI1:
  38              		.cfi_def_cfa_offset 16
  39 0004 00AF     		add	r7, sp, #0
  40              	.LCFI2:
  41              		.cfi_def_cfa_register 7
  42 0006 7860     		str	r0, [r7, #4]
  43              	.L2:
  36:.\FS_ConfigIO.c ****   FS_USE_PARA(ErrorCode);
  37:.\FS_ConfigIO.c ****   while (1);
  44              		.loc 1 37 0 discriminator 1
  45 0008 FEE7     		b	.L2
  46              		.cfi_endproc
  47              	.LFE56:
  48              		.size	FS_X_Panic, .-FS_X_Panic
  49 000a 00BF     		.section	.text.FS_X_Log,"ax",%progbits
  50              		.align	2
  51              		.global	FS_X_Log
  52              		.thumb
  53              		.thumb_func
  54              		.type	FS_X_Log, %function
  55              	FS_X_Log:
  56              	.LFB57:
  38:.\FS_ConfigIO.c **** }
  39:.\FS_ConfigIO.c **** 
  40:.\FS_ConfigIO.c **** /*********************************************************************
  41:.\FS_ConfigIO.c **** *
  42:.\FS_ConfigIO.c **** *      Logging: OS dependent
  43:.\FS_ConfigIO.c **** 
  44:.\FS_ConfigIO.c **** Note:
  45:.\FS_ConfigIO.c ****   Logging is used in higher debug levels only. The typical target
  46:.\FS_ConfigIO.c ****   build does not use logging and does therefore not require any of
  47:.\FS_ConfigIO.c ****   the logging routines below. For a release build without logging
  48:.\FS_ConfigIO.c ****   the routines below may be eliminated to save some space.
  49:.\FS_ConfigIO.c ****   (If the linker is not function aware and eliminates unreferenced
  50:.\FS_ConfigIO.c ****   functions automatically)
  51:.\FS_ConfigIO.c **** 
  52:.\FS_ConfigIO.c **** */
  53:.\FS_ConfigIO.c **** void FS_X_Log(const char *s) {
  57              		.loc 1 53 0
  58              		.cfi_startproc
  59              		@ args = 0, pretend = 0, frame = 8
  60              		@ frame_needed = 1, uses_anonymous_args = 0
  61              		@ link register save eliminated.
ARM GAS  C:\Users\javier\AppData\Local\Temp\cc4t60gH.s 			page 3


  62 0000 80B4     		push	{r7}
  63              	.LCFI3:
  64              		.cfi_def_cfa_offset 4
  65              		.cfi_offset 7, -4
  66 0002 83B0     		sub	sp, sp, #12
  67              	.LCFI4:
  68              		.cfi_def_cfa_offset 16
  69 0004 00AF     		add	r7, sp, #0
  70              	.LCFI5:
  71              		.cfi_def_cfa_register 7
  72 0006 7860     		str	r0, [r7, #4]
  54:.\FS_ConfigIO.c ****   FS_USE_PARA(s);
  55:.\FS_ConfigIO.c **** //Jav Test	UART_PutString((uint8*)s);
  56:.\FS_ConfigIO.c **** }
  73              		.loc 1 56 0
  74 0008 07F10C07 		add	r7, r7, #12
  75 000c BD46     		mov	sp, r7
  76 000e 80BC     		pop	{r7}
  77 0010 7047     		bx	lr
  78              		.cfi_endproc
  79              	.LFE57:
  80              		.size	FS_X_Log, .-FS_X_Log
  81 0012 00BF     		.section	.text.FS_X_Warn,"ax",%progbits
  82              		.align	2
  83              		.global	FS_X_Warn
  84              		.thumb
  85              		.thumb_func
  86              		.type	FS_X_Warn, %function
  87              	FS_X_Warn:
  88              	.LFB58:
  57:.\FS_ConfigIO.c **** 
  58:.\FS_ConfigIO.c **** void FS_X_Warn(const char *s) {
  89              		.loc 1 58 0
  90              		.cfi_startproc
  91              		@ args = 0, pretend = 0, frame = 8
  92              		@ frame_needed = 1, uses_anonymous_args = 0
  93              		@ link register save eliminated.
  94 0000 80B4     		push	{r7}
  95              	.LCFI6:
  96              		.cfi_def_cfa_offset 4
  97              		.cfi_offset 7, -4
  98 0002 83B0     		sub	sp, sp, #12
  99              	.LCFI7:
 100              		.cfi_def_cfa_offset 16
 101 0004 00AF     		add	r7, sp, #0
 102              	.LCFI8:
 103              		.cfi_def_cfa_register 7
 104 0006 7860     		str	r0, [r7, #4]
  59:.\FS_ConfigIO.c ****   FS_USE_PARA(s);
  60:.\FS_ConfigIO.c **** //Jav Test	UART_PutString((uint8*)"FS warning: ");
  61:.\FS_ConfigIO.c **** //Jav Test	UART_PutString((uint8*)s);
  62:.\FS_ConfigIO.c **** //Jav Test	UART_PutString((uint8*)"\n");
  63:.\FS_ConfigIO.c **** }
 105              		.loc 1 63 0
 106 0008 07F10C07 		add	r7, r7, #12
 107 000c BD46     		mov	sp, r7
 108 000e 80BC     		pop	{r7}
ARM GAS  C:\Users\javier\AppData\Local\Temp\cc4t60gH.s 			page 4


 109 0010 7047     		bx	lr
 110              		.cfi_endproc
 111              	.LFE58:
 112              		.size	FS_X_Warn, .-FS_X_Warn
 113 0012 00BF     		.section	.text.FS_X_ErrorOut,"ax",%progbits
 114              		.align	2
 115              		.global	FS_X_ErrorOut
 116              		.thumb
 117              		.thumb_func
 118              		.type	FS_X_ErrorOut, %function
 119              	FS_X_ErrorOut:
 120              	.LFB59:
  64:.\FS_ConfigIO.c **** 
  65:.\FS_ConfigIO.c **** void FS_X_ErrorOut(const char *s) {
 121              		.loc 1 65 0
 122              		.cfi_startproc
 123              		@ args = 0, pretend = 0, frame = 8
 124              		@ frame_needed = 1, uses_anonymous_args = 0
 125              		@ link register save eliminated.
 126 0000 80B4     		push	{r7}
 127              	.LCFI9:
 128              		.cfi_def_cfa_offset 4
 129              		.cfi_offset 7, -4
 130 0002 83B0     		sub	sp, sp, #12
 131              	.LCFI10:
 132              		.cfi_def_cfa_offset 16
 133 0004 00AF     		add	r7, sp, #0
 134              	.LCFI11:
 135              		.cfi_def_cfa_register 7
 136 0006 7860     		str	r0, [r7, #4]
  66:.\FS_ConfigIO.c ****   FS_USE_PARA(s);
  67:.\FS_ConfigIO.c **** //Jav Test	UART_PutString((uint8*)"FS error: ");
  68:.\FS_ConfigIO.c **** //Jav Test	UART_PutString((uint8*)s);
  69:.\FS_ConfigIO.c **** //Jav Test	UART_PutString((uint8*)"\n");
  70:.\FS_ConfigIO.c **** }
 137              		.loc 1 70 0
 138 0008 07F10C07 		add	r7, r7, #12
 139 000c BD46     		mov	sp, r7
 140 000e 80BC     		pop	{r7}
 141 0010 7047     		bx	lr
 142              		.cfi_endproc
 143              	.LFE59:
 144              		.size	FS_X_ErrorOut, .-FS_X_ErrorOut
 145 0012 00BF     		.text
 146              	.Letext0:
 147              		.file 2 "c:\\program files (x86)\\cypress\\psoc creator\\3.0\\psoc creator\\import\\gnu_cs\\arm\\4
 148              		.file 3 "./Generated_Source/PSoC5/core_cm3.h"