ARM GAS  C:\Users\javier\AppData\Local\Temp\ccG1rHhV.s 			page 1


   1              		.syntax unified
   2              		.cpu cortex-m3
   3              		.fpu softvfp
   4              		.eabi_attribute 20, 1
   5              		.eabi_attribute 21, 1
   6              		.eabi_attribute 23, 3
   7              		.eabi_attribute 24, 1
   8              		.eabi_attribute 25, 1
   9              		.eabi_attribute 26, 1
  10              		.eabi_attribute 30, 6
  11              		.eabi_attribute 34, 1
  12              		.eabi_attribute 18, 4
  13              		.thumb
  14              		.file	"FS_X_OS.c"
  15              		.text
  16              	.Ltext0:
  17              		.cfi_sections	.debug_frame
  18              		.section	.text.FS_OS_Lock,"ax",%progbits
  19              		.align	2
  20              		.global	FS_OS_Lock
  21              		.thumb
  22              		.thumb_func
  23              		.type	FS_OS_Lock, %function
  24              	FS_OS_Lock:
  25              	.LFB0:
  26              		.file 1 ".\\FS_X_OS.c"
   1:.\FS_X_OS.c   **** /*********************************************************************
   2:.\FS_X_OS.c   **** *                SEGGER MICROCONTROLLER GmbH & Co. KG                *
   3:.\FS_X_OS.c   **** *        Solutions for real time microcontroller applications        *
   4:.\FS_X_OS.c   **** **********************************************************************
   5:.\FS_X_OS.c   **** *                                                                    *
   6:.\FS_X_OS.c   **** *        (c) 2003-2010     SEGGER Microcontroller GmbH & Co KG       *
   7:.\FS_X_OS.c   **** *                                                                    *
   8:.\FS_X_OS.c   **** *        Internet: www.segger.com    Support:  support@segger.com    *
   9:.\FS_X_OS.c   **** *                                                                    *
  10:.\FS_X_OS.c   **** **********************************************************************
  11:.\FS_X_OS.c   **** 
  12:.\FS_X_OS.c   **** **** emFile file system for embedded applications ****
  13:.\FS_X_OS.c   **** emFile is protected by international copyright laws. Knowledge of the
  14:.\FS_X_OS.c   **** source code may not be used to write a similar product. This file may
  15:.\FS_X_OS.c   **** only be used in accordance with a license and should not be re-
  16:.\FS_X_OS.c   **** distributed in any way. We appreciate your understanding and fairness.
  17:.\FS_X_OS.c   **** ----------------------------------------------------------------------
  18:.\FS_X_OS.c   **** ----------------------------------------------------------------------
  19:.\FS_X_OS.c   **** File        : FS_X_OS.c
  20:.\FS_X_OS.c   **** Purpose     : General template OS Layer for the file system
  21:.\FS_X_OS.c   **** ---------------------------END-OF-HEADER------------------------------
  22:.\FS_X_OS.c   **** */
  23:.\FS_X_OS.c   **** 
  24:.\FS_X_OS.c   **** /*********************************************************************
  25:.\FS_X_OS.c   **** *
  26:.\FS_X_OS.c   **** *             #include Section
  27:.\FS_X_OS.c   **** *
  28:.\FS_X_OS.c   **** **********************************************************************
  29:.\FS_X_OS.c   **** */
  30:.\FS_X_OS.c   **** 
  31:.\FS_X_OS.c   **** #include "FS_Int.h"
ARM GAS  C:\Users\javier\AppData\Local\Temp\ccG1rHhV.s 			page 2


  32:.\FS_X_OS.c   **** #include "FS_OS.h"
  33:.\FS_X_OS.c   **** #include "FS_Conf.h"
  34:.\FS_X_OS.c   **** 
  35:.\FS_X_OS.c   **** 
  36:.\FS_X_OS.c   **** /*********************************************************************
  37:.\FS_X_OS.c   **** *
  38:.\FS_X_OS.c   **** *       Static data
  39:.\FS_X_OS.c   **** *
  40:.\FS_X_OS.c   **** **********************************************************************
  41:.\FS_X_OS.c   **** */
  42:.\FS_X_OS.c   **** 
  43:.\FS_X_OS.c   **** 
  44:.\FS_X_OS.c   **** /*********************************************************************
  45:.\FS_X_OS.c   **** *
  46:.\FS_X_OS.c   **** *       Public code
  47:.\FS_X_OS.c   **** *
  48:.\FS_X_OS.c   **** **********************************************************************
  49:.\FS_X_OS.c   **** */
  50:.\FS_X_OS.c   **** 
  51:.\FS_X_OS.c   **** 
  52:.\FS_X_OS.c   **** /*********************************************************************
  53:.\FS_X_OS.c   **** *
  54:.\FS_X_OS.c   **** *         FS_X_OS_Lock
  55:.\FS_X_OS.c   **** *
  56:.\FS_X_OS.c   **** *  Description:
  57:.\FS_X_OS.c   **** *    Locks FS_Sema[LockIndex] semaphore.
  58:.\FS_X_OS.c   **** *
  59:.\FS_X_OS.c   **** */
  60:.\FS_X_OS.c   **** void FS_OS_Lock(unsigned LockIndex) {
  27              		.loc 1 60 0
  28              		.cfi_startproc
  29              		@ args = 0, pretend = 0, frame = 8
  30              		@ frame_needed = 1, uses_anonymous_args = 0
  31              		@ link register save eliminated.
  32 0000 80B4     		push	{r7}
  33              	.LCFI0:
  34              		.cfi_def_cfa_offset 4
  35              		.cfi_offset 7, -4
  36 0002 83B0     		sub	sp, sp, #12
  37              	.LCFI1:
  38              		.cfi_def_cfa_offset 16
  39 0004 00AF     		add	r7, sp, #0
  40              	.LCFI2:
  41              		.cfi_def_cfa_register 7
  42 0006 7860     		str	r0, [r7, #4]
  61:.\FS_X_OS.c   **** 	FS_USE_PARA(LockIndex);
  62:.\FS_X_OS.c   **** }
  43              		.loc 1 62 0
  44 0008 07F10C07 		add	r7, r7, #12
  45 000c BD46     		mov	sp, r7
  46 000e 80BC     		pop	{r7}
  47 0010 7047     		bx	lr
  48              		.cfi_endproc
  49              	.LFE0:
  50              		.size	FS_OS_Lock, .-FS_OS_Lock
  51 0012 00BF     		.section	.text.FS_OS_Unlock,"ax",%progbits
  52              		.align	2
ARM GAS  C:\Users\javier\AppData\Local\Temp\ccG1rHhV.s 			page 3


  53              		.global	FS_OS_Unlock
  54              		.thumb
  55              		.thumb_func
  56              		.type	FS_OS_Unlock, %function
  57              	FS_OS_Unlock:
  58              	.LFB1:
  63:.\FS_X_OS.c   **** 
  64:.\FS_X_OS.c   **** 
  65:.\FS_X_OS.c   **** /*********************************************************************
  66:.\FS_X_OS.c   **** *
  67:.\FS_X_OS.c   **** *       FS_X_OS_Unlock
  68:.\FS_X_OS.c   **** *
  69:.\FS_X_OS.c   **** *  Description:
  70:.\FS_X_OS.c   **** *    Unlocks FS_Sema[LockIndex] semaphore.
  71:.\FS_X_OS.c   **** *
  72:.\FS_X_OS.c   **** */
  73:.\FS_X_OS.c   **** void FS_OS_Unlock(unsigned LockIndex) {
  59              		.loc 1 73 0
  60              		.cfi_startproc
  61              		@ args = 0, pretend = 0, frame = 8
  62              		@ frame_needed = 1, uses_anonymous_args = 0
  63              		@ link register save eliminated.
  64 0000 80B4     		push	{r7}
  65              	.LCFI3:
  66              		.cfi_def_cfa_offset 4
  67              		.cfi_offset 7, -4
  68 0002 83B0     		sub	sp, sp, #12
  69              	.LCFI4:
  70              		.cfi_def_cfa_offset 16
  71 0004 00AF     		add	r7, sp, #0
  72              	.LCFI5:
  73              		.cfi_def_cfa_register 7
  74 0006 7860     		str	r0, [r7, #4]
  74:.\FS_X_OS.c   **** 	FS_USE_PARA(LockIndex);
  75:.\FS_X_OS.c   **** }
  75              		.loc 1 75 0
  76 0008 07F10C07 		add	r7, r7, #12
  77 000c BD46     		mov	sp, r7
  78 000e 80BC     		pop	{r7}
  79 0010 7047     		bx	lr
  80              		.cfi_endproc
  81              	.LFE1:
  82              		.size	FS_OS_Unlock, .-FS_OS_Unlock
  83 0012 00BF     		.section	.text.FS_OS_Init,"ax",%progbits
  84              		.align	2
  85              		.global	FS_OS_Init
  86              		.thumb
  87              		.thumb_func
  88              		.type	FS_OS_Init, %function
  89              	FS_OS_Init:
  90              	.LFB2:
  76:.\FS_X_OS.c   **** 
  77:.\FS_X_OS.c   **** /*********************************************************************
  78:.\FS_X_OS.c   **** *
  79:.\FS_X_OS.c   **** *             FS_X_OS_init
  80:.\FS_X_OS.c   **** *
  81:.\FS_X_OS.c   **** *  Description:
ARM GAS  C:\Users\javier\AppData\Local\Temp\ccG1rHhV.s 			page 4


  82:.\FS_X_OS.c   **** *    Initializes the OS resources.
  83:.\FS_X_OS.c   **** *
  84:.\FS_X_OS.c   **** *  Parameters:
  85:.\FS_X_OS.c   **** *    None.
  86:.\FS_X_OS.c   **** *
  87:.\FS_X_OS.c   **** *  Return value:
  88:.\FS_X_OS.c   **** *    0    - on success
  89:.\FS_X_OS.c   **** *    -1   - on failure.
  90:.\FS_X_OS.c   **** */
  91:.\FS_X_OS.c   **** void FS_OS_Init(unsigned MaxNumLocks) {
  91              		.loc 1 91 0
  92              		.cfi_startproc
  93              		@ args = 0, pretend = 0, frame = 16
  94              		@ frame_needed = 1, uses_anonymous_args = 0
  95              		@ link register save eliminated.
  96 0000 80B4     		push	{r7}
  97              	.LCFI6:
  98              		.cfi_def_cfa_offset 4
  99              		.cfi_offset 7, -4
 100 0002 85B0     		sub	sp, sp, #20
 101              	.LCFI7:
 102              		.cfi_def_cfa_offset 24
 103 0004 00AF     		add	r7, sp, #0
 104              	.LCFI8:
 105              		.cfi_def_cfa_register 7
 106 0006 7860     		str	r0, [r7, #4]
  92:.\FS_X_OS.c   ****   unsigned i;
  93:.\FS_X_OS.c   **** 
  94:.\FS_X_OS.c   ****   for (i = 0; i < MaxNumLocks; i++) {
 107              		.loc 1 94 0
 108 0008 4FF00003 		mov	r3, #0
 109 000c FB60     		str	r3, [r7, #12]
 110 000e 03E0     		b	.L4
 111              	.L5:
 112              		.loc 1 94 0 is_stmt 0 discriminator 2
 113 0010 FB68     		ldr	r3, [r7, #12]
 114 0012 03F10103 		add	r3, r3, #1
 115 0016 FB60     		str	r3, [r7, #12]
 116              	.L4:
 117              		.loc 1 94 0 discriminator 1
 118 0018 FA68     		ldr	r2, [r7, #12]
 119 001a 7B68     		ldr	r3, [r7, #4]
 120 001c 9A42     		cmp	r2, r3
 121 001e F7D3     		bcc	.L5
  95:.\FS_X_OS.c   ****   }
  96:.\FS_X_OS.c   **** }
 122              		.loc 1 96 0 is_stmt 1
 123 0020 07F11407 		add	r7, r7, #20
 124 0024 BD46     		mov	sp, r7
 125 0026 80BC     		pop	{r7}
 126 0028 7047     		bx	lr
 127              		.cfi_endproc
 128              	.LFE2:
 129              		.size	FS_OS_Init, .-FS_OS_Init
 130 002a 00BF     		.section	.text.FS_OS_DeInit,"ax",%progbits
 131              		.align	2
 132              		.global	FS_OS_DeInit
ARM GAS  C:\Users\javier\AppData\Local\Temp\ccG1rHhV.s 			page 5


 133              		.thumb
 134              		.thumb_func
 135              		.type	FS_OS_DeInit, %function
 136              	FS_OS_DeInit:
 137              	.LFB3:
  97:.\FS_X_OS.c   **** 
  98:.\FS_X_OS.c   **** /*********************************************************************
  99:.\FS_X_OS.c   **** *
 100:.\FS_X_OS.c   **** *       FS_X_OS_DeInit
 101:.\FS_X_OS.c   **** *
 102:.\FS_X_OS.c   **** *  Description:
 103:.\FS_X_OS.c   **** *    Delete all locks that have been created by FS_X_OS_Init().
 104:.\FS_X_OS.c   **** *    This makes sure that a
 105:.\FS_X_OS.c   **** *
 106:.\FS_X_OS.c   **** *  Parameters:
 107:.\FS_X_OS.c   **** *    None.
 108:.\FS_X_OS.c   **** *
 109:.\FS_X_OS.c   **** */
 110:.\FS_X_OS.c   **** void FS_OS_DeInit(void) {
 138              		.loc 1 110 0
 139              		.cfi_startproc
 140              		@ args = 0, pretend = 0, frame = 8
 141              		@ frame_needed = 1, uses_anonymous_args = 0
 142              		@ link register save eliminated.
 143 0000 80B4     		push	{r7}
 144              	.LCFI9:
 145              		.cfi_def_cfa_offset 4
 146              		.cfi_offset 7, -4
 147 0002 83B0     		sub	sp, sp, #12
 148              	.LCFI10:
 149              		.cfi_def_cfa_offset 16
 150 0004 00AF     		add	r7, sp, #0
 151              	.LCFI11:
 152              		.cfi_def_cfa_register 7
 111:.\FS_X_OS.c   ****   unsigned i;
 112:.\FS_X_OS.c   ****   unsigned    NumLocks = 0;
 153              		.loc 1 112 0
 154 0006 4FF00003 		mov	r3, #0
 155 000a 3B60     		str	r3, [r7, #0]
 113:.\FS_X_OS.c   **** 
 114:.\FS_X_OS.c   ****   for (i = 0; i < NumLocks; i++) {
 156              		.loc 1 114 0
 157 000c 4FF00003 		mov	r3, #0
 158 0010 7B60     		str	r3, [r7, #4]
 159 0012 03E0     		b	.L7
 160              	.L8:
 161              		.loc 1 114 0 is_stmt 0 discriminator 2
 162 0014 7B68     		ldr	r3, [r7, #4]
 163 0016 03F10103 		add	r3, r3, #1
 164 001a 7B60     		str	r3, [r7, #4]
 165              	.L7:
 166              		.loc 1 114 0 discriminator 1
 167 001c 7A68     		ldr	r2, [r7, #4]
 168 001e 3B68     		ldr	r3, [r7, #0]
 169 0020 9A42     		cmp	r2, r3
 170 0022 F7D3     		bcc	.L8
 115:.\FS_X_OS.c   ****   }
ARM GAS  C:\Users\javier\AppData\Local\Temp\ccG1rHhV.s 			page 6


 116:.\FS_X_OS.c   **** }
 171              		.loc 1 116 0 is_stmt 1
 172 0024 07F10C07 		add	r7, r7, #12
 173 0028 BD46     		mov	sp, r7
 174 002a 80BC     		pop	{r7}
 175 002c 7047     		bx	lr
 176              		.cfi_endproc
 177              	.LFE3:
 178              		.size	FS_OS_DeInit, .-FS_OS_DeInit
 179 002e 00BF     		.text
 180              	.Letext0: