ARM GAS  C:\Users\javier\AppData\Local\Temp\ccsAAitb.s 			page 1


   1              		.syntax unified
   2              		.cpu cortex-m3
   3              		.fpu softvfp
   4              		.eabi_attribute 20, 1
   5              		.eabi_attribute 21, 1
   6              		.eabi_attribute 23, 3
   7              		.eabi_attribute 24, 1
   8              		.eabi_attribute 25, 1
   9              		.eabi_attribute 26, 1
  10              		.eabi_attribute 30, 6
  11              		.eabi_attribute 34, 1
  12              		.eabi_attribute 18, 4
  13              		.thumb
  14              		.file	"GPS.c"
  15              		.text
  16              	.Ltext0:
  17              		.cfi_sections	.debug_frame
  18              		.global	GPS_initVar
  19              		.bss
  20              		.type	GPS_initVar, %object
  21              		.size	GPS_initVar, 1
  22              	GPS_initVar:
  23 0000 00       		.space	1
  24              		.comm	GPS_rxBuffer,80,4
  25              		.global	GPS_rxBufferRead
  26              		.type	GPS_rxBufferRead, %object
  27              		.size	GPS_rxBufferRead, 1
  28              	GPS_rxBufferRead:
  29 0001 00       		.space	1
  30              		.global	GPS_rxBufferWrite
  31              		.type	GPS_rxBufferWrite, %object
  32              		.size	GPS_rxBufferWrite, 1
  33              	GPS_rxBufferWrite:
  34 0002 00       		.space	1
  35              		.global	GPS_rxBufferLoopDetect
  36              		.type	GPS_rxBufferLoopDetect, %object
  37              		.size	GPS_rxBufferLoopDetect, 1
  38              	GPS_rxBufferLoopDetect:
  39 0003 00       		.space	1
  40              		.global	GPS_rxBufferOverflow
  41              		.type	GPS_rxBufferOverflow, %object
  42              		.size	GPS_rxBufferOverflow, 1
  43              	GPS_rxBufferOverflow:
  44 0004 00       		.space	1
  45              		.section	.text.GPS_Start,"ax",%progbits
  46              		.align	2
  47              		.global	GPS_Start
  48              		.thumb
  49              		.thumb_func
  50              		.type	GPS_Start, %function
  51              	GPS_Start:
  52              	.LFB0:
  53              		.file 1 ".\\Generated_Source\\PSoC5\\GPS.c"
   1:.\Generated_Source\PSoC5/GPS.c **** /*******************************************************************************
   2:.\Generated_Source\PSoC5/GPS.c **** * File Name: GPS.c
   3:.\Generated_Source\PSoC5/GPS.c **** * Version 2.30
   4:.\Generated_Source\PSoC5/GPS.c **** *
ARM GAS  C:\Users\javier\AppData\Local\Temp\ccsAAitb.s 			page 2


   5:.\Generated_Source\PSoC5/GPS.c **** * Description:
   6:.\Generated_Source\PSoC5/GPS.c **** *  This file provides all API functionality of the UART component
   7:.\Generated_Source\PSoC5/GPS.c **** *
   8:.\Generated_Source\PSoC5/GPS.c **** * Note:
   9:.\Generated_Source\PSoC5/GPS.c **** *
  10:.\Generated_Source\PSoC5/GPS.c **** ********************************************************************************
  11:.\Generated_Source\PSoC5/GPS.c **** * Copyright 2008-2012, Cypress Semiconductor Corporation.  All rights reserved.
  12:.\Generated_Source\PSoC5/GPS.c **** * You may use this file only in accordance with the license, terms, conditions,
  13:.\Generated_Source\PSoC5/GPS.c **** * disclaimers, and limitations in the end user license agreement accompanying
  14:.\Generated_Source\PSoC5/GPS.c **** * the software package with which this file was provided.
  15:.\Generated_Source\PSoC5/GPS.c **** *******************************************************************************/
  16:.\Generated_Source\PSoC5/GPS.c **** 
  17:.\Generated_Source\PSoC5/GPS.c **** #include "GPS.h"
  18:.\Generated_Source\PSoC5/GPS.c **** #include "CyLib.h"
  19:.\Generated_Source\PSoC5/GPS.c **** #if(GPS_INTERNAL_CLOCK_USED)
  20:.\Generated_Source\PSoC5/GPS.c ****     #include "GPS_IntClock.h"
  21:.\Generated_Source\PSoC5/GPS.c **** #endif /* End GPS_INTERNAL_CLOCK_USED */
  22:.\Generated_Source\PSoC5/GPS.c **** 
  23:.\Generated_Source\PSoC5/GPS.c **** 
  24:.\Generated_Source\PSoC5/GPS.c **** /***************************************
  25:.\Generated_Source\PSoC5/GPS.c **** * Global data allocation
  26:.\Generated_Source\PSoC5/GPS.c **** ***************************************/
  27:.\Generated_Source\PSoC5/GPS.c **** 
  28:.\Generated_Source\PSoC5/GPS.c **** uint8 GPS_initVar = 0u;
  29:.\Generated_Source\PSoC5/GPS.c **** #if( GPS_TX_ENABLED && (GPS_TXBUFFERSIZE > GPS_FIFO_LENGTH))
  30:.\Generated_Source\PSoC5/GPS.c ****     volatile uint8 GPS_txBuffer[GPS_TXBUFFERSIZE];
  31:.\Generated_Source\PSoC5/GPS.c ****     volatile uint8 GPS_txBufferRead = 0u;
  32:.\Generated_Source\PSoC5/GPS.c ****     uint8 GPS_txBufferWrite = 0u;
  33:.\Generated_Source\PSoC5/GPS.c **** #endif /* End GPS_TX_ENABLED */
  34:.\Generated_Source\PSoC5/GPS.c **** #if( ( GPS_RX_ENABLED || GPS_HD_ENABLED ) && \
  35:.\Generated_Source\PSoC5/GPS.c ****      (GPS_RXBUFFERSIZE > GPS_FIFO_LENGTH) )
  36:.\Generated_Source\PSoC5/GPS.c ****     volatile uint8 GPS_rxBuffer[GPS_RXBUFFERSIZE];
  37:.\Generated_Source\PSoC5/GPS.c ****     volatile uint8 GPS_rxBufferRead = 0u;
  38:.\Generated_Source\PSoC5/GPS.c ****     volatile uint8 GPS_rxBufferWrite = 0u;
  39:.\Generated_Source\PSoC5/GPS.c ****     volatile uint8 GPS_rxBufferLoopDetect = 0u;
  40:.\Generated_Source\PSoC5/GPS.c ****     volatile uint8 GPS_rxBufferOverflow = 0u;
  41:.\Generated_Source\PSoC5/GPS.c ****     #if (GPS_RXHW_ADDRESS_ENABLED)
  42:.\Generated_Source\PSoC5/GPS.c ****         volatile uint8 GPS_rxAddressMode = GPS_RXADDRESSMODE;
  43:.\Generated_Source\PSoC5/GPS.c ****         volatile uint8 GPS_rxAddressDetected = 0u;
  44:.\Generated_Source\PSoC5/GPS.c ****     #endif /* End EnableHWAddress */
  45:.\Generated_Source\PSoC5/GPS.c **** #endif /* End GPS_RX_ENABLED */
  46:.\Generated_Source\PSoC5/GPS.c **** 
  47:.\Generated_Source\PSoC5/GPS.c **** 
  48:.\Generated_Source\PSoC5/GPS.c **** /*******************************************************************************
  49:.\Generated_Source\PSoC5/GPS.c **** * Function Name: GPS_Start
  50:.\Generated_Source\PSoC5/GPS.c **** ********************************************************************************
  51:.\Generated_Source\PSoC5/GPS.c **** *
  52:.\Generated_Source\PSoC5/GPS.c **** * Summary:
  53:.\Generated_Source\PSoC5/GPS.c **** *  Initialize and Enable the UART component.
  54:.\Generated_Source\PSoC5/GPS.c **** *  Enable the clock input to enable operation.
  55:.\Generated_Source\PSoC5/GPS.c **** *
  56:.\Generated_Source\PSoC5/GPS.c **** * Parameters:
  57:.\Generated_Source\PSoC5/GPS.c **** *  None.
  58:.\Generated_Source\PSoC5/GPS.c **** *
  59:.\Generated_Source\PSoC5/GPS.c **** * Return:
  60:.\Generated_Source\PSoC5/GPS.c **** *  None.
  61:.\Generated_Source\PSoC5/GPS.c **** *
ARM GAS  C:\Users\javier\AppData\Local\Temp\ccsAAitb.s 			page 3


  62:.\Generated_Source\PSoC5/GPS.c **** * Global variables:
  63:.\Generated_Source\PSoC5/GPS.c **** *  The GPS_intiVar variable is used to indicate initial
  64:.\Generated_Source\PSoC5/GPS.c **** *  configuration of this component. The variable is initialized to zero (0u)
  65:.\Generated_Source\PSoC5/GPS.c **** *  and set to one (1u) the first time UART_Start() is called. This allows for
  66:.\Generated_Source\PSoC5/GPS.c **** *  component initialization without re-initialization in all subsequent calls
  67:.\Generated_Source\PSoC5/GPS.c **** *  to the GPS_Start() routine.
  68:.\Generated_Source\PSoC5/GPS.c **** *
  69:.\Generated_Source\PSoC5/GPS.c **** * Reentrant:
  70:.\Generated_Source\PSoC5/GPS.c **** *  No.
  71:.\Generated_Source\PSoC5/GPS.c **** *
  72:.\Generated_Source\PSoC5/GPS.c **** *******************************************************************************/
  73:.\Generated_Source\PSoC5/GPS.c **** void GPS_Start(void) 
  74:.\Generated_Source\PSoC5/GPS.c **** {
  54              		.loc 1 74 0
  55              		.cfi_startproc
  56              		@ args = 0, pretend = 0, frame = 0
  57              		@ frame_needed = 1, uses_anonymous_args = 0
  58 0000 80B5     		push	{r7, lr}
  59              	.LCFI0:
  60              		.cfi_def_cfa_offset 8
  61              		.cfi_offset 7, -8
  62              		.cfi_offset 14, -4
  63 0002 00AF     		add	r7, sp, #0
  64              	.LCFI1:
  65              		.cfi_def_cfa_register 7
  75:.\Generated_Source\PSoC5/GPS.c ****     /* If not Initialized then initialize all required hardware and software */
  76:.\Generated_Source\PSoC5/GPS.c ****     if(GPS_initVar == 0u)
  66              		.loc 1 76 0
  67 0004 40F20003 		movw	r3, #:lower16:GPS_initVar
  68 0008 C0F20003 		movt	r3, #:upper16:GPS_initVar
  69 000c 1B78     		ldrb	r3, [r3, #0]	@ zero_extendqisi2
  70 000e 002B     		cmp	r3, #0
  71 0010 08D1     		bne	.L2
  77:.\Generated_Source\PSoC5/GPS.c ****     {
  78:.\Generated_Source\PSoC5/GPS.c ****         GPS_Init();
  72              		.loc 1 78 0
  73 0012 FFF7FEFF 		bl	GPS_Init
  79:.\Generated_Source\PSoC5/GPS.c ****         GPS_initVar = 1u;
  74              		.loc 1 79 0
  75 0016 40F20003 		movw	r3, #:lower16:GPS_initVar
  76 001a C0F20003 		movt	r3, #:upper16:GPS_initVar
  77 001e 4FF00102 		mov	r2, #1
  78 0022 1A70     		strb	r2, [r3, #0]
  79              	.L2:
  80:.\Generated_Source\PSoC5/GPS.c ****     }
  81:.\Generated_Source\PSoC5/GPS.c ****     GPS_Enable();
  80              		.loc 1 81 0
  81 0024 FFF7FEFF 		bl	GPS_Enable
  82:.\Generated_Source\PSoC5/GPS.c **** }
  82              		.loc 1 82 0
  83 0028 80BD     		pop	{r7, pc}
  84              		.cfi_endproc
  85              	.LFE0:
  86              		.size	GPS_Start, .-GPS_Start
  87 002a 00BF     		.section	.text.GPS_Init,"ax",%progbits
  88              		.align	2
  89              		.global	GPS_Init
ARM GAS  C:\Users\javier\AppData\Local\Temp\ccsAAitb.s 			page 4


  90              		.thumb
  91              		.thumb_func
  92              		.type	GPS_Init, %function
  93              	GPS_Init:
  94              	.LFB1:
  83:.\Generated_Source\PSoC5/GPS.c **** 
  84:.\Generated_Source\PSoC5/GPS.c **** 
  85:.\Generated_Source\PSoC5/GPS.c **** /*******************************************************************************
  86:.\Generated_Source\PSoC5/GPS.c **** * Function Name: GPS_Init
  87:.\Generated_Source\PSoC5/GPS.c **** ********************************************************************************
  88:.\Generated_Source\PSoC5/GPS.c **** *
  89:.\Generated_Source\PSoC5/GPS.c **** * Summary:
  90:.\Generated_Source\PSoC5/GPS.c **** *  Initialize component's parameters to the parameters set by user in the
  91:.\Generated_Source\PSoC5/GPS.c **** *  customizer of the component placed onto schematic. Usually called in
  92:.\Generated_Source\PSoC5/GPS.c **** *  GPS_Start().
  93:.\Generated_Source\PSoC5/GPS.c **** *
  94:.\Generated_Source\PSoC5/GPS.c **** * Parameters:
  95:.\Generated_Source\PSoC5/GPS.c **** *  None.
  96:.\Generated_Source\PSoC5/GPS.c **** *
  97:.\Generated_Source\PSoC5/GPS.c **** * Return:
  98:.\Generated_Source\PSoC5/GPS.c **** *  None.
  99:.\Generated_Source\PSoC5/GPS.c **** *
 100:.\Generated_Source\PSoC5/GPS.c **** *******************************************************************************/
 101:.\Generated_Source\PSoC5/GPS.c **** void GPS_Init(void) 
 102:.\Generated_Source\PSoC5/GPS.c **** {
  95              		.loc 1 102 0
  96              		.cfi_startproc
  97              		@ args = 0, pretend = 0, frame = 0
  98              		@ frame_needed = 1, uses_anonymous_args = 0
  99 0000 80B5     		push	{r7, lr}
 100              	.LCFI2:
 101              		.cfi_def_cfa_offset 8
 102              		.cfi_offset 7, -8
 103              		.cfi_offset 14, -4
 104 0002 00AF     		add	r7, sp, #0
 105              	.LCFI3:
 106              		.cfi_def_cfa_register 7
 103:.\Generated_Source\PSoC5/GPS.c ****     #if(GPS_RX_ENABLED || GPS_HD_ENABLED)
 104:.\Generated_Source\PSoC5/GPS.c **** 
 105:.\Generated_Source\PSoC5/GPS.c ****         #if(GPS_RX_INTERRUPT_ENABLED && (GPS_RXBUFFERSIZE > GPS_FIFO_LENGTH))
 106:.\Generated_Source\PSoC5/GPS.c ****             /* Set the RX Interrupt. */
 107:.\Generated_Source\PSoC5/GPS.c ****             (void)CyIntSetVector(GPS_RX_VECT_NUM, &GPS_RXISR);
 107              		.loc 1 107 0
 108 0004 4FF00000 		mov	r0, #0
 109 0008 40F20001 		movw	r1, #:lower16:GPS_RXISR
 110 000c C0F20001 		movt	r1, #:upper16:GPS_RXISR
 111 0010 FFF7FEFF 		bl	CyIntSetVector
 108:.\Generated_Source\PSoC5/GPS.c ****             CyIntSetPriority(GPS_RX_VECT_NUM, GPS_RX_PRIOR_NUM);
 112              		.loc 1 108 0
 113 0014 4FF00000 		mov	r0, #0
 114 0018 4FF00701 		mov	r1, #7
 115 001c FFF7FEFF 		bl	CyIntSetPriority
 109:.\Generated_Source\PSoC5/GPS.c ****         #endif /* End GPS_RX_INTERRUPT_ENABLED */
 110:.\Generated_Source\PSoC5/GPS.c **** 
 111:.\Generated_Source\PSoC5/GPS.c ****         #if (GPS_RXHW_ADDRESS_ENABLED)
 112:.\Generated_Source\PSoC5/GPS.c ****             GPS_SetRxAddressMode(GPS_RXAddressMode);
 113:.\Generated_Source\PSoC5/GPS.c ****             GPS_SetRxAddress1(GPS_RXHWADDRESS1);
ARM GAS  C:\Users\javier\AppData\Local\Temp\ccsAAitb.s 			page 5


 114:.\Generated_Source\PSoC5/GPS.c ****             GPS_SetRxAddress2(GPS_RXHWADDRESS2);
 115:.\Generated_Source\PSoC5/GPS.c ****         #endif /* End GPS_RXHW_ADDRESS_ENABLED */
 116:.\Generated_Source\PSoC5/GPS.c **** 
 117:.\Generated_Source\PSoC5/GPS.c ****         /* Init Count7 period */
 118:.\Generated_Source\PSoC5/GPS.c ****         GPS_RXBITCTR_PERIOD_REG = GPS_RXBITCTR_INIT;
 116              		.loc 1 118 0
 117 0020 46F28643 		movw	r3, #25734
 118 0024 C4F20003 		movt	r3, 16384
 119 0028 4FF07202 		mov	r2, #114
 120 002c 1A70     		strb	r2, [r3, #0]
 119:.\Generated_Source\PSoC5/GPS.c ****         /* Configure the Initial RX interrupt mask */
 120:.\Generated_Source\PSoC5/GPS.c ****         GPS_RXSTATUS_MASK_REG  = GPS_INIT_RX_INTERRUPTS_MASK;
 121              		.loc 1 120 0
 122 002e 46F28653 		movw	r3, #25990
 123 0032 C4F20003 		movt	r3, 16384
 124 0036 4FF02002 		mov	r2, #32
 125 003a 1A70     		strb	r2, [r3, #0]
 121:.\Generated_Source\PSoC5/GPS.c ****     #endif /* End GPS_RX_ENABLED || GPS_HD_ENABLED*/
 122:.\Generated_Source\PSoC5/GPS.c **** 
 123:.\Generated_Source\PSoC5/GPS.c ****     #if(GPS_TX_ENABLED)
 124:.\Generated_Source\PSoC5/GPS.c ****         #if(GPS_TX_INTERRUPT_ENABLED && (GPS_TXBUFFERSIZE > GPS_FIFO_LENGTH))
 125:.\Generated_Source\PSoC5/GPS.c ****             /* Set the TX Interrupt. */
 126:.\Generated_Source\PSoC5/GPS.c ****             (void)CyIntSetVector(GPS_TX_VECT_NUM, &GPS_TXISR);
 127:.\Generated_Source\PSoC5/GPS.c ****             CyIntSetPriority(GPS_TX_VECT_NUM, GPS_TX_PRIOR_NUM);
 128:.\Generated_Source\PSoC5/GPS.c ****         #endif /* End GPS_TX_INTERRUPT_ENABLED */
 129:.\Generated_Source\PSoC5/GPS.c **** 
 130:.\Generated_Source\PSoC5/GPS.c ****         /* Write Counter Value for TX Bit Clk Generator*/
 131:.\Generated_Source\PSoC5/GPS.c ****         #if(GPS_TXCLKGEN_DP)
 132:.\Generated_Source\PSoC5/GPS.c ****             GPS_TXBITCLKGEN_CTR_REG = GPS_BIT_CENTER;
 133:.\Generated_Source\PSoC5/GPS.c ****             GPS_TXBITCLKTX_COMPLETE_REG = (GPS_NUMBER_OF_DATA_BITS +
 134:.\Generated_Source\PSoC5/GPS.c ****                         GPS_NUMBER_OF_START_BIT) * GPS_OVER_SAMPLE_COUNT;
 135:.\Generated_Source\PSoC5/GPS.c ****         #else
 136:.\Generated_Source\PSoC5/GPS.c ****             GPS_TXBITCTR_PERIOD_REG = ((GPS_NUMBER_OF_DATA_BITS +
 137:.\Generated_Source\PSoC5/GPS.c ****                         GPS_NUMBER_OF_START_BIT) * GPS_OVER_SAMPLE_8) - 1u;
 138:.\Generated_Source\PSoC5/GPS.c ****         #endif /* End GPS_TXCLKGEN_DP */
 139:.\Generated_Source\PSoC5/GPS.c **** 
 140:.\Generated_Source\PSoC5/GPS.c ****         /* Configure the Initial TX interrupt mask */
 141:.\Generated_Source\PSoC5/GPS.c ****         #if(GPS_TX_INTERRUPT_ENABLED && (GPS_TXBUFFERSIZE > GPS_FIFO_LENGTH))
 142:.\Generated_Source\PSoC5/GPS.c ****             GPS_TXSTATUS_MASK_REG = GPS_TX_STS_FIFO_EMPTY;
 143:.\Generated_Source\PSoC5/GPS.c ****         #else
 144:.\Generated_Source\PSoC5/GPS.c ****             GPS_TXSTATUS_MASK_REG = GPS_INIT_TX_INTERRUPTS_MASK;
 145:.\Generated_Source\PSoC5/GPS.c ****         #endif /*End GPS_TX_INTERRUPT_ENABLED*/
 146:.\Generated_Source\PSoC5/GPS.c **** 
 147:.\Generated_Source\PSoC5/GPS.c ****     #endif /* End GPS_TX_ENABLED */
 148:.\Generated_Source\PSoC5/GPS.c **** 
 149:.\Generated_Source\PSoC5/GPS.c ****     #if(GPS_PARITY_TYPE_SW)  /* Write Parity to Control Register */
 150:.\Generated_Source\PSoC5/GPS.c ****         GPS_WriteControlRegister( \
 151:.\Generated_Source\PSoC5/GPS.c ****             (GPS_ReadControlRegister() & (uint8)~GPS_CTRL_PARITY_TYPE_MASK) | \
 152:.\Generated_Source\PSoC5/GPS.c ****             (uint8)(GPS_PARITY_TYPE << GPS_CTRL_PARITY_TYPE0_SHIFT) );
 153:.\Generated_Source\PSoC5/GPS.c ****     #endif /* End GPS_PARITY_TYPE_SW */
 154:.\Generated_Source\PSoC5/GPS.c **** }
 126              		.loc 1 154 0
 127 003c 80BD     		pop	{r7, pc}
 128              		.cfi_endproc
 129              	.LFE1:
 130              		.size	GPS_Init, .-GPS_Init
 131 003e 00BF     		.section	.text.GPS_Enable,"ax",%progbits
ARM GAS  C:\Users\javier\AppData\Local\Temp\ccsAAitb.s 			page 6


 132              		.align	2
 133              		.global	GPS_Enable
 134              		.thumb
 135              		.thumb_func
 136              		.type	GPS_Enable, %function
 137              	GPS_Enable:
 138              	.LFB2:
 155:.\Generated_Source\PSoC5/GPS.c **** 
 156:.\Generated_Source\PSoC5/GPS.c **** 
 157:.\Generated_Source\PSoC5/GPS.c **** /*******************************************************************************
 158:.\Generated_Source\PSoC5/GPS.c **** * Function Name: GPS_Enable
 159:.\Generated_Source\PSoC5/GPS.c **** ********************************************************************************
 160:.\Generated_Source\PSoC5/GPS.c **** *
 161:.\Generated_Source\PSoC5/GPS.c **** * Summary:
 162:.\Generated_Source\PSoC5/GPS.c **** *  Enables the UART block operation
 163:.\Generated_Source\PSoC5/GPS.c **** *
 164:.\Generated_Source\PSoC5/GPS.c **** * Parameters:
 165:.\Generated_Source\PSoC5/GPS.c **** *  None.
 166:.\Generated_Source\PSoC5/GPS.c **** *
 167:.\Generated_Source\PSoC5/GPS.c **** * Return:
 168:.\Generated_Source\PSoC5/GPS.c **** *  None.
 169:.\Generated_Source\PSoC5/GPS.c **** *
 170:.\Generated_Source\PSoC5/GPS.c **** * Global Variables:
 171:.\Generated_Source\PSoC5/GPS.c **** *  GPS_rxAddressDetected - set to initial state (0).
 172:.\Generated_Source\PSoC5/GPS.c **** *
 173:.\Generated_Source\PSoC5/GPS.c **** *******************************************************************************/
 174:.\Generated_Source\PSoC5/GPS.c **** void GPS_Enable(void) 
 175:.\Generated_Source\PSoC5/GPS.c **** {
 139              		.loc 1 175 0
 140              		.cfi_startproc
 141              		@ args = 0, pretend = 0, frame = 8
 142              		@ frame_needed = 1, uses_anonymous_args = 0
 143 0000 80B5     		push	{r7, lr}
 144              	.LCFI4:
 145              		.cfi_def_cfa_offset 8
 146              		.cfi_offset 7, -8
 147              		.cfi_offset 14, -4
 148 0002 82B0     		sub	sp, sp, #8
 149              	.LCFI5:
 150              		.cfi_def_cfa_offset 16
 151 0004 00AF     		add	r7, sp, #0
 152              	.LCFI6:
 153              		.cfi_def_cfa_register 7
 176:.\Generated_Source\PSoC5/GPS.c ****     uint8 enableInterrupts;
 177:.\Generated_Source\PSoC5/GPS.c ****     enableInterrupts = CyEnterCriticalSection();
 154              		.loc 1 177 0
 155 0006 FFF7FEFF 		bl	CyEnterCriticalSection
 156 000a 0346     		mov	r3, r0
 157 000c FB71     		strb	r3, [r7, #7]
 178:.\Generated_Source\PSoC5/GPS.c **** 
 179:.\Generated_Source\PSoC5/GPS.c ****     #if(GPS_RX_ENABLED || GPS_HD_ENABLED)
 180:.\Generated_Source\PSoC5/GPS.c ****         /*RX Counter (Count7) Enable */
 181:.\Generated_Source\PSoC5/GPS.c ****         GPS_RXBITCTR_CONTROL_REG |= GPS_CNTR_ENABLE;
 158              		.loc 1 181 0
 159 000e 46F29643 		movw	r3, #25750
 160 0012 C4F20003 		movt	r3, 16384
 161 0016 46F29642 		movw	r2, #25750
ARM GAS  C:\Users\javier\AppData\Local\Temp\ccsAAitb.s 			page 7


 162 001a C4F20002 		movt	r2, 16384
 163 001e 1278     		ldrb	r2, [r2, #0]
 164 0020 D2B2     		uxtb	r2, r2
 165 0022 42F02002 		orr	r2, r2, #32
 166 0026 D2B2     		uxtb	r2, r2
 167 0028 1A70     		strb	r2, [r3, #0]
 182:.\Generated_Source\PSoC5/GPS.c ****         /* Enable the RX Interrupt. */
 183:.\Generated_Source\PSoC5/GPS.c ****         GPS_RXSTATUS_ACTL_REG  |= GPS_INT_ENABLE;
 168              		.loc 1 183 0
 169 002a 46F29653 		movw	r3, #26006
 170 002e C4F20003 		movt	r3, 16384
 171 0032 46F29652 		movw	r2, #26006
 172 0036 C4F20002 		movt	r2, 16384
 173 003a 1278     		ldrb	r2, [r2, #0]
 174 003c D2B2     		uxtb	r2, r2
 175 003e 42F01002 		orr	r2, r2, #16
 176 0042 D2B2     		uxtb	r2, r2
 177 0044 1A70     		strb	r2, [r3, #0]
 184:.\Generated_Source\PSoC5/GPS.c ****         #if(GPS_RX_INTERRUPT_ENABLED && (GPS_RXBUFFERSIZE > GPS_FIFO_LENGTH))
 185:.\Generated_Source\PSoC5/GPS.c ****             CyIntEnable(GPS_RX_VECT_NUM);
 178              		.loc 1 185 0
 179 0046 4FF46143 		mov	r3, #57600
 180 004a CEF20003 		movt	r3, 57344
 181 004e 4FF00102 		mov	r2, #1
 182 0052 1A60     		str	r2, [r3, #0]
 186:.\Generated_Source\PSoC5/GPS.c ****             #if (GPS_RXHW_ADDRESS_ENABLED)
 187:.\Generated_Source\PSoC5/GPS.c ****                 GPS_rxAddressDetected = 0u;
 188:.\Generated_Source\PSoC5/GPS.c ****             #endif /* End GPS_RXHW_ADDRESS_ENABLED */
 189:.\Generated_Source\PSoC5/GPS.c ****         #endif /* End GPS_RX_INTERRUPT_ENABLED */
 190:.\Generated_Source\PSoC5/GPS.c ****     #endif /* End GPS_RX_ENABLED || GPS_HD_ENABLED*/
 191:.\Generated_Source\PSoC5/GPS.c **** 
 192:.\Generated_Source\PSoC5/GPS.c ****     #if(GPS_TX_ENABLED)
 193:.\Generated_Source\PSoC5/GPS.c ****         /*TX Counter (DP/Count7) Enable */
 194:.\Generated_Source\PSoC5/GPS.c ****         #if(!GPS_TXCLKGEN_DP)
 195:.\Generated_Source\PSoC5/GPS.c ****             GPS_TXBITCTR_CONTROL_REG |= GPS_CNTR_ENABLE;
 196:.\Generated_Source\PSoC5/GPS.c ****         #endif /* End GPS_TXCLKGEN_DP */
 197:.\Generated_Source\PSoC5/GPS.c ****         /* Enable the TX Interrupt. */
 198:.\Generated_Source\PSoC5/GPS.c ****         GPS_TXSTATUS_ACTL_REG |= GPS_INT_ENABLE;
 199:.\Generated_Source\PSoC5/GPS.c ****         #if(GPS_TX_INTERRUPT_ENABLED && (GPS_TXBUFFERSIZE > GPS_FIFO_LENGTH))
 200:.\Generated_Source\PSoC5/GPS.c ****             CyIntEnable(GPS_TX_VECT_NUM);
 201:.\Generated_Source\PSoC5/GPS.c ****         #endif /* End GPS_TX_INTERRUPT_ENABLED*/
 202:.\Generated_Source\PSoC5/GPS.c ****      #endif /* End GPS_TX_ENABLED */
 203:.\Generated_Source\PSoC5/GPS.c **** 
 204:.\Generated_Source\PSoC5/GPS.c ****     #if(GPS_INTERNAL_CLOCK_USED)
 205:.\Generated_Source\PSoC5/GPS.c ****         /* Enable the clock. */
 206:.\Generated_Source\PSoC5/GPS.c ****         GPS_IntClock_Start();
 183              		.loc 1 206 0
 184 0054 FFF7FEFF 		bl	GPS_IntClock_Start
 207:.\Generated_Source\PSoC5/GPS.c ****     #endif /* End GPS_INTERNAL_CLOCK_USED */
 208:.\Generated_Source\PSoC5/GPS.c **** 
 209:.\Generated_Source\PSoC5/GPS.c ****     CyExitCriticalSection(enableInterrupts);
 185              		.loc 1 209 0
 186 0058 FB79     		ldrb	r3, [r7, #7]	@ zero_extendqisi2
 187 005a 1846     		mov	r0, r3
 188 005c FFF7FEFF 		bl	CyExitCriticalSection
 210:.\Generated_Source\PSoC5/GPS.c **** }
 189              		.loc 1 210 0
ARM GAS  C:\Users\javier\AppData\Local\Temp\ccsAAitb.s 			page 8


 190 0060 07F10807 		add	r7, r7, #8
 191 0064 BD46     		mov	sp, r7
 192 0066 80BD     		pop	{r7, pc}
 193              		.cfi_endproc
 194              	.LFE2:
 195              		.size	GPS_Enable, .-GPS_Enable
 196              		.section	.text.GPS_Stop,"ax",%progbits
 197              		.align	2
 198              		.global	GPS_Stop
 199              		.thumb
 200              		.thumb_func
 201              		.type	GPS_Stop, %function
 202              	GPS_Stop:
 203              	.LFB3:
 211:.\Generated_Source\PSoC5/GPS.c **** 
 212:.\Generated_Source\PSoC5/GPS.c **** 
 213:.\Generated_Source\PSoC5/GPS.c **** /*******************************************************************************
 214:.\Generated_Source\PSoC5/GPS.c **** * Function Name: GPS_Stop
 215:.\Generated_Source\PSoC5/GPS.c **** ********************************************************************************
 216:.\Generated_Source\PSoC5/GPS.c **** *
 217:.\Generated_Source\PSoC5/GPS.c **** * Summary:
 218:.\Generated_Source\PSoC5/GPS.c **** *  Disable the UART component
 219:.\Generated_Source\PSoC5/GPS.c **** *
 220:.\Generated_Source\PSoC5/GPS.c **** * Parameters:
 221:.\Generated_Source\PSoC5/GPS.c **** *  None.
 222:.\Generated_Source\PSoC5/GPS.c **** *
 223:.\Generated_Source\PSoC5/GPS.c **** * Return:
 224:.\Generated_Source\PSoC5/GPS.c **** *  None.
 225:.\Generated_Source\PSoC5/GPS.c **** *
 226:.\Generated_Source\PSoC5/GPS.c **** *******************************************************************************/
 227:.\Generated_Source\PSoC5/GPS.c **** void GPS_Stop(void) 
 228:.\Generated_Source\PSoC5/GPS.c **** {
 204              		.loc 1 228 0
 205              		.cfi_startproc
 206              		@ args = 0, pretend = 0, frame = 8
 207              		@ frame_needed = 1, uses_anonymous_args = 0
 208 0000 80B5     		push	{r7, lr}
 209              	.LCFI7:
 210              		.cfi_def_cfa_offset 8
 211              		.cfi_offset 7, -8
 212              		.cfi_offset 14, -4
 213 0002 82B0     		sub	sp, sp, #8
 214              	.LCFI8:
 215              		.cfi_def_cfa_offset 16
 216 0004 00AF     		add	r7, sp, #0
 217              	.LCFI9:
 218              		.cfi_def_cfa_register 7
 229:.\Generated_Source\PSoC5/GPS.c ****     uint8 enableInterrupts;
 230:.\Generated_Source\PSoC5/GPS.c ****     enableInterrupts = CyEnterCriticalSection();
 219              		.loc 1 230 0
 220 0006 FFF7FEFF 		bl	CyEnterCriticalSection
 221 000a 0346     		mov	r3, r0
 222 000c FB71     		strb	r3, [r7, #7]
 231:.\Generated_Source\PSoC5/GPS.c **** 
 232:.\Generated_Source\PSoC5/GPS.c ****     /* Write Bit Counter Disable */
 233:.\Generated_Source\PSoC5/GPS.c ****     #if(GPS_RX_ENABLED || GPS_HD_ENABLED)
 234:.\Generated_Source\PSoC5/GPS.c ****         GPS_RXBITCTR_CONTROL_REG &= (uint8)~GPS_CNTR_ENABLE;
ARM GAS  C:\Users\javier\AppData\Local\Temp\ccsAAitb.s 			page 9


 223              		.loc 1 234 0
 224 000e 46F29643 		movw	r3, #25750
 225 0012 C4F20003 		movt	r3, 16384
 226 0016 46F29642 		movw	r2, #25750
 227 001a C4F20002 		movt	r2, 16384
 228 001e 1278     		ldrb	r2, [r2, #0]
 229 0020 D2B2     		uxtb	r2, r2
 230 0022 22F02002 		bic	r2, r2, #32
 231 0026 D2B2     		uxtb	r2, r2
 232 0028 1A70     		strb	r2, [r3, #0]
 235:.\Generated_Source\PSoC5/GPS.c ****     #endif /* End GPS_RX_ENABLED */
 236:.\Generated_Source\PSoC5/GPS.c **** 
 237:.\Generated_Source\PSoC5/GPS.c ****     #if(GPS_TX_ENABLED)
 238:.\Generated_Source\PSoC5/GPS.c ****         #if(!GPS_TXCLKGEN_DP)
 239:.\Generated_Source\PSoC5/GPS.c ****             GPS_TXBITCTR_CONTROL_REG &= (uint8)~GPS_CNTR_ENABLE;
 240:.\Generated_Source\PSoC5/GPS.c ****         #endif /* End GPS_TXCLKGEN_DP */
 241:.\Generated_Source\PSoC5/GPS.c ****     #endif /* GPS_TX_ENABLED */
 242:.\Generated_Source\PSoC5/GPS.c **** 
 243:.\Generated_Source\PSoC5/GPS.c ****     #if(GPS_INTERNAL_CLOCK_USED)
 244:.\Generated_Source\PSoC5/GPS.c ****         /* Disable the clock. */
 245:.\Generated_Source\PSoC5/GPS.c ****         GPS_IntClock_Stop();
 233              		.loc 1 245 0
 234 002a FFF7FEFF 		bl	GPS_IntClock_Stop
 246:.\Generated_Source\PSoC5/GPS.c ****     #endif /* End GPS_INTERNAL_CLOCK_USED */
 247:.\Generated_Source\PSoC5/GPS.c **** 
 248:.\Generated_Source\PSoC5/GPS.c ****     /* Disable internal interrupt component */
 249:.\Generated_Source\PSoC5/GPS.c ****     #if(GPS_RX_ENABLED || GPS_HD_ENABLED)
 250:.\Generated_Source\PSoC5/GPS.c ****         GPS_RXSTATUS_ACTL_REG  &= (uint8)~GPS_INT_ENABLE;
 235              		.loc 1 250 0
 236 002e 46F29653 		movw	r3, #26006
 237 0032 C4F20003 		movt	r3, 16384
 238 0036 46F29652 		movw	r2, #26006
 239 003a C4F20002 		movt	r2, 16384
 240 003e 1278     		ldrb	r2, [r2, #0]
 241 0040 D2B2     		uxtb	r2, r2
 242 0042 22F01002 		bic	r2, r2, #16
 243 0046 D2B2     		uxtb	r2, r2
 244 0048 1A70     		strb	r2, [r3, #0]
 251:.\Generated_Source\PSoC5/GPS.c ****         #if(GPS_RX_INTERRUPT_ENABLED && (GPS_RXBUFFERSIZE > GPS_FIFO_LENGTH))
 252:.\Generated_Source\PSoC5/GPS.c ****             GPS_DisableRxInt();
 245              		.loc 1 252 0
 246 004a FFF7FEFF 		bl	GPS_DisableRxInt
 253:.\Generated_Source\PSoC5/GPS.c ****         #endif /* End GPS_RX_INTERRUPT_ENABLED */
 254:.\Generated_Source\PSoC5/GPS.c ****     #endif /* End GPS_RX_ENABLED */
 255:.\Generated_Source\PSoC5/GPS.c **** 
 256:.\Generated_Source\PSoC5/GPS.c ****     #if(GPS_TX_ENABLED)
 257:.\Generated_Source\PSoC5/GPS.c ****         GPS_TXSTATUS_ACTL_REG &= (uint8)~GPS_INT_ENABLE;
 258:.\Generated_Source\PSoC5/GPS.c ****         #if(GPS_TX_INTERRUPT_ENABLED && (GPS_TXBUFFERSIZE > GPS_FIFO_LENGTH))
 259:.\Generated_Source\PSoC5/GPS.c ****             GPS_DisableTxInt();
 260:.\Generated_Source\PSoC5/GPS.c ****         #endif /* End GPS_TX_INTERRUPT_ENABLED */
 261:.\Generated_Source\PSoC5/GPS.c ****     #endif /* End GPS_TX_ENABLED */
 262:.\Generated_Source\PSoC5/GPS.c **** 
 263:.\Generated_Source\PSoC5/GPS.c ****     CyExitCriticalSection(enableInterrupts);
 247              		.loc 1 263 0
 248 004e FB79     		ldrb	r3, [r7, #7]	@ zero_extendqisi2
 249 0050 1846     		mov	r0, r3
 250 0052 FFF7FEFF 		bl	CyExitCriticalSection
ARM GAS  C:\Users\javier\AppData\Local\Temp\ccsAAitb.s 			page 10


 264:.\Generated_Source\PSoC5/GPS.c **** }
 251              		.loc 1 264 0
 252 0056 07F10807 		add	r7, r7, #8
 253 005a BD46     		mov	sp, r7
 254 005c 80BD     		pop	{r7, pc}
 255              		.cfi_endproc
 256              	.LFE3:
 257              		.size	GPS_Stop, .-GPS_Stop
 258 005e 00BF     		.section	.text.GPS_ReadControlRegister,"ax",%progbits
 259              		.align	2
 260              		.global	GPS_ReadControlRegister
 261              		.thumb
 262              		.thumb_func
 263              		.type	GPS_ReadControlRegister, %function
 264              	GPS_ReadControlRegister:
 265              	.LFB4:
 265:.\Generated_Source\PSoC5/GPS.c **** 
 266:.\Generated_Source\PSoC5/GPS.c **** 
 267:.\Generated_Source\PSoC5/GPS.c **** /*******************************************************************************
 268:.\Generated_Source\PSoC5/GPS.c **** * Function Name: GPS_ReadControlRegister
 269:.\Generated_Source\PSoC5/GPS.c **** ********************************************************************************
 270:.\Generated_Source\PSoC5/GPS.c **** *
 271:.\Generated_Source\PSoC5/GPS.c **** * Summary:
 272:.\Generated_Source\PSoC5/GPS.c **** *  Read the current state of the control register
 273:.\Generated_Source\PSoC5/GPS.c **** *
 274:.\Generated_Source\PSoC5/GPS.c **** * Parameters:
 275:.\Generated_Source\PSoC5/GPS.c **** *  None.
 276:.\Generated_Source\PSoC5/GPS.c **** *
 277:.\Generated_Source\PSoC5/GPS.c **** * Return:
 278:.\Generated_Source\PSoC5/GPS.c **** *  Current state of the control register.
 279:.\Generated_Source\PSoC5/GPS.c **** *
 280:.\Generated_Source\PSoC5/GPS.c **** *******************************************************************************/
 281:.\Generated_Source\PSoC5/GPS.c **** uint8 GPS_ReadControlRegister(void) 
 282:.\Generated_Source\PSoC5/GPS.c **** {
 266              		.loc 1 282 0
 267              		.cfi_startproc
 268              		@ args = 0, pretend = 0, frame = 0
 269              		@ frame_needed = 1, uses_anonymous_args = 0
 270              		@ link register save eliminated.
 271 0000 80B4     		push	{r7}
 272              	.LCFI10:
 273              		.cfi_def_cfa_offset 4
 274              		.cfi_offset 7, -4
 275 0002 00AF     		add	r7, sp, #0
 276              	.LCFI11:
 277              		.cfi_def_cfa_register 7
 283:.\Generated_Source\PSoC5/GPS.c ****     #if( GPS_CONTROL_REG_REMOVED )
 284:.\Generated_Source\PSoC5/GPS.c ****         return(0u);
 278              		.loc 1 284 0
 279 0004 4FF00003 		mov	r3, #0
 285:.\Generated_Source\PSoC5/GPS.c ****     #else
 286:.\Generated_Source\PSoC5/GPS.c ****         return(GPS_CONTROL_REG);
 287:.\Generated_Source\PSoC5/GPS.c ****     #endif /* End GPS_CONTROL_REG_REMOVED */
 288:.\Generated_Source\PSoC5/GPS.c **** }
 280              		.loc 1 288 0
 281 0008 1846     		mov	r0, r3
 282 000a BD46     		mov	sp, r7
ARM GAS  C:\Users\javier\AppData\Local\Temp\ccsAAitb.s 			page 11


 283 000c 80BC     		pop	{r7}
 284 000e 7047     		bx	lr
 285              		.cfi_endproc
 286              	.LFE4:
 287              		.size	GPS_ReadControlRegister, .-GPS_ReadControlRegister
 288              		.section	.text.GPS_WriteControlRegister,"ax",%progbits
 289              		.align	2
 290              		.global	GPS_WriteControlRegister
 291              		.thumb
 292              		.thumb_func
 293              		.type	GPS_WriteControlRegister, %function
 294              	GPS_WriteControlRegister:
 295              	.LFB5:
 289:.\Generated_Source\PSoC5/GPS.c **** 
 290:.\Generated_Source\PSoC5/GPS.c **** 
 291:.\Generated_Source\PSoC5/GPS.c **** /*******************************************************************************
 292:.\Generated_Source\PSoC5/GPS.c **** * Function Name: GPS_WriteControlRegister
 293:.\Generated_Source\PSoC5/GPS.c **** ********************************************************************************
 294:.\Generated_Source\PSoC5/GPS.c **** *
 295:.\Generated_Source\PSoC5/GPS.c **** * Summary:
 296:.\Generated_Source\PSoC5/GPS.c **** *  Writes an 8-bit value into the control register
 297:.\Generated_Source\PSoC5/GPS.c **** *
 298:.\Generated_Source\PSoC5/GPS.c **** * Parameters:
 299:.\Generated_Source\PSoC5/GPS.c **** *  control:  control register value
 300:.\Generated_Source\PSoC5/GPS.c **** *
 301:.\Generated_Source\PSoC5/GPS.c **** * Return:
 302:.\Generated_Source\PSoC5/GPS.c **** *  None.
 303:.\Generated_Source\PSoC5/GPS.c **** *
 304:.\Generated_Source\PSoC5/GPS.c **** *******************************************************************************/
 305:.\Generated_Source\PSoC5/GPS.c **** void  GPS_WriteControlRegister(uint8 control) 
 306:.\Generated_Source\PSoC5/GPS.c **** {
 296              		.loc 1 306 0
 297              		.cfi_startproc
 298              		@ args = 0, pretend = 0, frame = 8
 299              		@ frame_needed = 1, uses_anonymous_args = 0
 300              		@ link register save eliminated.
 301 0000 80B4     		push	{r7}
 302              	.LCFI12:
 303              		.cfi_def_cfa_offset 4
 304              		.cfi_offset 7, -4
 305 0002 83B0     		sub	sp, sp, #12
 306              	.LCFI13:
 307              		.cfi_def_cfa_offset 16
 308 0004 00AF     		add	r7, sp, #0
 309              	.LCFI14:
 310              		.cfi_def_cfa_register 7
 311 0006 0346     		mov	r3, r0
 312 0008 FB71     		strb	r3, [r7, #7]
 307:.\Generated_Source\PSoC5/GPS.c ****     #if( GPS_CONTROL_REG_REMOVED )
 308:.\Generated_Source\PSoC5/GPS.c ****         if(control != 0u) { }      /* release compiler warning */
 309:.\Generated_Source\PSoC5/GPS.c ****     #else
 310:.\Generated_Source\PSoC5/GPS.c ****        GPS_CONTROL_REG = control;
 311:.\Generated_Source\PSoC5/GPS.c ****     #endif /* End GPS_CONTROL_REG_REMOVED */
 312:.\Generated_Source\PSoC5/GPS.c **** }
 313              		.loc 1 312 0
 314 000a 07F10C07 		add	r7, r7, #12
 315 000e BD46     		mov	sp, r7
ARM GAS  C:\Users\javier\AppData\Local\Temp\ccsAAitb.s 			page 12


 316 0010 80BC     		pop	{r7}
 317 0012 7047     		bx	lr
 318              		.cfi_endproc
 319              	.LFE5:
 320              		.size	GPS_WriteControlRegister, .-GPS_WriteControlRegister
 321              		.section	.text.GPS_EnableRxInt,"ax",%progbits
 322              		.align	2
 323              		.global	GPS_EnableRxInt
 324              		.thumb
 325              		.thumb_func
 326              		.type	GPS_EnableRxInt, %function
 327              	GPS_EnableRxInt:
 328              	.LFB6:
 313:.\Generated_Source\PSoC5/GPS.c **** 
 314:.\Generated_Source\PSoC5/GPS.c **** 
 315:.\Generated_Source\PSoC5/GPS.c **** #if(GPS_RX_ENABLED || GPS_HD_ENABLED)
 316:.\Generated_Source\PSoC5/GPS.c **** 
 317:.\Generated_Source\PSoC5/GPS.c ****     #if(GPS_RX_INTERRUPT_ENABLED)
 318:.\Generated_Source\PSoC5/GPS.c **** 
 319:.\Generated_Source\PSoC5/GPS.c ****         /*******************************************************************************
 320:.\Generated_Source\PSoC5/GPS.c ****         * Function Name: GPS_EnableRxInt
 321:.\Generated_Source\PSoC5/GPS.c ****         ********************************************************************************
 322:.\Generated_Source\PSoC5/GPS.c ****         *
 323:.\Generated_Source\PSoC5/GPS.c ****         * Summary:
 324:.\Generated_Source\PSoC5/GPS.c ****         *  Enable RX interrupt generation
 325:.\Generated_Source\PSoC5/GPS.c ****         *
 326:.\Generated_Source\PSoC5/GPS.c ****         * Parameters:
 327:.\Generated_Source\PSoC5/GPS.c ****         *  None.
 328:.\Generated_Source\PSoC5/GPS.c ****         *
 329:.\Generated_Source\PSoC5/GPS.c ****         * Return:
 330:.\Generated_Source\PSoC5/GPS.c ****         *  None.
 331:.\Generated_Source\PSoC5/GPS.c ****         *
 332:.\Generated_Source\PSoC5/GPS.c ****         * Theory:
 333:.\Generated_Source\PSoC5/GPS.c ****         *  Enable the interrupt output -or- the interrupt component itself
 334:.\Generated_Source\PSoC5/GPS.c ****         *
 335:.\Generated_Source\PSoC5/GPS.c ****         *******************************************************************************/
 336:.\Generated_Source\PSoC5/GPS.c ****         void GPS_EnableRxInt(void) 
 337:.\Generated_Source\PSoC5/GPS.c ****         {
 329              		.loc 1 337 0
 330              		.cfi_startproc
 331              		@ args = 0, pretend = 0, frame = 0
 332              		@ frame_needed = 1, uses_anonymous_args = 0
 333              		@ link register save eliminated.
 334 0000 80B4     		push	{r7}
 335              	.LCFI15:
 336              		.cfi_def_cfa_offset 4
 337              		.cfi_offset 7, -4
 338 0002 00AF     		add	r7, sp, #0
 339              	.LCFI16:
 340              		.cfi_def_cfa_register 7
 338:.\Generated_Source\PSoC5/GPS.c ****             CyIntEnable(GPS_RX_VECT_NUM);
 341              		.loc 1 338 0
 342 0004 4FF46143 		mov	r3, #57600
 343 0008 CEF20003 		movt	r3, 57344
 344 000c 4FF00102 		mov	r2, #1
 345 0010 1A60     		str	r2, [r3, #0]
 339:.\Generated_Source\PSoC5/GPS.c ****         }
ARM GAS  C:\Users\javier\AppData\Local\Temp\ccsAAitb.s 			page 13


 346              		.loc 1 339 0
 347 0012 BD46     		mov	sp, r7
 348 0014 80BC     		pop	{r7}
 349 0016 7047     		bx	lr
 350              		.cfi_endproc
 351              	.LFE6:
 352              		.size	GPS_EnableRxInt, .-GPS_EnableRxInt
 353              		.section	.text.GPS_DisableRxInt,"ax",%progbits
 354              		.align	2
 355              		.global	GPS_DisableRxInt
 356              		.thumb
 357              		.thumb_func
 358              		.type	GPS_DisableRxInt, %function
 359              	GPS_DisableRxInt:
 360              	.LFB7:
 340:.\Generated_Source\PSoC5/GPS.c **** 
 341:.\Generated_Source\PSoC5/GPS.c **** 
 342:.\Generated_Source\PSoC5/GPS.c ****         /*******************************************************************************
 343:.\Generated_Source\PSoC5/GPS.c ****         * Function Name: GPS_DisableRxInt
 344:.\Generated_Source\PSoC5/GPS.c ****         ********************************************************************************
 345:.\Generated_Source\PSoC5/GPS.c ****         *
 346:.\Generated_Source\PSoC5/GPS.c ****         * Summary:
 347:.\Generated_Source\PSoC5/GPS.c ****         *  Disable RX interrupt generation
 348:.\Generated_Source\PSoC5/GPS.c ****         *
 349:.\Generated_Source\PSoC5/GPS.c ****         * Parameters:
 350:.\Generated_Source\PSoC5/GPS.c ****         *  None.
 351:.\Generated_Source\PSoC5/GPS.c ****         *
 352:.\Generated_Source\PSoC5/GPS.c ****         * Return:
 353:.\Generated_Source\PSoC5/GPS.c ****         *  None.
 354:.\Generated_Source\PSoC5/GPS.c ****         *
 355:.\Generated_Source\PSoC5/GPS.c ****         * Theory:
 356:.\Generated_Source\PSoC5/GPS.c ****         *  Disable the interrupt output -or- the interrupt component itself
 357:.\Generated_Source\PSoC5/GPS.c ****         *
 358:.\Generated_Source\PSoC5/GPS.c ****         *******************************************************************************/
 359:.\Generated_Source\PSoC5/GPS.c ****         void GPS_DisableRxInt(void) 
 360:.\Generated_Source\PSoC5/GPS.c ****         {
 361              		.loc 1 360 0
 362              		.cfi_startproc
 363              		@ args = 0, pretend = 0, frame = 0
 364              		@ frame_needed = 1, uses_anonymous_args = 0
 365              		@ link register save eliminated.
 366 0000 80B4     		push	{r7}
 367              	.LCFI17:
 368              		.cfi_def_cfa_offset 4
 369              		.cfi_offset 7, -4
 370 0002 00AF     		add	r7, sp, #0
 371              	.LCFI18:
 372              		.cfi_def_cfa_register 7
 361:.\Generated_Source\PSoC5/GPS.c ****             CyIntDisable(GPS_RX_VECT_NUM);
 373              		.loc 1 361 0
 374 0004 4EF28013 		movw	r3, #57728
 375 0008 CEF20003 		movt	r3, 57344
 376 000c 4FF00102 		mov	r2, #1
 377 0010 1A60     		str	r2, [r3, #0]
 362:.\Generated_Source\PSoC5/GPS.c ****         }
 378              		.loc 1 362 0
 379 0012 BD46     		mov	sp, r7
ARM GAS  C:\Users\javier\AppData\Local\Temp\ccsAAitb.s 			page 14


 380 0014 80BC     		pop	{r7}
 381 0016 7047     		bx	lr
 382              		.cfi_endproc
 383              	.LFE7:
 384              		.size	GPS_DisableRxInt, .-GPS_DisableRxInt
 385              		.section	.text.GPS_SetRxInterruptMode,"ax",%progbits
 386              		.align	2
 387              		.global	GPS_SetRxInterruptMode
 388              		.thumb
 389              		.thumb_func
 390              		.type	GPS_SetRxInterruptMode, %function
 391              	GPS_SetRxInterruptMode:
 392              	.LFB8:
 363:.\Generated_Source\PSoC5/GPS.c **** 
 364:.\Generated_Source\PSoC5/GPS.c ****     #endif /* GPS_RX_INTERRUPT_ENABLED */
 365:.\Generated_Source\PSoC5/GPS.c **** 
 366:.\Generated_Source\PSoC5/GPS.c **** 
 367:.\Generated_Source\PSoC5/GPS.c ****     /*******************************************************************************
 368:.\Generated_Source\PSoC5/GPS.c ****     * Function Name: GPS_SetRxInterruptMode
 369:.\Generated_Source\PSoC5/GPS.c ****     ********************************************************************************
 370:.\Generated_Source\PSoC5/GPS.c ****     *
 371:.\Generated_Source\PSoC5/GPS.c ****     * Summary:
 372:.\Generated_Source\PSoC5/GPS.c ****     *  Configure which status bits trigger an interrupt event
 373:.\Generated_Source\PSoC5/GPS.c ****     *
 374:.\Generated_Source\PSoC5/GPS.c ****     * Parameters:
 375:.\Generated_Source\PSoC5/GPS.c ****     *  IntSrc:  An or'd combination of the desired status bit masks (defined in
 376:.\Generated_Source\PSoC5/GPS.c ****     *           the header file)
 377:.\Generated_Source\PSoC5/GPS.c ****     *
 378:.\Generated_Source\PSoC5/GPS.c ****     * Return:
 379:.\Generated_Source\PSoC5/GPS.c ****     *  None.
 380:.\Generated_Source\PSoC5/GPS.c ****     *
 381:.\Generated_Source\PSoC5/GPS.c ****     * Theory:
 382:.\Generated_Source\PSoC5/GPS.c ****     *  Enables the output of specific status bits to the interrupt controller
 383:.\Generated_Source\PSoC5/GPS.c ****     *
 384:.\Generated_Source\PSoC5/GPS.c ****     *******************************************************************************/
 385:.\Generated_Source\PSoC5/GPS.c ****     void GPS_SetRxInterruptMode(uint8 intSrc) 
 386:.\Generated_Source\PSoC5/GPS.c ****     {
 393              		.loc 1 386 0
 394              		.cfi_startproc
 395              		@ args = 0, pretend = 0, frame = 8
 396              		@ frame_needed = 1, uses_anonymous_args = 0
 397              		@ link register save eliminated.
 398 0000 80B4     		push	{r7}
 399              	.LCFI19:
 400              		.cfi_def_cfa_offset 4
 401              		.cfi_offset 7, -4
 402 0002 83B0     		sub	sp, sp, #12
 403              	.LCFI20:
 404              		.cfi_def_cfa_offset 16
 405 0004 00AF     		add	r7, sp, #0
 406              	.LCFI21:
 407              		.cfi_def_cfa_register 7
 408 0006 0346     		mov	r3, r0
 409 0008 FB71     		strb	r3, [r7, #7]
 387:.\Generated_Source\PSoC5/GPS.c ****         GPS_RXSTATUS_MASK_REG  = intSrc;
 410              		.loc 1 387 0
 411 000a 46F28653 		movw	r3, #25990
ARM GAS  C:\Users\javier\AppData\Local\Temp\ccsAAitb.s 			page 15


 412 000e C4F20003 		movt	r3, 16384
 413 0012 FA79     		ldrb	r2, [r7, #7]
 414 0014 1A70     		strb	r2, [r3, #0]
 388:.\Generated_Source\PSoC5/GPS.c ****     }
 415              		.loc 1 388 0
 416 0016 07F10C07 		add	r7, r7, #12
 417 001a BD46     		mov	sp, r7
 418 001c 80BC     		pop	{r7}
 419 001e 7047     		bx	lr
 420              		.cfi_endproc
 421              	.LFE8:
 422              		.size	GPS_SetRxInterruptMode, .-GPS_SetRxInterruptMode
 423              		.section	.text.GPS_ReadRxData,"ax",%progbits
 424              		.align	2
 425              		.global	GPS_ReadRxData
 426              		.thumb
 427              		.thumb_func
 428              		.type	GPS_ReadRxData, %function
 429              	GPS_ReadRxData:
 430              	.LFB9:
 389:.\Generated_Source\PSoC5/GPS.c **** 
 390:.\Generated_Source\PSoC5/GPS.c **** 
 391:.\Generated_Source\PSoC5/GPS.c ****     /*******************************************************************************
 392:.\Generated_Source\PSoC5/GPS.c ****     * Function Name: GPS_ReadRxData
 393:.\Generated_Source\PSoC5/GPS.c ****     ********************************************************************************
 394:.\Generated_Source\PSoC5/GPS.c ****     *
 395:.\Generated_Source\PSoC5/GPS.c ****     * Summary:
 396:.\Generated_Source\PSoC5/GPS.c ****     *  Returns data in RX Data register without checking status register to
 397:.\Generated_Source\PSoC5/GPS.c ****     *  determine if data is valid
 398:.\Generated_Source\PSoC5/GPS.c ****     *
 399:.\Generated_Source\PSoC5/GPS.c ****     * Parameters:
 400:.\Generated_Source\PSoC5/GPS.c ****     *  None.
 401:.\Generated_Source\PSoC5/GPS.c ****     *
 402:.\Generated_Source\PSoC5/GPS.c ****     * Return:
 403:.\Generated_Source\PSoC5/GPS.c ****     *  Received data from RX register
 404:.\Generated_Source\PSoC5/GPS.c ****     *
 405:.\Generated_Source\PSoC5/GPS.c ****     * Global Variables:
 406:.\Generated_Source\PSoC5/GPS.c ****     *  GPS_rxBuffer - RAM buffer pointer for save received data.
 407:.\Generated_Source\PSoC5/GPS.c ****     *  GPS_rxBufferWrite - cyclic index for write to rxBuffer,
 408:.\Generated_Source\PSoC5/GPS.c ****     *     checked to identify new data.
 409:.\Generated_Source\PSoC5/GPS.c ****     *  GPS_rxBufferRead - cyclic index for read from rxBuffer,
 410:.\Generated_Source\PSoC5/GPS.c ****     *     incremented after each byte has been read from buffer.
 411:.\Generated_Source\PSoC5/GPS.c ****     *  GPS_rxBufferLoopDetect - creared if loop condition was detected
 412:.\Generated_Source\PSoC5/GPS.c ****     *     in RX ISR.
 413:.\Generated_Source\PSoC5/GPS.c ****     *
 414:.\Generated_Source\PSoC5/GPS.c ****     * Reentrant:
 415:.\Generated_Source\PSoC5/GPS.c ****     *  No.
 416:.\Generated_Source\PSoC5/GPS.c ****     *
 417:.\Generated_Source\PSoC5/GPS.c ****     *******************************************************************************/
 418:.\Generated_Source\PSoC5/GPS.c ****     uint8 GPS_ReadRxData(void) 
 419:.\Generated_Source\PSoC5/GPS.c ****     {
 431              		.loc 1 419 0
 432              		.cfi_startproc
 433              		@ args = 0, pretend = 0, frame = 8
 434              		@ frame_needed = 1, uses_anonymous_args = 0
 435 0000 80B5     		push	{r7, lr}
 436              	.LCFI22:
ARM GAS  C:\Users\javier\AppData\Local\Temp\ccsAAitb.s 			page 16


 437              		.cfi_def_cfa_offset 8
 438              		.cfi_offset 7, -8
 439              		.cfi_offset 14, -4
 440 0002 82B0     		sub	sp, sp, #8
 441              	.LCFI23:
 442              		.cfi_def_cfa_offset 16
 443 0004 00AF     		add	r7, sp, #0
 444              	.LCFI24:
 445              		.cfi_def_cfa_register 7
 420:.\Generated_Source\PSoC5/GPS.c ****         uint8 rxData;
 421:.\Generated_Source\PSoC5/GPS.c **** 
 422:.\Generated_Source\PSoC5/GPS.c ****         #if(GPS_RXBUFFERSIZE > GPS_FIFO_LENGTH)
 423:.\Generated_Source\PSoC5/GPS.c ****             uint8 loc_rxBufferRead;
 424:.\Generated_Source\PSoC5/GPS.c ****             uint8 loc_rxBufferWrite;
 425:.\Generated_Source\PSoC5/GPS.c ****             /* Protect variables that could change on interrupt. */
 426:.\Generated_Source\PSoC5/GPS.c ****             /* Disable Rx interrupt. */
 427:.\Generated_Source\PSoC5/GPS.c ****             #if(GPS_RX_INTERRUPT_ENABLED)
 428:.\Generated_Source\PSoC5/GPS.c ****                 GPS_DisableRxInt();
 446              		.loc 1 428 0
 447 0006 FFF7FEFF 		bl	GPS_DisableRxInt
 429:.\Generated_Source\PSoC5/GPS.c ****             #endif /* GPS_RX_INTERRUPT_ENABLED */
 430:.\Generated_Source\PSoC5/GPS.c ****             loc_rxBufferRead = GPS_rxBufferRead;
 448              		.loc 1 430 0
 449 000a 40F20003 		movw	r3, #:lower16:GPS_rxBufferRead
 450 000e C0F20003 		movt	r3, #:upper16:GPS_rxBufferRead
 451 0012 1B78     		ldrb	r3, [r3, #0]
 452 0014 BB71     		strb	r3, [r7, #6]
 431:.\Generated_Source\PSoC5/GPS.c ****             loc_rxBufferWrite = GPS_rxBufferWrite;
 453              		.loc 1 431 0
 454 0016 40F20003 		movw	r3, #:lower16:GPS_rxBufferWrite
 455 001a C0F20003 		movt	r3, #:upper16:GPS_rxBufferWrite
 456 001e 1B78     		ldrb	r3, [r3, #0]
 457 0020 7B71     		strb	r3, [r7, #5]
 432:.\Generated_Source\PSoC5/GPS.c **** 
 433:.\Generated_Source\PSoC5/GPS.c ****             if( (GPS_rxBufferLoopDetect != 0u) || (loc_rxBufferRead != loc_rxBufferWrite) )
 458              		.loc 1 433 0
 459 0022 40F20003 		movw	r3, #:lower16:GPS_rxBufferLoopDetect
 460 0026 C0F20003 		movt	r3, #:upper16:GPS_rxBufferLoopDetect
 461 002a 1B78     		ldrb	r3, [r3, #0]
 462 002c DBB2     		uxtb	r3, r3
 463 002e 002B     		cmp	r3, #0
 464 0030 03D1     		bne	.L13
 465              		.loc 1 433 0 is_stmt 0 discriminator 1
 466 0032 BA79     		ldrb	r2, [r7, #6]	@ zero_extendqisi2
 467 0034 7B79     		ldrb	r3, [r7, #5]	@ zero_extendqisi2
 468 0036 9A42     		cmp	r2, r3
 469 0038 26D0     		beq	.L14
 470              	.L13:
 434:.\Generated_Source\PSoC5/GPS.c ****             {
 435:.\Generated_Source\PSoC5/GPS.c ****                 rxData = GPS_rxBuffer[loc_rxBufferRead];
 471              		.loc 1 435 0 is_stmt 1
 472 003a BA79     		ldrb	r2, [r7, #6]	@ zero_extendqisi2
 473 003c 40F20003 		movw	r3, #:lower16:GPS_rxBuffer
 474 0040 C0F20003 		movt	r3, #:upper16:GPS_rxBuffer
 475 0044 9B5C     		ldrb	r3, [r3, r2]
 476 0046 FB71     		strb	r3, [r7, #7]
 436:.\Generated_Source\PSoC5/GPS.c ****                 loc_rxBufferRead++;
ARM GAS  C:\Users\javier\AppData\Local\Temp\ccsAAitb.s 			page 17


 477              		.loc 1 436 0
 478 0048 BB79     		ldrb	r3, [r7, #6]
 479 004a 03F10103 		add	r3, r3, #1
 480 004e BB71     		strb	r3, [r7, #6]
 437:.\Generated_Source\PSoC5/GPS.c **** 
 438:.\Generated_Source\PSoC5/GPS.c ****                 if(loc_rxBufferRead >= GPS_RXBUFFERSIZE)
 481              		.loc 1 438 0
 482 0050 BB79     		ldrb	r3, [r7, #6]	@ zero_extendqisi2
 483 0052 4F2B     		cmp	r3, #79
 484 0054 02D9     		bls	.L15
 439:.\Generated_Source\PSoC5/GPS.c ****                 {
 440:.\Generated_Source\PSoC5/GPS.c ****                     loc_rxBufferRead = 0u;
 485              		.loc 1 440 0
 486 0056 4FF00003 		mov	r3, #0
 487 005a BB71     		strb	r3, [r7, #6]
 488              	.L15:
 441:.\Generated_Source\PSoC5/GPS.c ****                 }
 442:.\Generated_Source\PSoC5/GPS.c ****                 /* Update the real pointer */
 443:.\Generated_Source\PSoC5/GPS.c ****                 GPS_rxBufferRead = loc_rxBufferRead;
 489              		.loc 1 443 0
 490 005c 40F20003 		movw	r3, #:lower16:GPS_rxBufferRead
 491 0060 C0F20003 		movt	r3, #:upper16:GPS_rxBufferRead
 492 0064 BA79     		ldrb	r2, [r7, #6]
 493 0066 1A70     		strb	r2, [r3, #0]
 444:.\Generated_Source\PSoC5/GPS.c **** 
 445:.\Generated_Source\PSoC5/GPS.c ****                 if(GPS_rxBufferLoopDetect != 0u )
 494              		.loc 1 445 0
 495 0068 40F20003 		movw	r3, #:lower16:GPS_rxBufferLoopDetect
 496 006c C0F20003 		movt	r3, #:upper16:GPS_rxBufferLoopDetect
 497 0070 1B78     		ldrb	r3, [r3, #0]
 498 0072 DBB2     		uxtb	r3, r3
 499 0074 002B     		cmp	r3, #0
 500 0076 0DD0     		beq	.L17
 446:.\Generated_Source\PSoC5/GPS.c ****                 {
 447:.\Generated_Source\PSoC5/GPS.c ****                     GPS_rxBufferLoopDetect = 0u;
 501              		.loc 1 447 0
 502 0078 40F20003 		movw	r3, #:lower16:GPS_rxBufferLoopDetect
 503 007c C0F20003 		movt	r3, #:upper16:GPS_rxBufferLoopDetect
 504 0080 4FF00002 		mov	r2, #0
 505 0084 1A70     		strb	r2, [r3, #0]
 445:.\Generated_Source\PSoC5/GPS.c ****                 if(GPS_rxBufferLoopDetect != 0u )
 506              		.loc 1 445 0
 507 0086 05E0     		b	.L17
 508              	.L14:
 448:.\Generated_Source\PSoC5/GPS.c ****                     #if( (GPS_RX_INTERRUPT_ENABLED) && (GPS_FLOW_CONTROL != 0u) && \
 449:.\Generated_Source\PSoC5/GPS.c ****                          (GPS_RXBUFFERSIZE > GPS_FIFO_LENGTH) )
 450:.\Generated_Source\PSoC5/GPS.c ****                         /* When Hardware Flow Control selected - return RX mask */
 451:.\Generated_Source\PSoC5/GPS.c ****                         #if( GPS_HD_ENABLED )
 452:.\Generated_Source\PSoC5/GPS.c ****                             if((GPS_CONTROL_REG & GPS_CTRL_HD_SEND) == 0u)
 453:.\Generated_Source\PSoC5/GPS.c ****                             {   /* In Half duplex mode return RX mask only in RX
 454:.\Generated_Source\PSoC5/GPS.c ****                                 *  configuration set, otherwise
 455:.\Generated_Source\PSoC5/GPS.c ****                                 *  mask will be returned in LoadRxConfig() API.
 456:.\Generated_Source\PSoC5/GPS.c ****                                 */
 457:.\Generated_Source\PSoC5/GPS.c ****                                 GPS_RXSTATUS_MASK_REG  |= GPS_RX_STS_FIFO_NOTEMPTY;
 458:.\Generated_Source\PSoC5/GPS.c ****                             }
 459:.\Generated_Source\PSoC5/GPS.c ****                         #else
 460:.\Generated_Source\PSoC5/GPS.c ****                             GPS_RXSTATUS_MASK_REG  |= GPS_RX_STS_FIFO_NOTEMPTY;
ARM GAS  C:\Users\javier\AppData\Local\Temp\ccsAAitb.s 			page 18


 461:.\Generated_Source\PSoC5/GPS.c ****                         #endif /* end GPS_HD_ENABLED */
 462:.\Generated_Source\PSoC5/GPS.c ****                     #endif /* GPS_RX_INTERRUPT_ENABLED and Hardware flow control*/
 463:.\Generated_Source\PSoC5/GPS.c ****                 }
 464:.\Generated_Source\PSoC5/GPS.c ****             }
 465:.\Generated_Source\PSoC5/GPS.c ****             else
 466:.\Generated_Source\PSoC5/GPS.c ****             {   /* Needs to check status for RX_STS_FIFO_NOTEMPTY bit*/
 467:.\Generated_Source\PSoC5/GPS.c ****                 rxData = GPS_RXDATA_REG;
 509              		.loc 1 467 0
 510 0088 46F24553 		movw	r3, #25925
 511 008c C4F20003 		movt	r3, 16384
 512 0090 1B78     		ldrb	r3, [r3, #0]
 513 0092 FB71     		strb	r3, [r7, #7]
 514              	.L17:
 468:.\Generated_Source\PSoC5/GPS.c ****             }
 469:.\Generated_Source\PSoC5/GPS.c **** 
 470:.\Generated_Source\PSoC5/GPS.c ****             /* Enable Rx interrupt. */
 471:.\Generated_Source\PSoC5/GPS.c ****             #if(GPS_RX_INTERRUPT_ENABLED)
 472:.\Generated_Source\PSoC5/GPS.c ****                 GPS_EnableRxInt();
 515              		.loc 1 472 0
 516 0094 FFF7FEFF 		bl	GPS_EnableRxInt
 473:.\Generated_Source\PSoC5/GPS.c ****             #endif /* End GPS_RX_INTERRUPT_ENABLED */
 474:.\Generated_Source\PSoC5/GPS.c **** 
 475:.\Generated_Source\PSoC5/GPS.c ****         #else /* GPS_RXBUFFERSIZE > GPS_FIFO_LENGTH */
 476:.\Generated_Source\PSoC5/GPS.c **** 
 477:.\Generated_Source\PSoC5/GPS.c ****             /* Needs to check status for RX_STS_FIFO_NOTEMPTY bit*/
 478:.\Generated_Source\PSoC5/GPS.c ****             rxData = GPS_RXDATA_REG;
 479:.\Generated_Source\PSoC5/GPS.c **** 
 480:.\Generated_Source\PSoC5/GPS.c ****         #endif /* GPS_RXBUFFERSIZE > GPS_FIFO_LENGTH */
 481:.\Generated_Source\PSoC5/GPS.c **** 
 482:.\Generated_Source\PSoC5/GPS.c ****         return(rxData);
 517              		.loc 1 482 0
 518 0098 FB79     		ldrb	r3, [r7, #7]	@ zero_extendqisi2
 483:.\Generated_Source\PSoC5/GPS.c ****     }
 519              		.loc 1 483 0
 520 009a 1846     		mov	r0, r3
 521 009c 07F10807 		add	r7, r7, #8
 522 00a0 BD46     		mov	sp, r7
 523 00a2 80BD     		pop	{r7, pc}
 524              		.cfi_endproc
 525              	.LFE9:
 526              		.size	GPS_ReadRxData, .-GPS_ReadRxData
 527              		.section	.text.GPS_ReadRxStatus,"ax",%progbits
 528              		.align	2
 529              		.global	GPS_ReadRxStatus
 530              		.thumb
 531              		.thumb_func
 532              		.type	GPS_ReadRxStatus, %function
 533              	GPS_ReadRxStatus:
 534              	.LFB10:
 484:.\Generated_Source\PSoC5/GPS.c **** 
 485:.\Generated_Source\PSoC5/GPS.c **** 
 486:.\Generated_Source\PSoC5/GPS.c ****     /*******************************************************************************
 487:.\Generated_Source\PSoC5/GPS.c ****     * Function Name: GPS_ReadRxStatus
 488:.\Generated_Source\PSoC5/GPS.c ****     ********************************************************************************
 489:.\Generated_Source\PSoC5/GPS.c ****     *
 490:.\Generated_Source\PSoC5/GPS.c ****     * Summary:
 491:.\Generated_Source\PSoC5/GPS.c ****     *  Read the current state of the status register
ARM GAS  C:\Users\javier\AppData\Local\Temp\ccsAAitb.s 			page 19


 492:.\Generated_Source\PSoC5/GPS.c ****     *  And detect software buffer overflow.
 493:.\Generated_Source\PSoC5/GPS.c ****     *
 494:.\Generated_Source\PSoC5/GPS.c ****     * Parameters:
 495:.\Generated_Source\PSoC5/GPS.c ****     *  None.
 496:.\Generated_Source\PSoC5/GPS.c ****     *
 497:.\Generated_Source\PSoC5/GPS.c ****     * Return:
 498:.\Generated_Source\PSoC5/GPS.c ****     *  Current state of the status register.
 499:.\Generated_Source\PSoC5/GPS.c ****     *
 500:.\Generated_Source\PSoC5/GPS.c ****     * Global Variables:
 501:.\Generated_Source\PSoC5/GPS.c ****     *  GPS_rxBufferOverflow - used to indicate overload condition.
 502:.\Generated_Source\PSoC5/GPS.c ****     *   It set to one in RX interrupt when there isn?t free space in
 503:.\Generated_Source\PSoC5/GPS.c ****     *   GPS_rxBufferRead to write new data. This condition returned
 504:.\Generated_Source\PSoC5/GPS.c ****     *   and cleared to zero by this API as an
 505:.\Generated_Source\PSoC5/GPS.c ****     *   GPS_RX_STS_SOFT_BUFF_OVER bit along with RX Status register
 506:.\Generated_Source\PSoC5/GPS.c ****     *   bits.
 507:.\Generated_Source\PSoC5/GPS.c ****     *
 508:.\Generated_Source\PSoC5/GPS.c ****     *******************************************************************************/
 509:.\Generated_Source\PSoC5/GPS.c ****     uint8 GPS_ReadRxStatus(void) 
 510:.\Generated_Source\PSoC5/GPS.c ****     {
 535              		.loc 1 510 0
 536              		.cfi_startproc
 537              		@ args = 0, pretend = 0, frame = 8
 538              		@ frame_needed = 1, uses_anonymous_args = 0
 539              		@ link register save eliminated.
 540 0000 80B4     		push	{r7}
 541              	.LCFI25:
 542              		.cfi_def_cfa_offset 4
 543              		.cfi_offset 7, -4
 544 0002 83B0     		sub	sp, sp, #12
 545              	.LCFI26:
 546              		.cfi_def_cfa_offset 16
 547 0004 00AF     		add	r7, sp, #0
 548              	.LCFI27:
 549              		.cfi_def_cfa_register 7
 511:.\Generated_Source\PSoC5/GPS.c ****         uint8 status;
 512:.\Generated_Source\PSoC5/GPS.c **** 
 513:.\Generated_Source\PSoC5/GPS.c ****         status = GPS_RXSTATUS_REG & GPS_RX_HW_MASK;
 550              		.loc 1 513 0
 551 0006 46F26653 		movw	r3, #25958
 552 000a C4F20003 		movt	r3, 16384
 553 000e 1B78     		ldrb	r3, [r3, #0]
 554 0010 DBB2     		uxtb	r3, r3
 555 0012 03F07F03 		and	r3, r3, #127
 556 0016 FB71     		strb	r3, [r7, #7]
 514:.\Generated_Source\PSoC5/GPS.c **** 
 515:.\Generated_Source\PSoC5/GPS.c ****         #if(GPS_RXBUFFERSIZE > GPS_FIFO_LENGTH)
 516:.\Generated_Source\PSoC5/GPS.c ****             if( GPS_rxBufferOverflow != 0u )
 557              		.loc 1 516 0
 558 0018 40F20003 		movw	r3, #:lower16:GPS_rxBufferOverflow
 559 001c C0F20003 		movt	r3, #:upper16:GPS_rxBufferOverflow
 560 0020 1B78     		ldrb	r3, [r3, #0]
 561 0022 DBB2     		uxtb	r3, r3
 562 0024 002B     		cmp	r3, #0
 563 0026 0AD0     		beq	.L20
 517:.\Generated_Source\PSoC5/GPS.c ****             {
 518:.\Generated_Source\PSoC5/GPS.c ****                 status |= GPS_RX_STS_SOFT_BUFF_OVER;
 564              		.loc 1 518 0
ARM GAS  C:\Users\javier\AppData\Local\Temp\ccsAAitb.s 			page 20


 565 0028 FB79     		ldrb	r3, [r7, #7]
 566 002a 63F07F03 		orn	r3, r3, #127
 567 002e FB71     		strb	r3, [r7, #7]
 519:.\Generated_Source\PSoC5/GPS.c ****                 GPS_rxBufferOverflow = 0u;
 568              		.loc 1 519 0
 569 0030 40F20003 		movw	r3, #:lower16:GPS_rxBufferOverflow
 570 0034 C0F20003 		movt	r3, #:upper16:GPS_rxBufferOverflow
 571 0038 4FF00002 		mov	r2, #0
 572 003c 1A70     		strb	r2, [r3, #0]
 573              	.L20:
 520:.\Generated_Source\PSoC5/GPS.c ****             }
 521:.\Generated_Source\PSoC5/GPS.c ****         #endif /* GPS_RXBUFFERSIZE */
 522:.\Generated_Source\PSoC5/GPS.c **** 
 523:.\Generated_Source\PSoC5/GPS.c ****         return(status);
 574              		.loc 1 523 0
 575 003e FB79     		ldrb	r3, [r7, #7]	@ zero_extendqisi2
 524:.\Generated_Source\PSoC5/GPS.c ****     }
 576              		.loc 1 524 0
 577 0040 1846     		mov	r0, r3
 578 0042 07F10C07 		add	r7, r7, #12
 579 0046 BD46     		mov	sp, r7
 580 0048 80BC     		pop	{r7}
 581 004a 7047     		bx	lr
 582              		.cfi_endproc
 583              	.LFE10:
 584              		.size	GPS_ReadRxStatus, .-GPS_ReadRxStatus
 585              		.section	.text.GPS_GetChar,"ax",%progbits
 586              		.align	2
 587              		.global	GPS_GetChar
 588              		.thumb
 589              		.thumb_func
 590              		.type	GPS_GetChar, %function
 591              	GPS_GetChar:
 592              	.LFB11:
 525:.\Generated_Source\PSoC5/GPS.c **** 
 526:.\Generated_Source\PSoC5/GPS.c **** 
 527:.\Generated_Source\PSoC5/GPS.c ****     /*******************************************************************************
 528:.\Generated_Source\PSoC5/GPS.c ****     * Function Name: GPS_GetChar
 529:.\Generated_Source\PSoC5/GPS.c ****     ********************************************************************************
 530:.\Generated_Source\PSoC5/GPS.c ****     *
 531:.\Generated_Source\PSoC5/GPS.c ****     * Summary:
 532:.\Generated_Source\PSoC5/GPS.c ****     *  Reads UART RX buffer immediately, if data is not available or an error
 533:.\Generated_Source\PSoC5/GPS.c ****     *  condition exists, zero is returned; otherwise, character is read and
 534:.\Generated_Source\PSoC5/GPS.c ****     *  returned.
 535:.\Generated_Source\PSoC5/GPS.c ****     *
 536:.\Generated_Source\PSoC5/GPS.c ****     * Parameters:
 537:.\Generated_Source\PSoC5/GPS.c ****     *  None.
 538:.\Generated_Source\PSoC5/GPS.c ****     *
 539:.\Generated_Source\PSoC5/GPS.c ****     * Return:
 540:.\Generated_Source\PSoC5/GPS.c ****     *  Character read from UART RX buffer. ASCII characters from 1 to 255 are valid.
 541:.\Generated_Source\PSoC5/GPS.c ****     *  A returned zero signifies an error condition or no data available.
 542:.\Generated_Source\PSoC5/GPS.c ****     *
 543:.\Generated_Source\PSoC5/GPS.c ****     * Global Variables:
 544:.\Generated_Source\PSoC5/GPS.c ****     *  GPS_rxBuffer - RAM buffer pointer for save received data.
 545:.\Generated_Source\PSoC5/GPS.c ****     *  GPS_rxBufferWrite - cyclic index for write to rxBuffer,
 546:.\Generated_Source\PSoC5/GPS.c ****     *     checked to identify new data.
 547:.\Generated_Source\PSoC5/GPS.c ****     *  GPS_rxBufferRead - cyclic index for read from rxBuffer,
ARM GAS  C:\Users\javier\AppData\Local\Temp\ccsAAitb.s 			page 21


 548:.\Generated_Source\PSoC5/GPS.c ****     *     incremented after each byte has been read from buffer.
 549:.\Generated_Source\PSoC5/GPS.c ****     *  GPS_rxBufferLoopDetect - creared if loop condition was detected
 550:.\Generated_Source\PSoC5/GPS.c ****     *     in RX ISR.
 551:.\Generated_Source\PSoC5/GPS.c ****     *
 552:.\Generated_Source\PSoC5/GPS.c ****     * Reentrant:
 553:.\Generated_Source\PSoC5/GPS.c ****     *  No.
 554:.\Generated_Source\PSoC5/GPS.c ****     *
 555:.\Generated_Source\PSoC5/GPS.c ****     *******************************************************************************/
 556:.\Generated_Source\PSoC5/GPS.c ****     uint8 GPS_GetChar(void) 
 557:.\Generated_Source\PSoC5/GPS.c ****     {
 593              		.loc 1 557 0
 594              		.cfi_startproc
 595              		@ args = 0, pretend = 0, frame = 8
 596              		@ frame_needed = 1, uses_anonymous_args = 0
 597 0000 80B5     		push	{r7, lr}
 598              	.LCFI28:
 599              		.cfi_def_cfa_offset 8
 600              		.cfi_offset 7, -8
 601              		.cfi_offset 14, -4
 602 0002 82B0     		sub	sp, sp, #8
 603              	.LCFI29:
 604              		.cfi_def_cfa_offset 16
 605 0004 00AF     		add	r7, sp, #0
 606              	.LCFI30:
 607              		.cfi_def_cfa_register 7
 558:.\Generated_Source\PSoC5/GPS.c ****         uint8 rxData = 0u;
 608              		.loc 1 558 0
 609 0006 4FF00003 		mov	r3, #0
 610 000a FB71     		strb	r3, [r7, #7]
 559:.\Generated_Source\PSoC5/GPS.c ****         uint8 rxStatus;
 560:.\Generated_Source\PSoC5/GPS.c **** 
 561:.\Generated_Source\PSoC5/GPS.c ****         #if(GPS_RXBUFFERSIZE > GPS_FIFO_LENGTH)
 562:.\Generated_Source\PSoC5/GPS.c ****             uint8 loc_rxBufferRead;
 563:.\Generated_Source\PSoC5/GPS.c ****             uint8 loc_rxBufferWrite;
 564:.\Generated_Source\PSoC5/GPS.c ****             /* Protect variables that could change on interrupt. */
 565:.\Generated_Source\PSoC5/GPS.c ****             /* Disable Rx interrupt. */
 566:.\Generated_Source\PSoC5/GPS.c ****             #if(GPS_RX_INTERRUPT_ENABLED)
 567:.\Generated_Source\PSoC5/GPS.c ****                 GPS_DisableRxInt();
 611              		.loc 1 567 0
 612 000c FFF7FEFF 		bl	GPS_DisableRxInt
 568:.\Generated_Source\PSoC5/GPS.c ****             #endif /* GPS_RX_INTERRUPT_ENABLED */
 569:.\Generated_Source\PSoC5/GPS.c ****             loc_rxBufferRead = GPS_rxBufferRead;
 613              		.loc 1 569 0
 614 0010 40F20003 		movw	r3, #:lower16:GPS_rxBufferRead
 615 0014 C0F20003 		movt	r3, #:upper16:GPS_rxBufferRead
 616 0018 1B78     		ldrb	r3, [r3, #0]
 617 001a BB71     		strb	r3, [r7, #6]
 570:.\Generated_Source\PSoC5/GPS.c ****             loc_rxBufferWrite = GPS_rxBufferWrite;
 618              		.loc 1 570 0
 619 001c 40F20003 		movw	r3, #:lower16:GPS_rxBufferWrite
 620 0020 C0F20003 		movt	r3, #:upper16:GPS_rxBufferWrite
 621 0024 1B78     		ldrb	r3, [r3, #0]
 622 0026 7B71     		strb	r3, [r7, #5]
 571:.\Generated_Source\PSoC5/GPS.c **** 
 572:.\Generated_Source\PSoC5/GPS.c ****             if( (GPS_rxBufferLoopDetect != 0u) || (loc_rxBufferRead != loc_rxBufferWrite) )
 623              		.loc 1 572 0
 624 0028 40F20003 		movw	r3, #:lower16:GPS_rxBufferLoopDetect
ARM GAS  C:\Users\javier\AppData\Local\Temp\ccsAAitb.s 			page 22


 625 002c C0F20003 		movt	r3, #:upper16:GPS_rxBufferLoopDetect
 626 0030 1B78     		ldrb	r3, [r3, #0]
 627 0032 DBB2     		uxtb	r3, r3
 628 0034 002B     		cmp	r3, #0
 629 0036 03D1     		bne	.L23
 630              		.loc 1 572 0 is_stmt 0 discriminator 1
 631 0038 BA79     		ldrb	r2, [r7, #6]	@ zero_extendqisi2
 632 003a 7B79     		ldrb	r3, [r7, #5]	@ zero_extendqisi2
 633 003c 9A42     		cmp	r2, r3
 634 003e 26D0     		beq	.L24
 635              	.L23:
 573:.\Generated_Source\PSoC5/GPS.c ****             {
 574:.\Generated_Source\PSoC5/GPS.c ****                 rxData = GPS_rxBuffer[loc_rxBufferRead];
 636              		.loc 1 574 0 is_stmt 1
 637 0040 BA79     		ldrb	r2, [r7, #6]	@ zero_extendqisi2
 638 0042 40F20003 		movw	r3, #:lower16:GPS_rxBuffer
 639 0046 C0F20003 		movt	r3, #:upper16:GPS_rxBuffer
 640 004a 9B5C     		ldrb	r3, [r3, r2]
 641 004c FB71     		strb	r3, [r7, #7]
 575:.\Generated_Source\PSoC5/GPS.c ****                 loc_rxBufferRead++;
 642              		.loc 1 575 0
 643 004e BB79     		ldrb	r3, [r7, #6]
 644 0050 03F10103 		add	r3, r3, #1
 645 0054 BB71     		strb	r3, [r7, #6]
 576:.\Generated_Source\PSoC5/GPS.c ****                 if(loc_rxBufferRead >= GPS_RXBUFFERSIZE)
 646              		.loc 1 576 0
 647 0056 BB79     		ldrb	r3, [r7, #6]	@ zero_extendqisi2
 648 0058 4F2B     		cmp	r3, #79
 649 005a 02D9     		bls	.L25
 577:.\Generated_Source\PSoC5/GPS.c ****                 {
 578:.\Generated_Source\PSoC5/GPS.c ****                     loc_rxBufferRead = 0u;
 650              		.loc 1 578 0
 651 005c 4FF00003 		mov	r3, #0
 652 0060 BB71     		strb	r3, [r7, #6]
 653              	.L25:
 579:.\Generated_Source\PSoC5/GPS.c ****                 }
 580:.\Generated_Source\PSoC5/GPS.c ****                 /* Update the real pointer */
 581:.\Generated_Source\PSoC5/GPS.c ****                 GPS_rxBufferRead = loc_rxBufferRead;
 654              		.loc 1 581 0
 655 0062 40F20003 		movw	r3, #:lower16:GPS_rxBufferRead
 656 0066 C0F20003 		movt	r3, #:upper16:GPS_rxBufferRead
 657 006a BA79     		ldrb	r2, [r7, #6]
 658 006c 1A70     		strb	r2, [r3, #0]
 582:.\Generated_Source\PSoC5/GPS.c **** 
 583:.\Generated_Source\PSoC5/GPS.c ****                 if(GPS_rxBufferLoopDetect > 0u )
 659              		.loc 1 583 0
 660 006e 40F20003 		movw	r3, #:lower16:GPS_rxBufferLoopDetect
 661 0072 C0F20003 		movt	r3, #:upper16:GPS_rxBufferLoopDetect
 662 0076 1B78     		ldrb	r3, [r3, #0]
 663 0078 DBB2     		uxtb	r3, r3
 664 007a 002B     		cmp	r3, #0
 665 007c 20D0     		beq	.L27
 584:.\Generated_Source\PSoC5/GPS.c ****                 {
 585:.\Generated_Source\PSoC5/GPS.c ****                     GPS_rxBufferLoopDetect = 0u;
 666              		.loc 1 585 0
 667 007e 40F20003 		movw	r3, #:lower16:GPS_rxBufferLoopDetect
 668 0082 C0F20003 		movt	r3, #:upper16:GPS_rxBufferLoopDetect
ARM GAS  C:\Users\javier\AppData\Local\Temp\ccsAAitb.s 			page 23


 669 0086 4FF00002 		mov	r2, #0
 670 008a 1A70     		strb	r2, [r3, #0]
 583:.\Generated_Source\PSoC5/GPS.c ****                 if(GPS_rxBufferLoopDetect > 0u )
 671              		.loc 1 583 0
 672 008c 18E0     		b	.L27
 673              	.L24:
 586:.\Generated_Source\PSoC5/GPS.c ****                     #if( (GPS_RX_INTERRUPT_ENABLED) && (GPS_FLOW_CONTROL != 0u) )
 587:.\Generated_Source\PSoC5/GPS.c ****                         /* When Hardware Flow Control selected - return RX mask */
 588:.\Generated_Source\PSoC5/GPS.c ****                         #if( GPS_HD_ENABLED )
 589:.\Generated_Source\PSoC5/GPS.c ****                             if((GPS_CONTROL_REG & GPS_CTRL_HD_SEND) == 0u)
 590:.\Generated_Source\PSoC5/GPS.c ****                             {   /* In Half duplex mode return RX mask only if
 591:.\Generated_Source\PSoC5/GPS.c ****                                 *  RX configuration set, otherwise
 592:.\Generated_Source\PSoC5/GPS.c ****                                 *  mask will be returned in LoadRxConfig() API.
 593:.\Generated_Source\PSoC5/GPS.c ****                                 */
 594:.\Generated_Source\PSoC5/GPS.c ****                                 GPS_RXSTATUS_MASK_REG  |= GPS_RX_STS_FIFO_NOTEMPTY;
 595:.\Generated_Source\PSoC5/GPS.c ****                             }
 596:.\Generated_Source\PSoC5/GPS.c ****                         #else
 597:.\Generated_Source\PSoC5/GPS.c ****                             GPS_RXSTATUS_MASK_REG  |= GPS_RX_STS_FIFO_NOTEMPTY;
 598:.\Generated_Source\PSoC5/GPS.c ****                         #endif /* end GPS_HD_ENABLED */
 599:.\Generated_Source\PSoC5/GPS.c ****                     #endif /* GPS_RX_INTERRUPT_ENABLED and Hardware flow control*/
 600:.\Generated_Source\PSoC5/GPS.c ****                 }
 601:.\Generated_Source\PSoC5/GPS.c **** 
 602:.\Generated_Source\PSoC5/GPS.c ****             }
 603:.\Generated_Source\PSoC5/GPS.c ****             else
 604:.\Generated_Source\PSoC5/GPS.c ****             {   rxStatus = GPS_RXSTATUS_REG;
 674              		.loc 1 604 0
 675 008e 46F26653 		movw	r3, #25958
 676 0092 C4F20003 		movt	r3, 16384
 677 0096 1B78     		ldrb	r3, [r3, #0]
 678 0098 3B71     		strb	r3, [r7, #4]
 605:.\Generated_Source\PSoC5/GPS.c ****                 if((rxStatus & GPS_RX_STS_FIFO_NOTEMPTY) != 0u)
 679              		.loc 1 605 0
 680 009a 3B79     		ldrb	r3, [r7, #4]	@ zero_extendqisi2
 681 009c 03F02003 		and	r3, r3, #32
 682 00a0 002B     		cmp	r3, #0
 683 00a2 0DD0     		beq	.L27
 606:.\Generated_Source\PSoC5/GPS.c ****                 {   /* Read received data from FIFO*/
 607:.\Generated_Source\PSoC5/GPS.c ****                     rxData = GPS_RXDATA_REG;
 684              		.loc 1 607 0
 685 00a4 46F24553 		movw	r3, #25925
 686 00a8 C4F20003 		movt	r3, 16384
 687 00ac 1B78     		ldrb	r3, [r3, #0]
 688 00ae FB71     		strb	r3, [r7, #7]
 608:.\Generated_Source\PSoC5/GPS.c ****                     /*Check status on error*/
 609:.\Generated_Source\PSoC5/GPS.c ****                     if((rxStatus & (GPS_RX_STS_BREAK | GPS_RX_STS_PAR_ERROR |
 610:.\Generated_Source\PSoC5/GPS.c ****                                    GPS_RX_STS_STOP_ERROR | GPS_RX_STS_OVERRUN)) != 0u)
 689              		.loc 1 610 0
 690 00b0 3B79     		ldrb	r3, [r7, #4]	@ zero_extendqisi2
 691 00b2 03F01E03 		and	r3, r3, #30
 609:.\Generated_Source\PSoC5/GPS.c ****                     if((rxStatus & (GPS_RX_STS_BREAK | GPS_RX_STS_PAR_ERROR |
 692              		.loc 1 609 0
 693 00b6 002B     		cmp	r3, #0
 694 00b8 02D0     		beq	.L27
 611:.\Generated_Source\PSoC5/GPS.c ****                     {
 612:.\Generated_Source\PSoC5/GPS.c ****                         rxData = 0u;
 695              		.loc 1 612 0
 696 00ba 4FF00003 		mov	r3, #0
ARM GAS  C:\Users\javier\AppData\Local\Temp\ccsAAitb.s 			page 24


 697 00be FB71     		strb	r3, [r7, #7]
 698              	.L27:
 613:.\Generated_Source\PSoC5/GPS.c ****                     }
 614:.\Generated_Source\PSoC5/GPS.c ****                 }
 615:.\Generated_Source\PSoC5/GPS.c ****             }
 616:.\Generated_Source\PSoC5/GPS.c **** 
 617:.\Generated_Source\PSoC5/GPS.c ****             /* Enable Rx interrupt. */
 618:.\Generated_Source\PSoC5/GPS.c ****             #if(GPS_RX_INTERRUPT_ENABLED)
 619:.\Generated_Source\PSoC5/GPS.c ****                 GPS_EnableRxInt();
 699              		.loc 1 619 0
 700 00c0 FFF7FEFF 		bl	GPS_EnableRxInt
 620:.\Generated_Source\PSoC5/GPS.c ****             #endif /* GPS_RX_INTERRUPT_ENABLED */
 621:.\Generated_Source\PSoC5/GPS.c **** 
 622:.\Generated_Source\PSoC5/GPS.c ****         #else /* GPS_RXBUFFERSIZE > GPS_FIFO_LENGTH */
 623:.\Generated_Source\PSoC5/GPS.c **** 
 624:.\Generated_Source\PSoC5/GPS.c ****             rxStatus =GPS_RXSTATUS_REG;
 625:.\Generated_Source\PSoC5/GPS.c ****             if((rxStatus & GPS_RX_STS_FIFO_NOTEMPTY) != 0u)
 626:.\Generated_Source\PSoC5/GPS.c ****             {   /* Read received data from FIFO*/
 627:.\Generated_Source\PSoC5/GPS.c ****                 rxData = GPS_RXDATA_REG;
 628:.\Generated_Source\PSoC5/GPS.c ****                 /*Check status on error*/
 629:.\Generated_Source\PSoC5/GPS.c ****                 if((rxStatus & (GPS_RX_STS_BREAK | GPS_RX_STS_PAR_ERROR |
 630:.\Generated_Source\PSoC5/GPS.c ****                                GPS_RX_STS_STOP_ERROR | GPS_RX_STS_OVERRUN)) != 0u)
 631:.\Generated_Source\PSoC5/GPS.c ****                 {
 632:.\Generated_Source\PSoC5/GPS.c ****                     rxData = 0u;
 633:.\Generated_Source\PSoC5/GPS.c ****                 }
 634:.\Generated_Source\PSoC5/GPS.c ****             }
 635:.\Generated_Source\PSoC5/GPS.c ****         #endif /* GPS_RXBUFFERSIZE > GPS_FIFO_LENGTH */
 636:.\Generated_Source\PSoC5/GPS.c **** 
 637:.\Generated_Source\PSoC5/GPS.c ****         return(rxData);
 701              		.loc 1 637 0
 702 00c4 FB79     		ldrb	r3, [r7, #7]	@ zero_extendqisi2
 638:.\Generated_Source\PSoC5/GPS.c ****     }
 703              		.loc 1 638 0
 704 00c6 1846     		mov	r0, r3
 705 00c8 07F10807 		add	r7, r7, #8
 706 00cc BD46     		mov	sp, r7
 707 00ce 80BD     		pop	{r7, pc}
 708              		.cfi_endproc
 709              	.LFE11:
 710              		.size	GPS_GetChar, .-GPS_GetChar
 711              		.section	.text.GPS_GetByte,"ax",%progbits
 712              		.align	2
 713              		.global	GPS_GetByte
 714              		.thumb
 715              		.thumb_func
 716              		.type	GPS_GetByte, %function
 717              	GPS_GetByte:
 718              	.LFB12:
 639:.\Generated_Source\PSoC5/GPS.c **** 
 640:.\Generated_Source\PSoC5/GPS.c **** 
 641:.\Generated_Source\PSoC5/GPS.c ****     /*******************************************************************************
 642:.\Generated_Source\PSoC5/GPS.c ****     * Function Name: GPS_GetByte
 643:.\Generated_Source\PSoC5/GPS.c ****     ********************************************************************************
 644:.\Generated_Source\PSoC5/GPS.c ****     *
 645:.\Generated_Source\PSoC5/GPS.c ****     * Summary:
 646:.\Generated_Source\PSoC5/GPS.c ****     *  Grab the next available byte of data from the recieve FIFO
 647:.\Generated_Source\PSoC5/GPS.c ****     *
ARM GAS  C:\Users\javier\AppData\Local\Temp\ccsAAitb.s 			page 25


 648:.\Generated_Source\PSoC5/GPS.c ****     * Parameters:
 649:.\Generated_Source\PSoC5/GPS.c ****     *  None.
 650:.\Generated_Source\PSoC5/GPS.c ****     *
 651:.\Generated_Source\PSoC5/GPS.c ****     * Return:
 652:.\Generated_Source\PSoC5/GPS.c ****     *  MSB contains Status Register and LSB contains UART RX data
 653:.\Generated_Source\PSoC5/GPS.c ****     *
 654:.\Generated_Source\PSoC5/GPS.c ****     * Reentrant:
 655:.\Generated_Source\PSoC5/GPS.c ****     *  No.
 656:.\Generated_Source\PSoC5/GPS.c ****     *
 657:.\Generated_Source\PSoC5/GPS.c ****     *******************************************************************************/
 658:.\Generated_Source\PSoC5/GPS.c ****     uint16 GPS_GetByte(void) 
 659:.\Generated_Source\PSoC5/GPS.c ****     {
 719              		.loc 1 659 0
 720              		.cfi_startproc
 721              		@ args = 0, pretend = 0, frame = 0
 722              		@ frame_needed = 1, uses_anonymous_args = 0
 723 0000 98B5     		push	{r3, r4, r7, lr}
 724              	.LCFI31:
 725              		.cfi_def_cfa_offset 16
 726              		.cfi_offset 3, -16
 727              		.cfi_offset 4, -12
 728              		.cfi_offset 7, -8
 729              		.cfi_offset 14, -4
 730 0002 00AF     		add	r7, sp, #0
 731              	.LCFI32:
 732              		.cfi_def_cfa_register 7
 660:.\Generated_Source\PSoC5/GPS.c ****         return ( ((uint16)GPS_ReadRxStatus() << 8u) | GPS_ReadRxData() );
 733              		.loc 1 660 0
 734 0004 FFF7FEFF 		bl	GPS_ReadRxStatus
 735 0008 0346     		mov	r3, r0
 736 000a 4FEA0323 		lsl	r3, r3, #8
 737 000e 9CB2     		uxth	r4, r3
 738 0010 FFF7FEFF 		bl	GPS_ReadRxData
 739 0014 0346     		mov	r3, r0
 740 0016 2246     		mov	r2, r4	@ movhi
 741 0018 1343     		orrs	r3, r3, r2
 742 001a 9BB2     		uxth	r3, r3
 743 001c 9BB2     		uxth	r3, r3
 661:.\Generated_Source\PSoC5/GPS.c ****     }
 744              		.loc 1 661 0
 745 001e 1846     		mov	r0, r3
 746 0020 98BD     		pop	{r3, r4, r7, pc}
 747              		.cfi_endproc
 748              	.LFE12:
 749              		.size	GPS_GetByte, .-GPS_GetByte
 750 0022 00BF     		.section	.text.GPS_GetRxBufferSize,"ax",%progbits
 751              		.align	2
 752              		.global	GPS_GetRxBufferSize
 753              		.thumb
 754              		.thumb_func
 755              		.type	GPS_GetRxBufferSize, %function
 756              	GPS_GetRxBufferSize:
 757              	.LFB13:
 662:.\Generated_Source\PSoC5/GPS.c **** 
 663:.\Generated_Source\PSoC5/GPS.c **** 
 664:.\Generated_Source\PSoC5/GPS.c ****     /*******************************************************************************
 665:.\Generated_Source\PSoC5/GPS.c ****     * Function Name: GPS_GetRxBufferSize
ARM GAS  C:\Users\javier\AppData\Local\Temp\ccsAAitb.s 			page 26


 666:.\Generated_Source\PSoC5/GPS.c ****     ********************************************************************************
 667:.\Generated_Source\PSoC5/GPS.c ****     *
 668:.\Generated_Source\PSoC5/GPS.c ****     * Summary:
 669:.\Generated_Source\PSoC5/GPS.c ****     *  Determine the amount of bytes left in the RX buffer and return the count in
 670:.\Generated_Source\PSoC5/GPS.c ****     *  bytes
 671:.\Generated_Source\PSoC5/GPS.c ****     *
 672:.\Generated_Source\PSoC5/GPS.c ****     * Parameters:
 673:.\Generated_Source\PSoC5/GPS.c ****     *  None.
 674:.\Generated_Source\PSoC5/GPS.c ****     *
 675:.\Generated_Source\PSoC5/GPS.c ****     * Return:
 676:.\Generated_Source\PSoC5/GPS.c ****     *  uint8: Integer count of the number of bytes left
 677:.\Generated_Source\PSoC5/GPS.c ****     *  in the RX buffer
 678:.\Generated_Source\PSoC5/GPS.c ****     *
 679:.\Generated_Source\PSoC5/GPS.c ****     * Global Variables:
 680:.\Generated_Source\PSoC5/GPS.c ****     *  GPS_rxBufferWrite - used to calculate left bytes.
 681:.\Generated_Source\PSoC5/GPS.c ****     *  GPS_rxBufferRead - used to calculate left bytes.
 682:.\Generated_Source\PSoC5/GPS.c ****     *  GPS_rxBufferLoopDetect - checked to decide left bytes amount.
 683:.\Generated_Source\PSoC5/GPS.c ****     *
 684:.\Generated_Source\PSoC5/GPS.c ****     * Reentrant:
 685:.\Generated_Source\PSoC5/GPS.c ****     *  No.
 686:.\Generated_Source\PSoC5/GPS.c ****     *
 687:.\Generated_Source\PSoC5/GPS.c ****     * Theory:
 688:.\Generated_Source\PSoC5/GPS.c ****     *  Allows the user to find out how full the RX Buffer is.
 689:.\Generated_Source\PSoC5/GPS.c ****     *
 690:.\Generated_Source\PSoC5/GPS.c ****     *******************************************************************************/
 691:.\Generated_Source\PSoC5/GPS.c ****     uint8 GPS_GetRxBufferSize(void)
 692:.\Generated_Source\PSoC5/GPS.c ****                                                             
 693:.\Generated_Source\PSoC5/GPS.c ****     {
 758              		.loc 1 693 0
 759              		.cfi_startproc
 760              		@ args = 0, pretend = 0, frame = 8
 761              		@ frame_needed = 1, uses_anonymous_args = 0
 762 0000 80B5     		push	{r7, lr}
 763              	.LCFI33:
 764              		.cfi_def_cfa_offset 8
 765              		.cfi_offset 7, -8
 766              		.cfi_offset 14, -4
 767 0002 82B0     		sub	sp, sp, #8
 768              	.LCFI34:
 769              		.cfi_def_cfa_offset 16
 770 0004 00AF     		add	r7, sp, #0
 771              	.LCFI35:
 772              		.cfi_def_cfa_register 7
 694:.\Generated_Source\PSoC5/GPS.c ****         uint8 size;
 695:.\Generated_Source\PSoC5/GPS.c **** 
 696:.\Generated_Source\PSoC5/GPS.c ****         #if(GPS_RXBUFFERSIZE > GPS_FIFO_LENGTH)
 697:.\Generated_Source\PSoC5/GPS.c **** 
 698:.\Generated_Source\PSoC5/GPS.c ****             /* Disable Rx interrupt. */
 699:.\Generated_Source\PSoC5/GPS.c ****             /* Protect variables that could change on interrupt. */
 700:.\Generated_Source\PSoC5/GPS.c ****             #if(GPS_RX_INTERRUPT_ENABLED)
 701:.\Generated_Source\PSoC5/GPS.c ****                 GPS_DisableRxInt();
 773              		.loc 1 701 0
 774 0006 FFF7FEFF 		bl	GPS_DisableRxInt
 702:.\Generated_Source\PSoC5/GPS.c ****             #endif /* GPS_RX_INTERRUPT_ENABLED */
 703:.\Generated_Source\PSoC5/GPS.c **** 
 704:.\Generated_Source\PSoC5/GPS.c ****             if(GPS_rxBufferRead == GPS_rxBufferWrite)
 775              		.loc 1 704 0
ARM GAS  C:\Users\javier\AppData\Local\Temp\ccsAAitb.s 			page 27


 776 000a 40F20003 		movw	r3, #:lower16:GPS_rxBufferRead
 777 000e C0F20003 		movt	r3, #:upper16:GPS_rxBufferRead
 778 0012 1B78     		ldrb	r3, [r3, #0]
 779 0014 DAB2     		uxtb	r2, r3
 780 0016 40F20003 		movw	r3, #:lower16:GPS_rxBufferWrite
 781 001a C0F20003 		movt	r3, #:upper16:GPS_rxBufferWrite
 782 001e 1B78     		ldrb	r3, [r3, #0]
 783 0020 DBB2     		uxtb	r3, r3
 784 0022 9A42     		cmp	r2, r3
 785 0024 0FD1     		bne	.L32
 705:.\Generated_Source\PSoC5/GPS.c ****             {
 706:.\Generated_Source\PSoC5/GPS.c ****                 if(GPS_rxBufferLoopDetect > 0u)
 786              		.loc 1 706 0
 787 0026 40F20003 		movw	r3, #:lower16:GPS_rxBufferLoopDetect
 788 002a C0F20003 		movt	r3, #:upper16:GPS_rxBufferLoopDetect
 789 002e 1B78     		ldrb	r3, [r3, #0]
 790 0030 DBB2     		uxtb	r3, r3
 791 0032 002B     		cmp	r3, #0
 792 0034 03D0     		beq	.L33
 707:.\Generated_Source\PSoC5/GPS.c ****                 {
 708:.\Generated_Source\PSoC5/GPS.c ****                     size = GPS_RXBUFFERSIZE;
 793              		.loc 1 708 0
 794 0036 4FF05003 		mov	r3, #80
 795 003a FB71     		strb	r3, [r7, #7]
 796 003c 31E0     		b	.L34
 797              	.L33:
 709:.\Generated_Source\PSoC5/GPS.c ****                 }
 710:.\Generated_Source\PSoC5/GPS.c ****                 else
 711:.\Generated_Source\PSoC5/GPS.c ****                 {
 712:.\Generated_Source\PSoC5/GPS.c ****                     size = 0u;
 798              		.loc 1 712 0
 799 003e 4FF00003 		mov	r3, #0
 800 0042 FB71     		strb	r3, [r7, #7]
 801 0044 2DE0     		b	.L34
 802              	.L32:
 713:.\Generated_Source\PSoC5/GPS.c ****                 }
 714:.\Generated_Source\PSoC5/GPS.c ****             }
 715:.\Generated_Source\PSoC5/GPS.c ****             else if(GPS_rxBufferRead < GPS_rxBufferWrite)
 803              		.loc 1 715 0
 804 0046 40F20003 		movw	r3, #:lower16:GPS_rxBufferRead
 805 004a C0F20003 		movt	r3, #:upper16:GPS_rxBufferRead
 806 004e 1B78     		ldrb	r3, [r3, #0]
 807 0050 DAB2     		uxtb	r2, r3
 808 0052 40F20003 		movw	r3, #:lower16:GPS_rxBufferWrite
 809 0056 C0F20003 		movt	r3, #:upper16:GPS_rxBufferWrite
 810 005a 1B78     		ldrb	r3, [r3, #0]
 811 005c DBB2     		uxtb	r3, r3
 812 005e 9A42     		cmp	r2, r3
 813 0060 0ED2     		bcs	.L35
 716:.\Generated_Source\PSoC5/GPS.c ****             {
 717:.\Generated_Source\PSoC5/GPS.c ****                 size = (GPS_rxBufferWrite - GPS_rxBufferRead);
 814              		.loc 1 717 0
 815 0062 40F20003 		movw	r3, #:lower16:GPS_rxBufferWrite
 816 0066 C0F20003 		movt	r3, #:upper16:GPS_rxBufferWrite
 817 006a 1B78     		ldrb	r3, [r3, #0]
 818 006c DAB2     		uxtb	r2, r3
 819 006e 40F20003 		movw	r3, #:lower16:GPS_rxBufferRead
ARM GAS  C:\Users\javier\AppData\Local\Temp\ccsAAitb.s 			page 28


 820 0072 C0F20003 		movt	r3, #:upper16:GPS_rxBufferRead
 821 0076 1B78     		ldrb	r3, [r3, #0]
 822 0078 DBB2     		uxtb	r3, r3
 823 007a D31A     		subs	r3, r2, r3
 824 007c FB71     		strb	r3, [r7, #7]
 825 007e 10E0     		b	.L34
 826              	.L35:
 718:.\Generated_Source\PSoC5/GPS.c ****             }
 719:.\Generated_Source\PSoC5/GPS.c ****             else
 720:.\Generated_Source\PSoC5/GPS.c ****             {
 721:.\Generated_Source\PSoC5/GPS.c ****                 size = (GPS_RXBUFFERSIZE - GPS_rxBufferRead) + GPS_rxBufferWrite;
 827              		.loc 1 721 0
 828 0080 40F20003 		movw	r3, #:lower16:GPS_rxBufferWrite
 829 0084 C0F20003 		movt	r3, #:upper16:GPS_rxBufferWrite
 830 0088 1B78     		ldrb	r3, [r3, #0]
 831 008a DAB2     		uxtb	r2, r3
 832 008c 40F20003 		movw	r3, #:lower16:GPS_rxBufferRead
 833 0090 C0F20003 		movt	r3, #:upper16:GPS_rxBufferRead
 834 0094 1B78     		ldrb	r3, [r3, #0]
 835 0096 DBB2     		uxtb	r3, r3
 836 0098 D31A     		subs	r3, r2, r3
 837 009a DBB2     		uxtb	r3, r3
 838 009c 03F15003 		add	r3, r3, #80
 839 00a0 FB71     		strb	r3, [r7, #7]
 840              	.L34:
 722:.\Generated_Source\PSoC5/GPS.c ****             }
 723:.\Generated_Source\PSoC5/GPS.c **** 
 724:.\Generated_Source\PSoC5/GPS.c ****             /* Enable Rx interrupt. */
 725:.\Generated_Source\PSoC5/GPS.c ****             #if(GPS_RX_INTERRUPT_ENABLED)
 726:.\Generated_Source\PSoC5/GPS.c ****                 GPS_EnableRxInt();
 841              		.loc 1 726 0
 842 00a2 FFF7FEFF 		bl	GPS_EnableRxInt
 727:.\Generated_Source\PSoC5/GPS.c ****             #endif /* End GPS_RX_INTERRUPT_ENABLED */
 728:.\Generated_Source\PSoC5/GPS.c **** 
 729:.\Generated_Source\PSoC5/GPS.c ****         #else /* GPS_RXBUFFERSIZE > GPS_FIFO_LENGTH */
 730:.\Generated_Source\PSoC5/GPS.c **** 
 731:.\Generated_Source\PSoC5/GPS.c ****             /* We can only know if there is data in the fifo. */
 732:.\Generated_Source\PSoC5/GPS.c ****             size = ((GPS_RXSTATUS_REG & GPS_RX_STS_FIFO_NOTEMPTY) != 0u) ? 1u : 0u;
 733:.\Generated_Source\PSoC5/GPS.c **** 
 734:.\Generated_Source\PSoC5/GPS.c ****         #endif /* End GPS_RXBUFFERSIZE > GPS_FIFO_LENGTH */
 735:.\Generated_Source\PSoC5/GPS.c **** 
 736:.\Generated_Source\PSoC5/GPS.c ****         return(size);
 843              		.loc 1 736 0
 844 00a6 FB79     		ldrb	r3, [r7, #7]	@ zero_extendqisi2
 737:.\Generated_Source\PSoC5/GPS.c ****     }
 845              		.loc 1 737 0
 846 00a8 1846     		mov	r0, r3
 847 00aa 07F10807 		add	r7, r7, #8
 848 00ae BD46     		mov	sp, r7
 849 00b0 80BD     		pop	{r7, pc}
 850              		.cfi_endproc
 851              	.LFE13:
 852              		.size	GPS_GetRxBufferSize, .-GPS_GetRxBufferSize
 853 00b2 00BF     		.section	.text.GPS_ClearRxBuffer,"ax",%progbits
 854              		.align	2
 855              		.global	GPS_ClearRxBuffer
 856              		.thumb
ARM GAS  C:\Users\javier\AppData\Local\Temp\ccsAAitb.s 			page 29


 857              		.thumb_func
 858              		.type	GPS_ClearRxBuffer, %function
 859              	GPS_ClearRxBuffer:
 860              	.LFB14:
 738:.\Generated_Source\PSoC5/GPS.c **** 
 739:.\Generated_Source\PSoC5/GPS.c **** 
 740:.\Generated_Source\PSoC5/GPS.c ****     /*******************************************************************************
 741:.\Generated_Source\PSoC5/GPS.c ****     * Function Name: GPS_ClearRxBuffer
 742:.\Generated_Source\PSoC5/GPS.c ****     ********************************************************************************
 743:.\Generated_Source\PSoC5/GPS.c ****     *
 744:.\Generated_Source\PSoC5/GPS.c ****     * Summary:
 745:.\Generated_Source\PSoC5/GPS.c ****     *  Clears the RX RAM buffer by setting the read and write pointers both to zero.
 746:.\Generated_Source\PSoC5/GPS.c ****     *  Clears hardware RX FIFO.
 747:.\Generated_Source\PSoC5/GPS.c ****     *
 748:.\Generated_Source\PSoC5/GPS.c ****     * Parameters:
 749:.\Generated_Source\PSoC5/GPS.c ****     *  None.
 750:.\Generated_Source\PSoC5/GPS.c ****     *
 751:.\Generated_Source\PSoC5/GPS.c ****     * Return:
 752:.\Generated_Source\PSoC5/GPS.c ****     *  None.
 753:.\Generated_Source\PSoC5/GPS.c ****     *
 754:.\Generated_Source\PSoC5/GPS.c ****     * Global Variables:
 755:.\Generated_Source\PSoC5/GPS.c ****     *  GPS_rxBufferWrite - cleared to zero.
 756:.\Generated_Source\PSoC5/GPS.c ****     *  GPS_rxBufferRead - cleared to zero.
 757:.\Generated_Source\PSoC5/GPS.c ****     *  GPS_rxBufferLoopDetect - cleared to zero.
 758:.\Generated_Source\PSoC5/GPS.c ****     *  GPS_rxBufferOverflow - cleared to zero.
 759:.\Generated_Source\PSoC5/GPS.c ****     *
 760:.\Generated_Source\PSoC5/GPS.c ****     * Reentrant:
 761:.\Generated_Source\PSoC5/GPS.c ****     *  No.
 762:.\Generated_Source\PSoC5/GPS.c ****     *
 763:.\Generated_Source\PSoC5/GPS.c ****     * Theory:
 764:.\Generated_Source\PSoC5/GPS.c ****     *  Setting the pointers to zero makes the system believe there is no data to
 765:.\Generated_Source\PSoC5/GPS.c ****     *  read and writing will resume at address 0 overwriting any data that may
 766:.\Generated_Source\PSoC5/GPS.c ****     *  have remained in the RAM.
 767:.\Generated_Source\PSoC5/GPS.c ****     *
 768:.\Generated_Source\PSoC5/GPS.c ****     * Side Effects:
 769:.\Generated_Source\PSoC5/GPS.c ****     *  Any received data not read from the RAM or FIFO buffer will be lost.
 770:.\Generated_Source\PSoC5/GPS.c ****     *******************************************************************************/
 771:.\Generated_Source\PSoC5/GPS.c ****     void GPS_ClearRxBuffer(void) 
 772:.\Generated_Source\PSoC5/GPS.c ****     {
 861              		.loc 1 772 0
 862              		.cfi_startproc
 863              		@ args = 0, pretend = 0, frame = 8
 864              		@ frame_needed = 1, uses_anonymous_args = 0
 865 0000 80B5     		push	{r7, lr}
 866              	.LCFI36:
 867              		.cfi_def_cfa_offset 8
 868              		.cfi_offset 7, -8
 869              		.cfi_offset 14, -4
 870 0002 82B0     		sub	sp, sp, #8
 871              	.LCFI37:
 872              		.cfi_def_cfa_offset 16
 873 0004 00AF     		add	r7, sp, #0
 874              	.LCFI38:
 875              		.cfi_def_cfa_register 7
 773:.\Generated_Source\PSoC5/GPS.c ****         uint8 enableInterrupts;
 774:.\Generated_Source\PSoC5/GPS.c **** 
 775:.\Generated_Source\PSoC5/GPS.c ****         /* clear the HW FIFO */
ARM GAS  C:\Users\javier\AppData\Local\Temp\ccsAAitb.s 			page 30


 776:.\Generated_Source\PSoC5/GPS.c ****         /* Enter critical section */
 777:.\Generated_Source\PSoC5/GPS.c ****         enableInterrupts = CyEnterCriticalSection();
 876              		.loc 1 777 0
 877 0006 FFF7FEFF 		bl	CyEnterCriticalSection
 878 000a 0346     		mov	r3, r0
 879 000c FB71     		strb	r3, [r7, #7]
 778:.\Generated_Source\PSoC5/GPS.c ****         GPS_RXDATA_AUX_CTL_REG |=  GPS_RX_FIFO_CLR;
 880              		.loc 1 778 0
 881 000e 46F29553 		movw	r3, #26005
 882 0012 C4F20003 		movt	r3, 16384
 883 0016 46F29552 		movw	r2, #26005
 884 001a C4F20002 		movt	r2, 16384
 885 001e 1278     		ldrb	r2, [r2, #0]
 886 0020 D2B2     		uxtb	r2, r2
 887 0022 42F00102 		orr	r2, r2, #1
 888 0026 D2B2     		uxtb	r2, r2
 889 0028 1A70     		strb	r2, [r3, #0]
 779:.\Generated_Source\PSoC5/GPS.c ****         GPS_RXDATA_AUX_CTL_REG &= (uint8)~GPS_RX_FIFO_CLR;
 890              		.loc 1 779 0
 891 002a 46F29553 		movw	r3, #26005
 892 002e C4F20003 		movt	r3, 16384
 893 0032 46F29552 		movw	r2, #26005
 894 0036 C4F20002 		movt	r2, 16384
 895 003a 1278     		ldrb	r2, [r2, #0]
 896 003c D2B2     		uxtb	r2, r2
 897 003e 22F00102 		bic	r2, r2, #1
 898 0042 D2B2     		uxtb	r2, r2
 899 0044 1A70     		strb	r2, [r3, #0]
 780:.\Generated_Source\PSoC5/GPS.c ****         /* Exit critical section */
 781:.\Generated_Source\PSoC5/GPS.c ****         CyExitCriticalSection(enableInterrupts);
 900              		.loc 1 781 0
 901 0046 FB79     		ldrb	r3, [r7, #7]	@ zero_extendqisi2
 902 0048 1846     		mov	r0, r3
 903 004a FFF7FEFF 		bl	CyExitCriticalSection
 782:.\Generated_Source\PSoC5/GPS.c **** 
 783:.\Generated_Source\PSoC5/GPS.c ****         #if(GPS_RXBUFFERSIZE > GPS_FIFO_LENGTH)
 784:.\Generated_Source\PSoC5/GPS.c ****             /* Disable Rx interrupt. */
 785:.\Generated_Source\PSoC5/GPS.c ****             /* Protect variables that could change on interrupt. */
 786:.\Generated_Source\PSoC5/GPS.c ****             #if(GPS_RX_INTERRUPT_ENABLED)
 787:.\Generated_Source\PSoC5/GPS.c ****                 GPS_DisableRxInt();
 904              		.loc 1 787 0
 905 004e FFF7FEFF 		bl	GPS_DisableRxInt
 788:.\Generated_Source\PSoC5/GPS.c ****             #endif /* End GPS_RX_INTERRUPT_ENABLED */
 789:.\Generated_Source\PSoC5/GPS.c **** 
 790:.\Generated_Source\PSoC5/GPS.c ****             GPS_rxBufferRead = 0u;
 906              		.loc 1 790 0
 907 0052 40F20003 		movw	r3, #:lower16:GPS_rxBufferRead
 908 0056 C0F20003 		movt	r3, #:upper16:GPS_rxBufferRead
 909 005a 4FF00002 		mov	r2, #0
 910 005e 1A70     		strb	r2, [r3, #0]
 791:.\Generated_Source\PSoC5/GPS.c ****             GPS_rxBufferWrite = 0u;
 911              		.loc 1 791 0
 912 0060 40F20003 		movw	r3, #:lower16:GPS_rxBufferWrite
 913 0064 C0F20003 		movt	r3, #:upper16:GPS_rxBufferWrite
 914 0068 4FF00002 		mov	r2, #0
 915 006c 1A70     		strb	r2, [r3, #0]
 792:.\Generated_Source\PSoC5/GPS.c ****             GPS_rxBufferLoopDetect = 0u;
ARM GAS  C:\Users\javier\AppData\Local\Temp\ccsAAitb.s 			page 31


 916              		.loc 1 792 0
 917 006e 40F20003 		movw	r3, #:lower16:GPS_rxBufferLoopDetect
 918 0072 C0F20003 		movt	r3, #:upper16:GPS_rxBufferLoopDetect
 919 0076 4FF00002 		mov	r2, #0
 920 007a 1A70     		strb	r2, [r3, #0]
 793:.\Generated_Source\PSoC5/GPS.c ****             GPS_rxBufferOverflow = 0u;
 921              		.loc 1 793 0
 922 007c 40F20003 		movw	r3, #:lower16:GPS_rxBufferOverflow
 923 0080 C0F20003 		movt	r3, #:upper16:GPS_rxBufferOverflow
 924 0084 4FF00002 		mov	r2, #0
 925 0088 1A70     		strb	r2, [r3, #0]
 794:.\Generated_Source\PSoC5/GPS.c **** 
 795:.\Generated_Source\PSoC5/GPS.c ****             /* Enable Rx interrupt. */
 796:.\Generated_Source\PSoC5/GPS.c ****             #if(GPS_RX_INTERRUPT_ENABLED)
 797:.\Generated_Source\PSoC5/GPS.c ****                 GPS_EnableRxInt();
 926              		.loc 1 797 0
 927 008a FFF7FEFF 		bl	GPS_EnableRxInt
 798:.\Generated_Source\PSoC5/GPS.c ****             #endif /* End GPS_RX_INTERRUPT_ENABLED */
 799:.\Generated_Source\PSoC5/GPS.c ****         #endif /* End GPS_RXBUFFERSIZE > GPS_FIFO_LENGTH */
 800:.\Generated_Source\PSoC5/GPS.c **** 
 801:.\Generated_Source\PSoC5/GPS.c ****     }
 928              		.loc 1 801 0
 929 008e 07F10807 		add	r7, r7, #8
 930 0092 BD46     		mov	sp, r7
 931 0094 80BD     		pop	{r7, pc}
 932              		.cfi_endproc
 933              	.LFE14:
 934              		.size	GPS_ClearRxBuffer, .-GPS_ClearRxBuffer
 935 0096 00BF     		.section	.text.GPS_SetRxAddressMode,"ax",%progbits
 936              		.align	2
 937              		.global	GPS_SetRxAddressMode
 938              		.thumb
 939              		.thumb_func
 940              		.type	GPS_SetRxAddressMode, %function
 941              	GPS_SetRxAddressMode:
 942              	.LFB15:
 802:.\Generated_Source\PSoC5/GPS.c **** 
 803:.\Generated_Source\PSoC5/GPS.c **** 
 804:.\Generated_Source\PSoC5/GPS.c ****     /*******************************************************************************
 805:.\Generated_Source\PSoC5/GPS.c ****     * Function Name: GPS_SetRxAddressMode
 806:.\Generated_Source\PSoC5/GPS.c ****     ********************************************************************************
 807:.\Generated_Source\PSoC5/GPS.c ****     *
 808:.\Generated_Source\PSoC5/GPS.c ****     * Summary:
 809:.\Generated_Source\PSoC5/GPS.c ****     *  Set the receive addressing mode
 810:.\Generated_Source\PSoC5/GPS.c ****     *
 811:.\Generated_Source\PSoC5/GPS.c ****     * Parameters:
 812:.\Generated_Source\PSoC5/GPS.c ****     *  addressMode: Enumerated value indicating the mode of RX addressing
 813:.\Generated_Source\PSoC5/GPS.c ****     *  GPS__B_UART__AM_SW_BYTE_BYTE -  Software Byte-by-Byte address
 814:.\Generated_Source\PSoC5/GPS.c ****     *                                               detection
 815:.\Generated_Source\PSoC5/GPS.c ****     *  GPS__B_UART__AM_SW_DETECT_TO_BUFFER - Software Detect to Buffer
 816:.\Generated_Source\PSoC5/GPS.c ****     *                                               address detection
 817:.\Generated_Source\PSoC5/GPS.c ****     *  GPS__B_UART__AM_HW_BYTE_BY_BYTE - Hardware Byte-by-Byte address
 818:.\Generated_Source\PSoC5/GPS.c ****     *                                               detection
 819:.\Generated_Source\PSoC5/GPS.c ****     *  GPS__B_UART__AM_HW_DETECT_TO_BUFFER - Hardware Detect to Buffer
 820:.\Generated_Source\PSoC5/GPS.c ****     *                                               address detection
 821:.\Generated_Source\PSoC5/GPS.c ****     *  GPS__B_UART__AM_NONE - No address detection
 822:.\Generated_Source\PSoC5/GPS.c ****     *
ARM GAS  C:\Users\javier\AppData\Local\Temp\ccsAAitb.s 			page 32


 823:.\Generated_Source\PSoC5/GPS.c ****     * Return:
 824:.\Generated_Source\PSoC5/GPS.c ****     *  None.
 825:.\Generated_Source\PSoC5/GPS.c ****     *
 826:.\Generated_Source\PSoC5/GPS.c ****     * Global Variables:
 827:.\Generated_Source\PSoC5/GPS.c ****     *  GPS_rxAddressMode - the parameter stored in this variable for
 828:.\Generated_Source\PSoC5/GPS.c ****     *   the farther usage in RX ISR.
 829:.\Generated_Source\PSoC5/GPS.c ****     *  GPS_rxAddressDetected - set to initial state (0).
 830:.\Generated_Source\PSoC5/GPS.c ****     *
 831:.\Generated_Source\PSoC5/GPS.c ****     *******************************************************************************/
 832:.\Generated_Source\PSoC5/GPS.c ****     void GPS_SetRxAddressMode(uint8 addressMode)
 833:.\Generated_Source\PSoC5/GPS.c ****                                                         
 834:.\Generated_Source\PSoC5/GPS.c ****     {
 943              		.loc 1 834 0
 944              		.cfi_startproc
 945              		@ args = 0, pretend = 0, frame = 8
 946              		@ frame_needed = 1, uses_anonymous_args = 0
 947              		@ link register save eliminated.
 948 0000 80B4     		push	{r7}
 949              	.LCFI39:
 950              		.cfi_def_cfa_offset 4
 951              		.cfi_offset 7, -4
 952 0002 83B0     		sub	sp, sp, #12
 953              	.LCFI40:
 954              		.cfi_def_cfa_offset 16
 955 0004 00AF     		add	r7, sp, #0
 956              	.LCFI41:
 957              		.cfi_def_cfa_register 7
 958 0006 0346     		mov	r3, r0
 959 0008 FB71     		strb	r3, [r7, #7]
 835:.\Generated_Source\PSoC5/GPS.c ****         #if(GPS_RXHW_ADDRESS_ENABLED)
 836:.\Generated_Source\PSoC5/GPS.c ****             #if(GPS_CONTROL_REG_REMOVED)
 837:.\Generated_Source\PSoC5/GPS.c ****                 if(addressMode != 0u) { }     /* release compiler warning */
 838:.\Generated_Source\PSoC5/GPS.c ****             #else /* GPS_CONTROL_REG_REMOVED */
 839:.\Generated_Source\PSoC5/GPS.c ****                 uint8 tmpCtrl;
 840:.\Generated_Source\PSoC5/GPS.c ****                 tmpCtrl = GPS_CONTROL_REG & (uint8)~GPS_CTRL_RXADDR_MODE_MASK;
 841:.\Generated_Source\PSoC5/GPS.c ****                 tmpCtrl |= (uint8)(addressMode << GPS_CTRL_RXADDR_MODE0_SHIFT);
 842:.\Generated_Source\PSoC5/GPS.c ****                 GPS_CONTROL_REG = tmpCtrl;
 843:.\Generated_Source\PSoC5/GPS.c ****                 #if(GPS_RX_INTERRUPT_ENABLED && \
 844:.\Generated_Source\PSoC5/GPS.c ****                    (GPS_RXBUFFERSIZE > GPS_FIFO_LENGTH) )
 845:.\Generated_Source\PSoC5/GPS.c ****                     GPS_rxAddressMode = addressMode;
 846:.\Generated_Source\PSoC5/GPS.c ****                     GPS_rxAddressDetected = 0u;
 847:.\Generated_Source\PSoC5/GPS.c ****                 #endif /* End GPS_RXBUFFERSIZE > GPS_FIFO_LENGTH*/
 848:.\Generated_Source\PSoC5/GPS.c ****             #endif /* End GPS_CONTROL_REG_REMOVED */
 849:.\Generated_Source\PSoC5/GPS.c ****         #else /* GPS_RXHW_ADDRESS_ENABLED */
 850:.\Generated_Source\PSoC5/GPS.c ****             if(addressMode != 0u) { }     /* release compiler warning */
 851:.\Generated_Source\PSoC5/GPS.c ****         #endif /* End GPS_RXHW_ADDRESS_ENABLED */
 852:.\Generated_Source\PSoC5/GPS.c ****     }
 960              		.loc 1 852 0
 961 000a 07F10C07 		add	r7, r7, #12
 962 000e BD46     		mov	sp, r7
 963 0010 80BC     		pop	{r7}
 964 0012 7047     		bx	lr
 965              		.cfi_endproc
 966              	.LFE15:
 967              		.size	GPS_SetRxAddressMode, .-GPS_SetRxAddressMode
 968              		.section	.text.GPS_SetRxAddress1,"ax",%progbits
 969              		.align	2
ARM GAS  C:\Users\javier\AppData\Local\Temp\ccsAAitb.s 			page 33


 970              		.global	GPS_SetRxAddress1
 971              		.thumb
 972              		.thumb_func
 973              		.type	GPS_SetRxAddress1, %function
 974              	GPS_SetRxAddress1:
 975              	.LFB16:
 853:.\Generated_Source\PSoC5/GPS.c **** 
 854:.\Generated_Source\PSoC5/GPS.c **** 
 855:.\Generated_Source\PSoC5/GPS.c ****     /*******************************************************************************
 856:.\Generated_Source\PSoC5/GPS.c ****     * Function Name: GPS_SetRxAddress1
 857:.\Generated_Source\PSoC5/GPS.c ****     ********************************************************************************
 858:.\Generated_Source\PSoC5/GPS.c ****     *
 859:.\Generated_Source\PSoC5/GPS.c ****     * Summary:
 860:.\Generated_Source\PSoC5/GPS.c ****     *  Set the first hardware address compare value
 861:.\Generated_Source\PSoC5/GPS.c ****     *
 862:.\Generated_Source\PSoC5/GPS.c ****     * Parameters:
 863:.\Generated_Source\PSoC5/GPS.c ****     *  address
 864:.\Generated_Source\PSoC5/GPS.c ****     *
 865:.\Generated_Source\PSoC5/GPS.c ****     * Return:
 866:.\Generated_Source\PSoC5/GPS.c ****     *  None.
 867:.\Generated_Source\PSoC5/GPS.c ****     *
 868:.\Generated_Source\PSoC5/GPS.c ****     *******************************************************************************/
 869:.\Generated_Source\PSoC5/GPS.c ****     void GPS_SetRxAddress1(uint8 address) 
 870:.\Generated_Source\PSoC5/GPS.c **** 
 871:.\Generated_Source\PSoC5/GPS.c ****     {
 976              		.loc 1 871 0
 977              		.cfi_startproc
 978              		@ args = 0, pretend = 0, frame = 8
 979              		@ frame_needed = 1, uses_anonymous_args = 0
 980              		@ link register save eliminated.
 981 0000 80B4     		push	{r7}
 982              	.LCFI42:
 983              		.cfi_def_cfa_offset 4
 984              		.cfi_offset 7, -4
 985 0002 83B0     		sub	sp, sp, #12
 986              	.LCFI43:
 987              		.cfi_def_cfa_offset 16
 988 0004 00AF     		add	r7, sp, #0
 989              	.LCFI44:
 990              		.cfi_def_cfa_register 7
 991 0006 0346     		mov	r3, r0
 992 0008 FB71     		strb	r3, [r7, #7]
 872:.\Generated_Source\PSoC5/GPS.c ****         GPS_RXADDRESS1_REG = address;
 993              		.loc 1 872 0
 994 000a 46F22553 		movw	r3, #25893
 995 000e C4F20003 		movt	r3, 16384
 996 0012 FA79     		ldrb	r2, [r7, #7]
 997 0014 1A70     		strb	r2, [r3, #0]
 873:.\Generated_Source\PSoC5/GPS.c ****     }
 998              		.loc 1 873 0
 999 0016 07F10C07 		add	r7, r7, #12
 1000 001a BD46     		mov	sp, r7
 1001 001c 80BC     		pop	{r7}
 1002 001e 7047     		bx	lr
 1003              		.cfi_endproc
 1004              	.LFE16:
 1005              		.size	GPS_SetRxAddress1, .-GPS_SetRxAddress1
ARM GAS  C:\Users\javier\AppData\Local\Temp\ccsAAitb.s 			page 34


 1006              		.section	.text.GPS_SetRxAddress2,"ax",%progbits
 1007              		.align	2
 1008              		.global	GPS_SetRxAddress2
 1009              		.thumb
 1010              		.thumb_func
 1011              		.type	GPS_SetRxAddress2, %function
 1012              	GPS_SetRxAddress2:
 1013              	.LFB17:
 874:.\Generated_Source\PSoC5/GPS.c **** 
 875:.\Generated_Source\PSoC5/GPS.c **** 
 876:.\Generated_Source\PSoC5/GPS.c ****     /*******************************************************************************
 877:.\Generated_Source\PSoC5/GPS.c ****     * Function Name: GPS_SetRxAddress2
 878:.\Generated_Source\PSoC5/GPS.c ****     ********************************************************************************
 879:.\Generated_Source\PSoC5/GPS.c ****     *
 880:.\Generated_Source\PSoC5/GPS.c ****     * Summary:
 881:.\Generated_Source\PSoC5/GPS.c ****     *  Set the second hardware address compare value
 882:.\Generated_Source\PSoC5/GPS.c ****     *
 883:.\Generated_Source\PSoC5/GPS.c ****     * Parameters:
 884:.\Generated_Source\PSoC5/GPS.c ****     *  address
 885:.\Generated_Source\PSoC5/GPS.c ****     *
 886:.\Generated_Source\PSoC5/GPS.c ****     * Return:
 887:.\Generated_Source\PSoC5/GPS.c ****     *  None.
 888:.\Generated_Source\PSoC5/GPS.c ****     *
 889:.\Generated_Source\PSoC5/GPS.c ****     *******************************************************************************/
 890:.\Generated_Source\PSoC5/GPS.c ****     void GPS_SetRxAddress2(uint8 address) 
 891:.\Generated_Source\PSoC5/GPS.c ****     {
 1014              		.loc 1 891 0
 1015              		.cfi_startproc
 1016              		@ args = 0, pretend = 0, frame = 8
 1017              		@ frame_needed = 1, uses_anonymous_args = 0
 1018              		@ link register save eliminated.
 1019 0000 80B4     		push	{r7}
 1020              	.LCFI45:
 1021              		.cfi_def_cfa_offset 4
 1022              		.cfi_offset 7, -4
 1023 0002 83B0     		sub	sp, sp, #12
 1024              	.LCFI46:
 1025              		.cfi_def_cfa_offset 16
 1026 0004 00AF     		add	r7, sp, #0
 1027              	.LCFI47:
 1028              		.cfi_def_cfa_register 7
 1029 0006 0346     		mov	r3, r0
 1030 0008 FB71     		strb	r3, [r7, #7]
 892:.\Generated_Source\PSoC5/GPS.c ****         GPS_RXADDRESS2_REG = address;
 1031              		.loc 1 892 0
 1032 000a 46F23553 		movw	r3, #25909
 1033 000e C4F20003 		movt	r3, 16384
 1034 0012 FA79     		ldrb	r2, [r7, #7]
 1035 0014 1A70     		strb	r2, [r3, #0]
 893:.\Generated_Source\PSoC5/GPS.c ****     }
 1036              		.loc 1 893 0
 1037 0016 07F10C07 		add	r7, r7, #12
 1038 001a BD46     		mov	sp, r7
 1039 001c 80BC     		pop	{r7}
 1040 001e 7047     		bx	lr
 1041              		.cfi_endproc
 1042              	.LFE17:
ARM GAS  C:\Users\javier\AppData\Local\Temp\ccsAAitb.s 			page 35


 1043              		.size	GPS_SetRxAddress2, .-GPS_SetRxAddress2
 1044              		.text
 1045              	.Letext0:
 1046              		.file 2 ".\\Generated_Source\\PSoC5\\cytypes.h"