ARM GAS  C:\Users\javier\AppData\Local\Temp\ccsAAitb.s 			page 1


   1              		.syntax unified
   2              		.cpu cortex-m3
   3              		.fpu softvfp
   4              		.eabi_attribute 20, 1
   5              		.eabi_attribute 21, 1
   6              		.eabi_attribute 23, 3
   7              		.eabi_attribute 24, 1
   8              		.eabi_attribute 25, 1
   9              		.eabi_attribute 26, 1
  10              		.eabi_attribute 30, 6
  11              		.eabi_attribute 34, 1
  12              		.eabi_attribute 18, 4
  13              		.thumb
  14              		.file	"GPS.c"
  15              		.text
  16              	.Ltext0:
  17              		.cfi_sections	.debug_frame
  18              		.global	GPS_initVar
  19              		.bss
  20              		.type	GPS_initVar, %object
  21              		.size	GPS_initVar, 1
  22              	GPS_initVar:
  23 0000 00       		.space	1
  24              		.comm	GPS_rxBuffer,80,4
  25              		.global	GPS_rxBufferRead
  26              		.type	GPS_rxBufferRead, %object
  27              		.size	GPS_rxBufferRead, 1
  28              	GPS_rxBufferRead:
  29 0001 00       		.space	1
  30              		.global	GPS_rxBufferWrite
  31              		.type	GPS_rxBufferWrite, %object
  32              		.size	GPS_rxBufferWrite, 1
  33              	GPS_rxBufferWrite:
  34 0002 00       		.space	1
  35              		.global	GPS_rxBufferLoopDetect
  36              		.type	GPS_rxBufferLoopDetect, %object
  37              		.size	GPS_rxBufferLoopDetect, 1
  38              	GPS_rxBufferLoopDetect:
  39 0003 00       		.space	1
  40              		.global	GPS_rxBufferOverflow
  41              		.type	GPS_rxBufferOverflow, %object
  42              		.size	GPS_rxBufferOverflow, 1
  43              	GPS_rxBufferOverflow:
  44 0004 00       		.space	1
  45              		.section	.text.GPS_Start,"ax",%progbits
  46              		.align	2
  47              		.global	GPS_Start
  48              		.thumb
  49              		.thumb_func
  50              		.type	GPS_Start, %function
  51              	GPS_Start:
  52              	.LFB0:
  53              		.file 1 ".\\Generated_Source\\PSoC5\\GPS.c"
   1:.\Generated_Source\PSoC5/GPS.c **** /*******************************************************************************
   2:.\Generated_Source\PSoC5/GPS.c **** * File Name: GPS.c
   3:.\Generated_Source\PSoC5/GPS.c **** * Version 2.30
   4:.\Generated_Source\PSoC5/GPS.c **** *
ARM GAS  C:\Users\javier\AppData\Local\Temp\ccsAAitb.s 			page 2


   5:.\Generated_Source\PSoC5/GPS.c **** * Description:
   6:.\Generated_Source\PSoC5/GPS.c **** *  This file provides all API functionality of the UART component
   7:.\Generated_Source\PSoC5/GPS.c **** *
   8:.\Generated_Source\PSoC5/GPS.c **** * Note:
   9:.\Generated_Source\PSoC5/GPS.c **** *
  10:.\Generated_Source\PSoC5/GPS.c **** ********************************************************************************
  11:.\Generated_Source\PSoC5/GPS.c **** * Copyright 2008-2012, Cypress Semiconductor Corporation.  All rights reserved.
  12:.\Generated_Source\PSoC5/GPS.c **** * You may use this file only in accordance with the license, terms, conditions,
  13:.\Generated_Source\PSoC5/GPS.c **** * disclaimers, and limitations in the end user license agreement accompanying
  14:.\Generated_Source\PSoC5/GPS.c **** * the software package with which this file was provided.
  15:.\Generated_Source\PSoC5/GPS.c **** *******************************************************************************/
  16:.\Generated_Source\PSoC5/GPS.c **** 
  17:.\Generated_Source\PSoC5/GPS.c **** #include "GPS.h"
  18:.\Generated_Source\PSoC5/GPS.c **** #include "CyLib.h"
  19:.\Generated_Source\PSoC5/GPS.c **** #if(GPS_INTERNAL_CLOCK_USED)
  20:.\Generated_Source\PSoC5/GPS.c ****     #include "GPS_IntClock.h"
  21:.\Generated_Source\PSoC5/GPS.c **** #endif /* End GPS_INTERNAL_CLOCK_USED */
  22:.\Generated_Source\PSoC5/GPS.c **** 
  23:.\Generated_Source\PSoC5/GPS.c **** 
  24:.\Generated_Source\PSoC5/GPS.c **** /***************************************
  25:.\Generated_Source\PSoC5/GPS.c **** * Global data allocation
  26:.\Generated_Source\PSoC5/GPS.c **** ***************************************/
  27:.\Generated_Source\PSoC5/GPS.c **** 
  28:.\Generated_Source\PSoC5/GPS.c **** uint8 GPS_initVar = 0u;
  29:.\Generated_Source\PSoC5/GPS.c **** #if( GPS_TX_ENABLED && (GPS_TXBUFFERSIZE > GPS_FIFO_LENGTH))
  30:.\Generated_Source\PSoC5/GPS.c ****     volatile uint8 GPS_txBuffer[GPS_TXBUFFERSIZE];
  31:.\Generated_Source\PSoC5/GPS.c ****     volatile uint8 GPS_txBufferRead = 0u;
  32:.\Generated_Source\PSoC5/GPS.c ****     uint8 GPS_txBufferWrite = 0u;
  33:.\Generated_Source\PSoC5/GPS.c **** #endif /* End GPS_TX_ENABLED */
  34:.\Generated_Source\PSoC5/GPS.c **** #if( ( GPS_RX_ENABLED || GPS_HD_ENABLED ) && \
  35:.\Generated_Source\PSoC5/GPS.c ****      (GPS_RXBUFFERSIZE > GPS_FIFO_LENGTH) )
  36:.\Generated_Source\PSoC5/GPS.c ****     volatile uint8 GPS_rxBuffer[GPS_RXBUFFERSIZE];
  37:.\Generated_Source\PSoC5/GPS.c ****     volatile uint8 GPS_rxBufferRead = 0u;
  38:.\Generated_Source\PSoC5/GPS.c ****     volatile uint8 GPS_rxBufferWrite = 0u;
  39:.\Generated_Source\PSoC5/GPS.c ****     volatile uint8 GPS_rxBufferLoopDetect = 0u;
  40:.\Generated_Source\PSoC5/GPS.c ****     volatile uint8 GPS_rxBufferOverflow = 0u;
  41:.\Generated_Source\PSoC5/GPS.c ****     #if (GPS_RXHW_ADDRESS_ENABLED)
  42:.\Generated_Source\PSoC5/GPS.c ****         volatile uint8 GPS_rxAddressMode = GPS_RXADDRESSMODE;
  43:.\Generated_Source\PSoC5/GPS.c ****         volatile uint8 GPS_rxAddressDetected = 0u;
  44:.\Generated_Source\PSoC5/GPS.c ****     #endif /* End EnableHWAddress */
  45:.\Generated_Source\PSoC5/GPS.c **** #endif /* End GPS_RX_ENABLED */
  46:.\Generated_Source\PSoC5/GPS.c **** 
  47:.\Generated_Source\PSoC5/GPS.c **** 
  48:.\Generated_Source\PSoC5/GPS.c **** /*******************************************************************************
  49:.\Generated_Source\PSoC5/GPS.c **** * Function Name: GPS_Start
  50:.\Generated_Source\PSoC5/GPS.c **** ********************************************************************************
  51:.\Generated_Source\PSoC5/GPS.c **** *
  52:.\Generated_Source\PSoC5/GPS.c **** * Summary:
  53:.\Generated_Source\PSoC5/GPS.c **** *  Initialize and Enable the UART component.
  54:.\Generated_Source\PSoC5/GPS.c **** *  Enable the clock input to enable operation.
  55:.\Generated_Source\PSoC5/GPS.c **** *
  56:.\Generated_Source\PSoC5/GPS.c **** * Parameters:
  57:.\Generated_Source\PSoC5/GPS.c **** *  None.
  58:.\Generated_Source\PSoC5/GPS.c **** *
  59:.\Generated_Source\PSoC5/GPS.c **** * Return:
  60:.\Generated_Source\PSoC5/GPS.c **** *  None.
  61:.\Generated_Source\PSoC5/GPS.c **** *
ARM GAS  C:\Users\javier\AppData\Local\Temp\ccsAAitb.s 			page 3


  62:.\Generated_Source\PSoC5/GPS.c **** * Global variables:
  63:.\Generated_Source\PSoC5/GPS.c **** *  The GPS_intiVar variable is used to indicate initial
  64:.\Generated_Source\PSoC5/GPS.c **** *  configuration of this component. The variable is initialized to zero (0u)
  65:.\Generated_Source\PSoC5/GPS.c **** *  and set to one (1u) the first time UART_Start() is called. This allows for
  66:.\Generated_Source\PSoC5/GPS.c **** *  component initialization without re-initialization in all subsequent calls
  67:.\Generated_Source\PSoC5/GPS.c **** *  to the GPS_Start() routine.
  68:.\Generated_Source\PSoC5/GPS.c **** *
  69:.\Generated_Source\PSoC5/GPS.c **** * Reentrant:
  70:.\Generated_Source\PSoC5/GPS.c **** *  No.
  71:.\Generated_Source\PSoC5/GPS.c **** *
  72:.\Generated_Source\PSoC5/GPS.c **** *******************************************************************************/
  73:.\Generated_Source\PSoC5/GPS.c **** void GPS_Start(void) 
  74:.\Generated_Source\PSoC5/GPS.c **** {
  54              		.loc 1 74 0
  55              		.cfi_startproc
  56              		@ args = 0, pretend = 0, frame = 0
  57              		@ frame_needed = 1, uses_anonymous_args = 0
  58 0000 80B5     		push	{r7, lr}
  59              	.LCFI0:
  60              		.cfi_def_cfa_offset 8
  61              		.cfi_offset 7, -8
  62              		.cfi_offset 14, -4
  63 0002 00AF     		add	r7, sp, #0
  64              	.LCFI1:
  65              		.cfi_def_cfa_register 7
  75:.\Generated_Source\PSoC5/GPS.c ****     /* If not Initialized then initialize all required hardware and software */
  76:.\Generated_Source\PSoC5/GPS.c ****     if(GPS_initVar == 0u)
  66              		.loc 1 76 0
  67 0004 40F20003 		movw	r3, #:lower16:GPS_initVar
  68 0008 C0F20003 		movt	r3, #:upper16:GPS_initVar
  69 000c 1B78     		ldrb	r3, [r3, #0]	@ zero_extendqisi2
  70 000e 002B     		cmp	r3, #0
  71 0010 08D1     		bne	.L2
  77:.\Generated_Source\PSoC5/GPS.c ****     {
  78:.\Generated_Source\PSoC5/GPS.c ****         GPS_Init();
  72              		.loc 1 78 0
  73 0012 FFF7FEFF 		bl	GPS_Init
  79:.\Generated_Source\PSoC5/GPS.c ****         GPS_initVar = 1u;
  74              		.loc 1 79 0
  75 0016 40F20003 		movw	r3, #:lower16:GPS_initVar
  76 001a C0F20003 		movt	r3, #:upper16:GPS_initVar
  77 001e 4FF00102 		mov	r2, #1
  78 0022 1A70     		strb	r2, [r3, #0]
  79              	.L2:
  80:.\Generated_Source\PSoC5/GPS.c ****     }
  81:.\Generated_Source\PSoC5/GPS.c ****     GPS_Enable();
  80              		.loc 1 81 0
  81 0024 FFF7FEFF 		bl	GPS_Enable
  82:.\Generated_Source\PSoC5/GPS.c **** }
  82              		.loc 1 82 0
  83 0028 80BD     		pop	{r7, pc}
  84              		.cfi_endproc
  85              	.LFE0:
  86              		.size	GPS_Start, .-GPS_Start
  87 002a 00BF     		.section	.text.GPS_Init,"ax",%progbits
  88              		.align	2
  89              		.global	GPS_Init
ARM GAS  C:\Users\javier\AppData\Local\Temp\ccsAAitb.s 			page 4


  90              		.thumb
  91              		.thumb_func
  92              		.type	GPS_Init, %function
  93              	GPS_Init:
  94              	.LFB1:
  83:.\Generated_Source\PSoC5/GPS.c **** 
  84:.\Generated_Source\PSoC5/GPS.c **** 
  85:.\Generated_Source\PSoC5/GPS.c **** /*******************************************************************************
  86:.\Generated_Source\PSoC5/GPS.c **** * Function Name: GPS_Init
  87:.\Generated_Source\PSoC5/GPS.c **** ********************************************************************************
  88:.\Generated_Source\PSoC5/GPS.c **** *
  89:.\Generated_Source\PSoC5/GPS.c **** * Summary:
  90:.\Generated_Source\PSoC5/GPS.c **** *  Initialize component's parameters to the parameters set by user in the
  91:.\Generated_Source\PSoC5/GPS.c **** *  customizer of the component placed onto schematic. Usually called in
  92:.\Generated_Source\PSoC5/GPS.c **** *  GPS_Start().
  93:.\Generated_Source\PSoC5/GPS.c **** *
  94:.\Generated_Source\PSoC5/GPS.c **** * Parameters:
  95:.\Generated_Source\PSoC5/GPS.c **** *  None.
  96:.\Generated_Source\PSoC5/GPS.c **** *
  97:.\Generated_Source\PSoC5/GPS.c **** * Return:
  98:.\Generated_Source\PSoC5/GPS.c **** *  None.
  99:.\Generated_Source\PSoC5/GPS.c **** *
 100:.\Generated_Source\PSoC5/GPS.c **** *******************************************************************************/
 101:.\Generated_Source\PSoC5/GPS.c **** void GPS_Init(void) 
 102:.\Generated_Source\PSoC5/GPS.c **** {
  95              		.loc 1 102 0
  96              		.cfi_startproc
  97              		@ args = 0, pretend = 0, frame = 0
  98              		@ frame_needed = 1, uses_anonymous_args = 0
  99 0000 80B5     		push	{r7, lr}
 100              	.LCFI2:
 101              		.cfi_def_cfa_offset 8
 102              		.cfi_offset 7, -8
 103              		.cfi_offset 14, -4
 104 0002 00AF     		add	r7, sp, #0
 105              	.LCFI3:
 106              		.cfi_def_cfa_register 7
 103:.\Generated_Source\PSoC5/GPS.c ****     #if(GPS_RX_ENABLED || GPS_HD_ENABLED)
 104:.\Generated_Source\PSoC5/GPS.c **** 
 105:.\Generated_Source\PSoC5/GPS.c ****         #if(GPS_RX_INTERRUPT_ENABLED && (GPS_RXBUFFERSIZE > GPS_FIFO_LENGTH))
 106:.\Generated_Source\PSoC5/GPS.c ****             /* Set the RX Interrupt. */
 107:.\Generated_Source\PSoC5/GPS.c ****             (void)CyIntSetVector(GPS_RX_VECT_NUM, &GPS_RXISR);
 107              		.loc 1 107 0
 108 0004 4FF00000 		mov	r0, #0
 109 0008 40F20001 		movw	r1, #:lower16:GPS_RXISR
 110 000c C0F20001 		movt	r1, #:upper16:GPS_RXISR
 111 0010 FFF7FEFF 		bl	CyIntSetVector
 108:.\Generated_Source\PSoC5/GPS.c ****             CyIntSetPriority(GPS_RX_VECT_NUM, GPS_RX_PRIOR_NUM);
 112              		.loc 1 108 0
 113 0014 4FF00000 		mov	r0, #0
 114 0018 4FF00701 		mov	r1, #7
 115 001c FFF7FEFF 		bl	CyIntSetPriority
 109:.\Generated_Source\PSoC5/GPS.c ****         #endif /* End GPS_RX_INTERRUPT_ENABLED */
 110:.\Generated_Source\PSoC5/GPS.c **** 
 111:.\Generated_Source\PSoC5/GPS.c ****         #if (GPS_RXHW_ADDRESS_ENABLED)
 112:.\Generated_Source\PSoC5/GPS.c ****             GPS_SetRxAddressMode(GPS_RXAddressMode);
 113:.\Generated_Source\PSoC5/GPS.c ****             GPS_SetRxAddress1(GPS_RXHWADDRESS1);
ARM GAS  C:\Users\javier\AppData\Local\Temp\ccsAAitb.s 			page 5


 114:.\Generated_Source\PSoC5/GPS.c ****             GPS_SetRxAddress2(GPS_RXHWADDRESS2);
 115:.\Generated_Source\PSoC5/GPS.c ****         #endif /* End GPS_RXHW_ADDRESS_ENABLED */
 116:.\Generated_Source\PSoC5/GPS.c **** 
 117:.\Generated_Source\PSoC5/GPS.c ****         /* Init Count7 period */
 118:.\Generated_Source\PSoC5/GPS.c ****         GPS_RXBITCTR_PERIOD_REG = GPS_RXBITCTR_INIT;
 116              		.loc 1 118 0
 117 0020 46F28643 		movw	r3, #25734
 118 0024 C4F20003 		movt	r3, 16384
 119 0028 4FF07202 		mov	r2, #114
 120 002c 1A70     		strb	r2, [r3, #0]
 119:.\Generated_Source\PSoC5/GPS.c ****         /* Configure the Initial RX interrupt mask */
 120:.\Generated_Source\PSoC5/GPS.c ****         GPS_RXSTATUS_MASK_REG  = GPS_INIT_RX_INTERRUPTS_MASK;
 121              		.loc 1 120 0
 122 002e 46F28653 		movw	r3, #25990
 123 0032 C4F20003 		movt	r3, 16384
 124 0036 4FF02002 		mov	r2, #32
 125 003a 1A70     		strb	r2, [r3, #0]
 121:.\Generated_Source\PSoC5/GPS.c ****     #endif /* End GPS_RX_ENABLED || GPS_HD_ENABLED*/
 122:.\Generated_Source\PSoC5/GPS.c **** 
 123:.\Generated_Source\PSoC5/GPS.c ****     #if(GPS_TX_ENABLED)
 124:.\Generated_Source\PSoC5/GPS.c ****         #if(GPS_TX_INTERRUPT_ENABLED && (GPS_TXBUFFERSIZE > GPS_FIFO_LENGTH))
 125:.\Generated_Source\PSoC5/GPS.c ****             /* Set the TX Interrupt. */
 126:.\Generated_Source\PSoC5/GPS.c ****             (void)CyIntSetVector(GPS_TX_VECT_NUM, &GPS_TXISR);
 127:.\Generated_Source\PSoC5/GPS.c ****             CyIntSetPriority(GPS_TX_VECT_NUM, GPS_TX_PRIOR_NUM);
 128:.\Generated_Source\PSoC5/GPS.c ****         #endif /* End GPS_TX_INTERRUPT_ENABLED */
 129:.\Generated_Source\PSoC5/GPS.c **** 
 130:.\Generated_Source\PSoC5/GPS.c ****         /* Write Counter Value for TX Bit Clk Generator*/
 131:.\Generated_Source\PSoC5/GPS.c ****         #if(GPS_TXCLKGEN_DP)
 132:.\Generated_Source\PSoC5/GPS.c ****             GPS_TXBITCLKGEN_CTR_REG = GPS_BIT_CENTER;
 133:.\Generated_Source\PSoC5/GPS.c ****             GPS_TXBITCLKTX_COMPLETE_REG = (GPS_NUMBER_OF_DATA_BITS +
 134:.\Generated_Source\PSoC5/GPS.c ****                         GPS_NUMBER_OF_START_BIT) * GPS_OVER_SAMPLE_COUNT;
 135:.\Generated_Source\PSoC5/GPS.c ****         #else
 136:.\Generated_Source\PSoC5/GPS.c ****             GPS_TXBITCTR_PERIOD_REG = ((GPS_NUMBER_OF_DATA_BITS +
 137:.\Generated_Source\PSoC5/GPS.c ****                         GPS_NUMBER_OF_START_BIT) * GPS_OVER_SAMPLE_8) - 1u;
 138:.\Generated_Source\PSoC5/GPS.c ****         #endif /* End GPS_TXCLKGEN_DP */
 139:.\Generated_Source\PSoC5/GPS.c **** 
 140:.\Generated_Source\PSoC5/GPS.c ****         /* Configure the Initial TX interrupt mask */
 141:.\Generated_Source\PSoC5/GPS.c ****         #if(GPS_TX_INTERRUPT_ENABLED && (GPS_TXBUFFERSIZE > GPS_FIFO_LENGTH))
 142:.\Generated_Source\PSoC5/GPS.c ****             GPS_TXSTATUS_MASK_REG = GPS_TX_STS_FIFO_EMPTY;
 143:.\Generated_Source\PSoC5/GPS.c ****         #else
 144:.\Generated_Source\PSoC5/GPS.c ****             GPS_TXSTATUS_MASK_REG = GPS_INIT_TX_INTERRUPTS_MASK;
 145:.\Generated_Source\PSoC5/GPS.c ****         #endif /*End GPS_TX_INTERRUPT_ENABLED*/
 146:.\Generated_Source\PSoC5/GPS.c **** 
 147:.\Generated_Source\PSoC5/GPS.c ****     #endif /* End GPS_TX_ENABLED */
 148:.\Generated_Source\PSoC5/GPS.c **** 
 149:.\Generated_Source\PSoC5/GPS.c ****     #if(GPS_PARITY_TYPE_SW)  /* Write Parity to Control Register */
 150:.\Generated_Source\PSoC5/GPS.c ****         GPS_WriteControlRegister( \
 151:.\Generated_Source\PSoC5/GPS.c ****             (GPS_ReadControlRegister() & (uint8)~GPS_CTRL_PARITY_TYPE_MASK) | \
 152:.\Generated_Source\PSoC5/GPS.c ****             (uint8)(GPS_PARITY_TYPE << GPS_CTRL_PARITY_TYPE0_SHIFT) );
 153:.\Generated_Source\PSoC5/GPS.c ****     #endif /* End GPS_PARITY_TYPE_SW */
 154:.\Generated_Source\PSoC5/GPS.c **** }
 126              		.loc 1 154 0
 127 003c 80BD     		pop	{r7, pc}
 128              		.cfi_endproc
 129              	.LFE1:
 130              		.size	GPS_Init, .-GPS_Init
 131 003e 00BF     		.section	.text.GPS_Enable,"ax",%progbits
ARM GAS  C:\Users\javier\AppData\Local\Temp\ccsAAitb.s 			page 6


 132              		.align	2
 133              		.global	GPS_Enable
 134              		.thumb
 135              		.thumb_func
 136              		.type	GPS_Enable, %function
 137              	GPS_Enable:
 138              	.LFB2:
 155:.\Generated_Source\PSoC5/GPS.c **** 
 156:.\Generated_Source\PSoC5/GPS.c **** 
 157:.\Generated_Source\PSoC5/GPS.c **** /*******************************************************************************
 158:.\Generated_Source\PSoC5/GPS.c **** * Function Name: GPS_Enable
 159:.\Generated_Source\PSoC5/GPS.c **** ********************************************************************************
 160:.\Generated_Source\PSoC5/GPS.c **** *
 161:.\Generated_Source\PSoC5/GPS.c **** * Summary:
 162:.\Generated_Source\PSoC5/GPS.c **** *  Enables the UART block operation
 163:.\Generated_Source\PSoC5/GPS.c **** *
 164:.\Generated_Source\PSoC5/GPS.c **** * Parameters:
 165:.\Generated_Source\PSoC5/GPS.c **** *  None.
 166:.\Generated_Source\PSoC5/GPS.c **** *
 167:.\Generated_Source\PSoC5/GPS.c **** * Return:
 168:.\Generated_Source\PSoC5/GPS.c **** *  None.
 169:.\Generated_Source\PSoC5/GPS.c **** *
 170:.\Generated_Source\PSoC5/GPS.c **** * Global Variables:
 171:.\Generated_Source\PSoC5/GPS.c **** *  GPS_rxAddressDetected - set to initial state (0).
 172:.\Generated_Source\PSoC5/GPS.c **** *
 173:.\Generated_Source\PSoC5/GPS.c **** *******************************************************************************/
 174:.\Generated_Source\PSoC5/GPS.c **** void GPS_Enable(void) 
 175:.\Generated_Source\PSoC5/GPS.c **** {
 139              		.loc 1 175 0
 140              		.cfi_startproc
 141              		@ args = 0, pretend = 0, frame = 8
 142              		@ frame_needed = 1, uses_anonymous_args = 0
 143 0000 80B5     		push	{r7, lr}
 144              	.LCFI4:
 145              		.cfi_def_cfa_offset 8
 146              		.cfi_offset 7, -8
 147              		.cfi_offset 14, -4
 148 0002 82B0     		sub	sp, sp, #8
 149              	.LCFI5:
 150              		.cfi_def_cfa_offset 16
 151 0004 00AF     		add	r7, sp, #0
 152              	.LCFI6:
 153              		.cfi_def_cfa_register 7
 176:.\Generated_Source\PSoC5/GPS.c ****     uint8 enableInterrupts;
 177:.\Generated_Source\PSoC5/GPS.c ****     enableInterrupts = CyEnterCriticalSection();
 154              		.loc 1 177 0
 155 0006 FFF7FEFF 		bl	CyEnterCriticalSection
 156 000a 0346     		mov	r3, r0
 157 000c FB71     		strb	r3, [r7, #7]
 178:.\Generated_Source\PSoC5/GPS.c **** 
 179:.\Generated_Source\PSoC5/GPS.c ****     #if(GPS_RX_ENABLED || GPS_HD_ENABLED)
 180:.\Generated_Source\PSoC5/GPS.c ****         /*RX Counter (Count7) Enable */
 181:.\Generated_Source\PSoC5/GPS.c ****         GPS_RXBITCTR_CONTROL_REG |= GPS_CNTR_ENABLE;
 158              		.loc 1 181 0
 159 000e 46F29643 		movw	r3, #25750
 160 0012 C4F20003 		movt	r3, 16384
 161 0016 46F29642 		movw	r2, #25750
ARM GAS  C:\Users\javier\AppData\Local\Temp\ccsAAitb.s 			page 7


 162 001a C4F20002 		movt	r2, 16384
 163 001e 1278     		ldrb	r2, [r2, #0]
 164 0020 D2B2     		uxtb	r2, r2
 165 0022 42F02002 		orr	r2, r2, #32
 166 0026 D2B2     		uxtb	r2, r2
 167 0028 1A70     		strb	r2, [r3, #0]
 182:.\Generated_Source\PSoC5/GPS.c ****         /* Enable the RX Interrupt. */
 183:.\Generated_Source\PSoC5/GPS.c ****         GPS_RXSTATUS_ACTL_REG  |= GPS_INT_ENABLE;
 168              		.loc 1 183 0
 169 002a 46F29653 		movw	r3, #26006
 170 002e C4F20003 		movt	r3, 16384
 171 0032 46F29652 		movw	r2, #26006
 172 0036 C4F20002 		movt	r2, 16384
 173 003a 1278     		ldrb	r2, [r2, #0]
 174 003c D2B2     		uxtb	r2, r2
 175 003e 42F01002 		orr	r2, r2, #16
 176 0042 D2B2     		uxtb	r2, r2
 177 0044 1A70     		strb	r2, [r3, #0]
 184:.\Generated_Source\PSoC5/GPS.c ****         #if(GPS_RX_INTERRUPT_ENABLED && (GPS_RXBUFFERSIZE > GPS_FIFO_LENGTH))
 185:.\Generated_Source\PSoC5/GPS.c ****             CyIntEnable(GPS_RX_VECT_NUM);
 178              		.loc 1 185 0
 179 0046 4FF46143 		mov	r3, #57600
 180 004a CEF20003 		movt	r3, 57344
 181 004e 4FF00102 		mov	r2, #1
 182 0052 1A60     		str	r2, [r3, #0]
 186:.\Generated_Source\PSoC5/GPS.c ****             #if (GPS_RXHW_ADDRESS_ENABLED)
 187:.\Generated_Source\PSoC5/GPS.c ****                 GPS_rxAddressDetected = 0u;
 188:.\Generated_Source\PSoC5/GPS.c ****             #endif /* End GPS_RXHW_ADDRESS_ENABLED */
 189:.\Generated_Source\PSoC5/GPS.c ****         #endif /* End GPS_RX_INTERRUPT_ENABLED */
 190:.\Generated_Source\PSoC5/GPS.c ****     #endif /* End GPS_RX_ENABLED || GPS_HD_ENABLED*/
 191:.\Generated_Source\PSoC5/GPS.c **** 
 192:.\Generated_Source\PSoC5/GPS.c ****     #if(GPS_TX_ENABLED)
 193:.\Generated_Source\PSoC5/GPS.c ****         /*TX Counter (DP/Count7) Enable */
 194:.\Generated_Source\PSoC5/GPS.c ****         #if(!GPS_TXCLKGEN_DP)
 195:.\Generated_Source\PSoC5/GPS.c ****             GPS_TXBITCTR_CONTROL_REG |= GPS_CNTR_ENABLE;
 196:.\Generated_Source\PSoC5/GPS.c ****         #endif /* End GPS_TXCLKGEN_DP */
 197:.\Generated_Source\PSoC5/GPS.c ****         /* Enable the TX Interrupt. */
 198:.\Generated_Source\PSoC5/GPS.c ****         GPS_TXSTATUS_ACTL_REG |= GPS_INT_ENABLE;
 199:.\Generated_Source\PSoC5/GPS.c ****         #if(GPS_TX_INTERRUPT_ENABLED && (GPS_TXBUFFERSIZE > GPS_FIFO_LENGTH))
 200:.\Generated_Source\PSoC5/GPS.c ****             CyIntEnable(GPS_TX_VECT_NUM);
 201:.\Generated_Source\PSoC5/GPS.c ****         #endif /* End GPS_TX_INTERRUPT_ENABLED*/
 202:.\Generated_Source\PSoC5/GPS.c ****      #endif /* End GPS_TX_ENABLED */
 203:.\Generated_Source\PSoC5/GPS.c **** 
 204:.\Generated_Source\PSoC5/GPS.c ****     #if(GPS_INTERNAL_CLOCK_USED)
 205:.\Generated_Source\PSoC5/GPS.c ****         /* Enable the clock. */
 206:.\Generated_Source\PSoC5/GPS.c ****         GPS_IntClock_Start();
 183              		.loc 1 206 0
 184 0054 FFF7FEFF 		bl	GPS_IntClock_Start
 207:.\Generated_Source\PSoC5/GPS.c ****     #endif /* End GPS_INTERNAL_CLOCK_USED */
 208:.\Generated_Source\PSoC5/GPS.c **** 
 209:.\Generated_Source\PSoC5/GPS.c ****     CyExitCriticalSection(enableInterrupts);
 185              		.loc 1 209 0
 186 0058 FB79     		ldrb	r3, [r7, #7]	@ zero_extendqisi2
 187 005a 1846     		mov	r0, r3
 188 005c FFF7FEFF 		bl	CyExitCriticalSection
 210:.\Generated_Source\PSoC5/GPS.c **** }
 189              		.loc 1 210 0
ARM GAS  C:\Users\javier\AppData\Local\Temp\ccsAAitb.s 			page 8


 190 0060 07F10807 		add	r7, r7, #8
 191 0064 BD46     		mov	sp, r7
 192 0066 80BD     		pop	{r7, pc}
 193              		.cfi_endproc
 194              	.LFE2:
 195              		.size	GPS_Enable, .-GPS_Enable
 196              		.section	.text.GPS_Stop,"ax",%progbits
 197              		.align	2
 198              		.global	GPS_Stop
 199              		.thumb
 200              		.thumb_func
 201              		.type	GPS_Stop, %function
 202              	GPS_Stop:
 203              	.LFB3:
 211:.\Generated_Source\PSoC5/GPS.c **** 
 212:.\Generated_Source\PSoC5/GPS.c **** 
 213:.\Generated_Source\PSoC5/GPS.c **** /*******************************************************************************
 214:.\Generated_Source\PSoC5/GPS.c **** * Function Name: GPS_Stop
 215:.\Generated_Source\PSoC5/GPS.c **** ********************************************************************************
 216:.\Generated_Source\PSoC5/GPS.c **** *
 217:.\Generated_Source\PSoC5/GPS.c **** * Summary:
 218:.\Generated_Source\PSoC5/GPS.c **** *  Disable the UART component
 219:.\Generated_Source\PSoC5/GPS.c **** *
 220:.\Generated_Source\PSoC5/GPS.c **** * Parameters:
 221:.\Generated_Source\PSoC5/GPS.c **** *  None.
 222:.\Generated_Source\PSoC5/GPS.c **** *
 223:.\Generated_Source\PSoC5/GPS.c **** * Return:
 224:.\Generated_Source\PSoC5/GPS.c **** *  None.
 225:.\Generated_Source\PSoC5/GPS.c **** *
 226:.\Generated_Source\PSoC5/GPS.c **** *******************************************************************************/
 227:.\Generated_Source\PSoC5/GPS.c **** void GPS_Stop(void) 
 228:.\Generated_Source\PSoC5/GPS.c **** {
 204              		.loc 1 228 0
 205              		.cfi_startproc
 206              		@ args = 0, pretend = 0, frame = 8
 207              		@ frame_needed = 1, uses_anonymous_args = 0
 208 0000 80B5     		push	{r7, lr}
 209              	.LCFI7:
 210              		.cfi_def_cfa_offset 8
 211              		.cfi_offset 7, -8
 212              		.cfi_offset 14, -4
 213 0002 82B0     		sub	sp, sp, #8
 214              	.LCFI8:
 215              		.cfi_def_cfa_offset 16
 216 0004 00AF     		add	r7, sp, #0
 217              	.LCFI9:
 218              		.cfi_def_cfa_register 7
 229:.\Generated_Source\PSoC5/GPS.c ****     uint8 enableInterrupts;
 230:.\Generated_Source\PSoC5/GPS.c ****     enableInterrupts = CyEnterCriticalSection();
 219              		.loc 1 230 0
 220 0006 FFF7FEFF 		bl	CyEnterCriticalSection
 221 000a 0346     		mov	r3, r0
 222 000c FB71     		strb	r3, [r7, #7]
 231:.\Generated_Source\PSoC5/GPS.c **** 
 232:.\Generated_Source\PSoC5/GPS.c ****     /* Write Bit Counter Disable */
 233:.\Generated_Source\PSoC5/GPS.c ****     #if(GPS_RX_ENABLED || GPS_HD_ENABLED)
 234:.\Generated_Source\PSoC5/GPS.c ****         GPS_RXBITCTR_CONTROL_REG &= (uint8)~GPS_CNTR_ENABLE;
ARM GAS  C:\Users\javier\AppData\Local\Temp\ccsAAitb.s 			page 9


 223              		.loc 1 234 0
 224 000e 46F29643 		movw	r3, #25750
 225 0012 C4F20003 		movt	r3, 16384
 226 0016 46F29642 		movw	r2, #25750
 227 001a C4F20002 		movt	r2, 16384
 228 001e 1278     		ldrb	r2, [r2, #0]
 229 0020 D2B2     		uxtb	r2, r2
 230 0022 22F02002 		bic	r2, r2, #32
 231 0026 D2B2     		uxtb	r2, r2
 232 0028 1A70     		strb	r2, [r3, #0]
 235:.\Generated_Source\PSoC5/GPS.c ****     #endif /* End GPS_RX_ENABLED */
 236:.\Generated_Source\PSoC5/GPS.c **** 
 237:.\Generated_Source\PSoC5/GPS.c ****     #if(GPS_TX_ENABLED)
 238:.\Generated_Source\PSoC5/GPS.c ****         #if(!GPS_TXCLKGEN_DP)
 239:.\Generated_Source\PSoC5/GPS.c ****             GPS_TXBITCTR_CONTROL_REG &= (uint8)~GPS_CNTR_ENABLE;
 240:.\Generated_Source\PSoC5/GPS.c ****         #endif /* End GPS_TXCLKGEN_DP */
 241:.\Generated_Source\PSoC5/GPS.c ****     #endif /* GPS_TX_ENABLED */
 242:.\Generated_Source\PSoC5/GPS.c **** 
 243:.\Generated_Source\PSoC5/GPS.c ****     #if(GPS_INTERNAL_CLOCK_USED)
 244:.\Generated_Source\PSoC5/GPS.c ****         /* Disable the clock. */
 245:.\Generated_Source\PSoC5/GPS.c ****         GPS_IntClock_Stop();
 233              		.loc 1 245 0
 234 002a FFF7FEFF 		bl	GPS_IntClock_Stop
 246:.\Generated_Source\PSoC5/GPS.c ****     #endif /* End GPS_INTERNAL_CLOCK_USED */
 247:.\Generated_Source\PSoC5/GPS.c **** 
 248:.\Generated_Source\PSoC5/GPS.c ****     /* Disable internal interrupt component */
 249:.\Generated_Source\PSoC5/GPS.c ****     #if(GPS_RX_ENABLED || GPS_HD_ENABLED)
 250:.\Generated_Source\PSoC5/GPS.c ****         GPS_RXSTATUS_ACTL_REG  &= (uint8)~GPS_INT_ENABLE;
 235              		.loc 1 250 0
 236 002e 46F29653 		movw	r3, #26006
 237 0032 C4F20003 		movt	r3, 16384
 238 0036 46F29652 		movw	r2, #26006
 239 003a C4F20002 		movt	r2, 16384
 240 003e 1278     		ldrb	r2, [r2, #0]
 241 0040 D2B2     		uxtb	r2, r2
 242 0042 22F01002 		bic	r2, r2, #16
 243 0046 D2B2     		uxtb	r2, r2
 244 0048 1A70     		strb	r2, [r3, #0]
 251:.\Generated_Source\PSoC5/GPS.c ****         #if(GPS_RX_INTERRUPT_ENABLED && (GPS_RXBUFFERSIZE > GPS_FIFO_LENGTH))
 252:.\Generated_Source\PSoC5/GPS.c ****             GPS_DisableRxInt();
 245              		.loc 1 252 0
 246 004a FFF7FEFF 		bl	GPS_DisableRxInt
 253:.\Generated_Source\PSoC5/GPS.c ****         #endif /* End GPS_RX_INTERRUPT_ENABLED */
 254:.\Generated_Source\PSoC5/GPS.c ****     #endif /* End GPS_RX_ENABLED */
 255:.\Generated_Source\PSoC5/GPS.c **** 
 256:.\Generated_Source\PSoC5/GPS.c ****     #if(GPS_TX_ENABLED)
 257:.\Generated_Source\PSoC5/GPS.c ****         GPS_TXSTATUS_ACTL_REG &= (uint8)~GPS_INT_ENABLE;
 258:.\Generated_Source\PSoC5/GPS.c ****         #if(GPS_TX_INTERRUPT_ENABLED && (GPS_TXBUFFERSIZE > GPS_FIFO_LENGTH))
 259:.\Generated_Source\PSoC5/GPS.c ****             GPS_DisableTxInt();
 260:.\Generated_Source\PSoC5/GPS.c ****         #endif /* End GPS_TX_INTERRUPT_ENABLED */
 261:.\Generated_Source\PSoC5/GPS.c ****     #endif /* End GPS_TX_ENABLED */
 262:.\Generated_Source\PSoC5/GPS.c **** 
 263:.\Generated_Source\PSoC5/GPS.c ****     CyExitCriticalSection(enableInterrupts);
 247              		.loc 1 263 0
 248 004e FB79     		ldrb	r3, [r7, #7]	@ zero_extendqisi2
 249 0050 1846     		mov	r0, r3
 250 0052 FFF7FEFF 		bl	CyExitCriticalSection
ARM GAS  C:\Users\javier\AppData\Local\Temp\ccsAAitb.s 			page 10


 264:.\Generated_Source\PSoC5/GPS.c **** }
 251              		.loc 1 264 0
 252 0056 07F10807 		add	r7, r7, #8
 253 005a BD46     		mov	sp, r7
 254 005c 80BD     		pop	{r7, pc}
 255              		.cfi_endproc
 256              	.LFE3:
 257              		.size	GPS_Stop, .-GPS_Stop
 258 005e 00BF     		.section	.text.GPS_ReadControlRegister,"ax",%progbits
 259              		.align	2
 260              		.global	GPS_ReadControlRegister
 261              		.thumb
 262              		.thumb_func
 263              		.type	GPS_ReadControlRegister, %function
 264              	GPS_ReadControlRegister:
 265              	.LFB4:
 265:.\Generated_Source\PSoC5/GPS.c **** 
 266:.\Generated_Source\PSoC5/GPS.c **** 
 267:.\Generated_Source\PSoC5/GPS.c **** /*******************************************************************************
 268:.\Generated_Source\PSoC5/GPS.c **** * Function Name: GPS_ReadControlRegister
 269:.\Generated_Source\PSoC5/GPS.c **** ********************************************************************************
 270:.\Generated_Source\PSoC5/GPS.c **** *
 271:.\Generated_Source\PSoC5/GPS.c **** * Summary:
 272:.\Generated_Source\PSoC5/GPS.c **** *  Read the current state of the control register
 273:.\Generated_Source\PSoC5/GPS.c **** *
 274:.\Generated_Source\PSoC5/GPS.c **** * Parameters:
 275:.\Generated_Source\PSoC5/GPS.c **** *  None.
 276:.\Generated_Source\PSoC5/GPS.c **** *
 277:.\Generated_Source\PSoC5/GPS.c **** * Return:
 278:.\Generated_Source\PSoC5/GPS.c **** *  Current state of the control register.
 279:.\Generated_Source\PSoC5/GPS.c **** *
 280:.\Generated_Source\PSoC5/GPS.c **** *******************************************************************************/
 281:.\Generated_Source\PSoC5/GPS.c **** uint8 GPS_ReadControlRegister(void) 
 282:.\Generated_Source\PSoC5/GPS.c **** {
 266              		.loc 1 282 0
 267              		.cfi_startproc
 268              		@ args = 0, pretend = 0, frame = 0
 269              		@ frame_needed = 1, uses_anonymous_args = 0
 270              		@ link register save eliminated.
 271 0000 80B4     		push	{r7}
 272              	.LCFI10:
 273              		.cfi_def_cfa_offset 4
 274              		.cfi_offset 7, -4
 275 0002 00AF     		add	r7, sp, #0
 276              	.LCFI11:
 277              		.cfi_def_cfa_register 7
 283:.\Generated_Source\PSoC5/GPS.c ****     #if( GPS_CONTROL_REG_REMOVED )
 284:.\Generated_Source\PSoC5/GPS.c ****         return(0u);
 278              		.loc 1 284 0
 279 0004 4FF00003 		mov	r3, #0
 285:.\Generated_Source\PSoC5/GPS.c ****     #else
 286:.\Generated_Source\PSoC5/GPS.c ****         return(GPS_CONTROL_REG);
 287:.\Generated_Source\PSoC5/GPS.c ****     #endif /* End GPS_CONTROL_REG_REMOVED */
 288:.\Generated_Source\PSoC5/GPS.c **** }
 280              		.loc 1 288 0
 281 0008 1846     		mov	r0, r3
 282 000a BD46     		mov	sp, r7
ARM GAS  C:\Users\javier\AppData\Local\Temp\ccsAAitb.s 			page 11


 283 000c 80BC     		pop	{r7}
 284 000e 7047     		bx	lr
 285              		.cfi_endproc
 286              	.LFE4:
 287              		.size	GPS_ReadControlRegister, .-GPS_ReadControlRegister
 288              		.section	.text.GPS_WriteControlRegister,"ax",%progbits
 289              		.align	2
 290              		.global	GPS_WriteControlRegister
 291              		.thumb
 292              		.thumb_func
 293              		.type	GPS_WriteControlRegister, %function
 294              	GPS_WriteControlRegister:
 295              	.LFB5:
 289:.\Generated_Source\PSoC5/GPS.c **** 
 290:.\Generated_Source\PSoC5/GPS.c **** 
 291:.\Generated_Source\PSoC5/GPS.c **** /*******************************************************************************
 292:.\Generated_Source\PSoC5/GPS.c **** * Function Name: GPS_WriteControlRegister
 293:.\Generated_Source\PSoC5/GPS.c **** ********************************************************************************
 294:.\Generated_Source\PSoC5/GPS.c **** *
 295:.\Generated_Source\PSoC5/GPS.c **** * Summary:
 296:.\Generated_Source\PSoC5/GPS.c **** *  Writes an 8-bit value into the control register
 297:.\Generated_Source\PSoC5/GPS.c **** *
 298:.\Generated_Source\PSoC5/GPS.c **** * Parameters:
 299:.\Generated_Source\PSoC5/GPS.c **** *  control:  control register value
 300:.\Generated_Source\PSoC5/GPS.c **** *
 301:.\Generated_Source\PSoC5/GPS.c **** * Return:
 302:.\Generated_Source\PSoC5/GPS.c **** *  None.
 303:.\Generated_Source\PSoC5/GPS.c **** *
 304:.\Generated_Source\PSoC5/GPS.c **** *******************************************************************************/
 305:.\Generated_Source\PSoC5/GPS.c **** void  GPS_WriteControlRegister(uint8 control) 
 306:.\Generated_Source\PSoC5/GPS.c **** {
 296              		.loc 1 306 0
 297              		.cfi_startproc
 298              		@ args = 0, pretend = 0, frame = 8
 299              		@ frame_needed = 1, uses_anonymous_args = 0
 300              		@ link register save eliminated.
 301 0000 80B4     		push	{r7}
 302              	.LCFI12:
 303              		.cfi_def_cfa_offset 4
 304              		.cfi_offset 7, -4
 305 0002 83B0     		sub	sp, sp, #12
 306              	.LCFI13:
 307              		.cfi_def_cfa_offset 16
 308 0004 00AF     		add	r7, sp, #0
 309              	.LCFI14:
 310              		.cfi_def_cfa_register 7
 311 0006 0346     		mov	r3, r0
 312 0008 FB71     		strb	r3, [r7, #7]
 307:.\Generated_Source\PSoC5/GPS.c ****     #if( GPS_CONTROL_REG_REMOVED )
 308:.\Generated_Source\PSoC5/GPS.c ****         if(control != 0u) { }      /* release compiler warning */
 309:.\Generated_Source\PSoC5/GPS.c ****     #else
 310:.\Generated_Source\PSoC5/GPS.c ****        GPS_CONTROL_REG = control;
 311:.\Generated_Source\PSoC5/GPS.c ****     #endif /* End GPS_CONTROL_REG_REMOVED */
 312:.\Generated_Source\PSoC5/GPS.c **** }
 313              		.loc 1 312 0
 314 000a 07F10C07 		add	r7, r7, #12
 315 000e BD46     		mov	sp, r7
ARM GAS  C:\Users\javier\AppData\Local\Temp\ccsAAitb.s 			page 12


 316 0010 80BC     		pop	{r7}
 317 0012 7047     		bx	lr
 318              		.cfi_endproc
 319              	.LFE5:
 320              		.size	GPS_WriteControlRegister, .-GPS_WriteControlRegister
 321              		.section	.text.GPS_EnableRxInt,"ax",%progbits
 322              		.align	2
 323              		.global	GPS_EnableRxInt
 324              		.thumb
 325              		.thumb_func
 326              		.type	GPS_EnableRxInt, %function
 327              	GPS_EnableRxInt:
 328              	.LFB6:
 313:.\Generated_Source\PSoC5/GPS.c **** 
 314:.\Generated_Source\PSoC5/GPS.c **** 
 315:.\Generated_Source\PSoC5/GPS.c **** #if(GPS_RX_ENABLED || GPS_HD_ENABLED)
 316:.\Generated_Source\PSoC5/GPS.c **** 
 317:.\Generated_Source\PSoC5/GPS.c ****     #if(GPS_RX_INTERRUPT_ENABLED)
 318:.\Generated_Source\PSoC5/GPS.c **** 
 319:.\Generated_Source\PSoC5/GPS.c ****         /*******************************************************************************
 320:.\Generated_Source\PSoC5/GPS.c ****         * Function Name: GPS_EnableRxInt
 321:.\Generated_Source\PSoC5/GPS.c ****         ********************************************************************************
 322:.\Generated_Source\PSoC5/GPS.c ****         *
 323:.\Generated_Source\PSoC5/GPS.c ****         * Summary:
 324:.\Generated_Source\PSoC5/GPS.c ****         *  Enable RX interrupt generation
 325:.\Generated_Source\PSoC5/GPS.c ****         *
 326:.\Generated_Source\PSoC5/GPS.c ****         * Parameters:
 327:.\Generated_Source\PSoC5/GPS.c ****         *  None.
 328:.\Generated_Source\PSoC5/GPS.c ****         *
 329:.\Generated_Source\PSoC5/GPS.c ****         * Return:
 330:.\Generated_Source\PSoC5/GPS.c ****         *  None.
 331:.\Generated_Source\PSoC5/GPS.c ****         *
 332:.\Generated_Source\PSoC5/GPS.c ****         * Theory:
 333:.\Generated_Source\PSoC5/GPS.c ****         *  Enable the interrupt output -or- the interrupt component itself
 334:.\Generated_Source\PSoC5/GPS.c ****         *
 335:.\Generated_Source\PSoC5/GPS.c ****         *******************************************************************************/
 336:.\Generated_Source\PSoC5/GPS.c ****         void GPS_EnableRxInt(void) 
 337:.\Generated_Source\PSoC5/GPS.c ****         {
 329              		.loc 1 337 0
 330              		.cfi_startproc
 331              		@ args = 0, pretend = 0, frame = 0
 332              		@ frame_needed = 1, uses_anonymous_args = 0
 333              		@ link register save eliminated.
 334 0000 80B4     		push	{r7}
 335              	.LCFI15:
 336              		.cfi_def_cfa_offset 4
 337              		.cfi_offset 7, -4
 338 0002 00AF     		add	r7, sp, #0
 339              	.LCFI16:
 340              		.cfi_def_cfa_register 7
 338:.\Generated_Source\PSoC5/GPS.c ****             CyIntEnable(GPS_RX_VECT_NUM);
 341              		.loc 1 338 0
 342 0004 4FF46143 		mov	r3, #57600
 343 0008 CEF20003 		movt	r3, 57344
 344 000c 4FF00102 		mov	r2, #1
 345 0010 1A60     		str	r2, [r3, #0]
 339:.\Generated_Source\PSoC5/GPS.c ****         }
ARM GAS  C:\Users\javier\AppData\Local\Temp\ccsAAitb.s 			page 13


 346              		.loc 1 339 0
 347 0012 BD46     		mov	sp, r7
 348 0014 80BC     		pop	{r7}
 349 0016 7047     		bx	lr
 350              		.cfi_endproc
 351              	.LFE6:
 352              		.size	GPS_EnableRxInt, .-GPS_EnableRxInt
 353              		.section	.text.GPS_DisableRxInt,"ax",%progbits
 354              		.align	2
 355              		.global	GPS_DisableRxInt
 356              		.thumb
 357              		.thumb_func
 358              		.type	GPS_DisableRxInt, %function
 359              	GPS_DisableRxInt:
 360              	.LFB7:
 340:.\Generated_Source\PSoC5/GPS.c **** 
 341:.\Generated_Source\PSoC5/GPS.c **** 
 342:.\Generated_Source\PSoC5/GPS.c ****         /*******************************************************************************
 343:.\Generated_Source\PSoC5/GPS.c ****         * Function Name: GPS_DisableRxInt
 344:.\Generated_Source\PSoC5/GPS.c ****         ********************************************************************************
 345:.\Generated_Source\PSoC5/GPS.c ****         *
 346:.\Generated_Source\PSoC5/GPS.c ****         * Summary:
 347:.\Generated_Source\PSoC5/GPS.c ****         *  Disable RX interrupt generation
 348:.\Generated_Source\PSoC5/GPS.c ****         *
 349:.\Generated_Source\PSoC5/GPS.c ****         * Parameters:
 350:.\Generated_Source\PSoC5/GPS.c ****         *  None.
 351:.\Generated_Source\PSoC5/GPS.c ****         *
 352:.\Generated_Source\PSoC5/GPS.c ****         * Return:
 353:.\Generated_Source\PSoC5/GPS.c ****         *  None.
 354:.\Generated_Source\PSoC5/GPS.c ****         *
 355:.\Generated_Source\PSoC5/GPS.c ****         * Theory:
 356:.\Generated_Source\PSoC5/GPS.c ****         *  Disable the interrupt output -or- the interrupt component itself
 357:.\Generated_Source\PSoC5/GPS.c ****         *
 358:.\Generated_Source\PSoC5/GPS.c ****         *******************************************************************************/
 359:.\Generated_Source\PSoC5/GPS.c ****         void GPS_DisableRxInt(void) 
 360:.\Generated_Source\PSoC5/GPS.c ****         {
 361              		.loc 1 360 0
 362              		.cfi_startproc
 363              		@ args = 0, pretend = 0, frame = 0
 364              		@ frame_needed = 1, uses_anonymous_args = 0
 365              		@ link register save eliminated.
 366 0000 80B4     		push	{r7}
 367              	.LCFI17:
 368              		.cfi_def_cfa_offset 4
 369              		.cfi_offset 7, -4
 370 0002 00AF     		add	r7, sp, #0
 371              	.LCFI18:
 372              		.cfi_def_cfa_register 7
 361:.\Generated_Source\PSoC5/GPS.c ****             CyIntDisable(GPS_RX_VECT_NUM);
 373              		.loc 1 361 0
 374 0004 4EF28013 		movw	r3, #57728
 375 0008 CEF20003 		movt	r3, 57344
 376 000c 4FF00102 		mov	r2, #1
 377 0010 1A60     		str	r2, [r3, #0]
 362:.\Generated_Source\PSoC5/GPS.c ****         }
 378              		.loc 1 362 0
 379 0012 BD46     		mov	sp, r7
ARM GAS  C:\Users\javier\AppData\Local\Temp\ccsAAitb.s 			page 14


 380 0014 80BC     		pop	{r7}
 381 0016 7047     		bx	lr
 382              		.cfi_endproc
 383              	.LFE7:
 384              		.size	GPS_DisableRxInt, .-GPS_DisableRxInt
 385              		.section	.text.GPS_SetRxInterruptMode,"ax",%progbits
 386              		.align	2
 387              		.global	GPS_SetRxInterruptMode
 388              		.thumb
 389              		.thumb_func
 390              		.type	GPS_SetRxInterruptMode, %function
 391              	GPS_SetRxInterruptMode:
 392              	.LFB8:
 363:.\Generated_Source\PSoC5/GPS.c **** 
 364:.\Generated_Source\PSoC5/GPS.c ****     #endif /* GPS_RX_INTERRUPT_ENABLED */
 365:.\Generated_Source\PSoC5/GPS.c **** 
 366:.\Generated_Source\PSoC5/GPS.c **** 
 367:.\Generated_Source\PSoC5/GPS.c ****     /*******************************************************************************
 368:.\Generated_Source\PSoC5/GPS.c ****     * Function Name: GPS_SetRxInterruptMode
 369:.\Generated_Source\PSoC5/GPS.c ****     ********************************************************************************
 370:.\Generated_Source\PSoC5/GPS.c ****     *
 371:.\Generated_Source\PSoC5/GPS.c ****     * Summary:
 372:.\Generated_Source\PSoC5/GPS.c ****     *  Configure which status bits trigger an interrupt event
 373:.\Generated_Source\PSoC5/GPS.c ****     *
 374:.\Generated_Source\PSoC5/GPS.c ****     * Parameters:
 375:.\Generated_Source\PSoC5/GPS.c ****     *  IntSrc:  An or'd combination of the desired status bit masks (defined in
 376:.\Generated_Source\PSoC5/GPS.c ****     *           the header file)
 377:.\Generated_Source\PSoC5/GPS.c ****     *
 378:.\Generated_Source\PSoC5/GPS.c ****     * Return:
 379:.\Generated_Source\PSoC5/GPS.c ****     *  None.
 380:.\Generated_Source\PSoC5/GPS.c ****     *
 381:.\Generated_Source\PSoC5/GPS.c ****     * Theory:
 382:.\Generated_Source\PSoC5/GPS.c ****     *  Enables the output of specific status bits to the interrupt controller
 383:.\Generated_Source\PSoC5/GPS.c ****     *
 384:.\Generated_Source\PSoC5/GPS.c ****     *******************************************************************************/
 385:.\Generated_Source\PSoC5/GPS.c ****     void GPS_SetRxInterruptMode(uint8 intSrc) 
 386:.\Generated_Source\PSoC5/GPS.c ****     {
 393              		.loc 1 386 0
 394              		.cfi_startproc
 395              		@ args = 0, pretend = 0, frame = 8
 396              		@ frame_needed = 1, uses_anonymous_args = 0
 397              		@ link register save eliminated.
 398 0000 80B4     		push	{r7}
 399              	.LCFI19:
 400              		.cfi_def_cfa_offset 4
 401              		.cfi_offset 7, -4
 402 0002 83B0     		sub	sp, sp, #12
 403              	.LCFI20:
 404              		.cfi_def_cfa_offset 16
 405 0004 00AF     		add	r7, sp, #0
 406              	.LCFI21:
 407              		.cfi_def_cfa_register 7
 408 0006 0346     		mov	r3, r0
 409 0008 FB71     		strb	r3, [r7, #7]
 387:.\Generated_Source\PSoC5/GPS.c ****         GPS_RXSTATUS_MASK_REG  = intSrc;
 410              		.loc 1 387 0
 411 000a 46F28653 		movw	r3, #25990
ARM GAS  C:\Users\javier\AppData\Local\Temp\ccsAAitb.s 			page 15


 412 000e C4F20003 		movt	r3, 16384
 413 0012 FA79     		ldrb	r2, [r7, #7]
 414 0014 1A70     		strb	r2, [r3, #0]
 388:.\Generated_Source\PSoC5/GPS.c ****     }
 415              		.loc 1 388 0
 416 0016 07F10C07 		add	r7, r7, #12
 417 001a BD46     		mov	sp, r7
 418 001c 80BC     		pop	{r7}
 419 001e 7047     		bx	lr
 420              		.cfi_endproc
 421              	.LFE8:
 422              		.size	GPS_SetRxInterruptMode, .-GPS_SetRxInterruptMode
 423              		.section	.text.GPS_ReadRxData,"ax",%progbits
 424              		.align	2
 425              		.global	GPS_ReadRxData
 426              		.thumb
 427              		.thumb_func
 428              		.type	GPS_ReadRxData, %function
 429              	GPS_ReadRxData:
 430              	.LFB9:
 389:.\Generated_Source\PSoC5/GPS.c **** 
 390:.\Generated_Source\PSoC5/GPS.c **** 
 391:.\Generated_Source\PSoC5/GPS.c ****     /*******************************************************************************
 392:.\Generated_Source\PSoC5/GPS.c ****     * Function Name: GPS_ReadRxData
 393:.\Generated_Source\PSoC5/GPS.c ****     ********************************************************************************
 394:.\Generated_Source\PSoC5/GPS.c ****     *
 395:.\Generated_Source\PSoC5/GPS.c ****     * Summary:
 396:.\Generated_Source\PSoC5/GPS.c ****     *  Returns data in RX Data register without checking status register to
 397:.\Generated_Source\PSoC5/GPS.c ****     *  determine if data is valid
 398:.\Generated_Source\PSoC5/GPS.c ****     *
 399:.\Generated_Source\PSoC5/GPS.c ****     * Parameters:
 400:.\Generated_Source\PSoC5/GPS.c ****     *  None.
 401:.\Generated_Source\PSoC5/GPS.c ****     *
 402:.\Generated_Source\PSoC5/GPS.c ****     * Return:
 403:.\Generated_Source\PSoC5/GPS.c ****     *  Received data from RX register
 404:.\Generated_Source\PSoC5/GPS.c ****     *
 405:.\Generated_Source\PSoC5/GPS.c ****     * Global Variables:
 406:.\Generated_Source\PSoC5/GPS.c ****     *  GPS_rxBuffer - RAM buffer pointer for save received data.
 407:.\Generated_Source\PSoC5/GPS.c ****     *  GPS_rxBufferWrite - cyclic index for write to rxBuffer,
 408:.\Generated_Source\PSoC5/GPS.c ****     *     checked to identify new data.
 409:.\Generated_Source\PSoC5/GPS.c ****     *  GPS_rxBufferRead - cyclic index for read from rxBuffer,
 410:.\Generated_Source\PSoC5/GPS.c ****     *     incremented after each byte has been read from buffer.
 411:.\Generated_Source\PSoC5/GPS.c ****     *  GPS_rxBufferLoopDetect - creared if loop condition was detected
 412:.\Generated_Source\PSoC5/GPS.c ****     *     in RX ISR.
 413:.\Generated_Source\PSoC5/GPS.c ****     *
 414:.\Generated_Source\PSoC5/GPS.c ****     * Reentrant:
 415:.\Generated_Source\PSoC5/GPS.c ****     *  No.
 416:.\Generated_Source\PSoC5/GPS.c ****     *
 417:.\Generated_Source\PSoC5/GPS.c ****     *******************************************************************************/
 418:.\Generated_Source\PSoC5/GPS.c ****     uint8 GPS_ReadRxData(void) 
 419:.\Generated_Source\PSoC5/GPS.c ****     {
 431              		.loc 1 419 0
 432              		.cfi_startproc
 433              		@ args = 0, pretend = 0, frame = 8
 434              		@ frame_needed = 1, uses_anonymous_args = 0
 435 0000 80B5     		push	{r7, lr}
 436              	.LCFI22:
ARM GAS  C:\Users\javier\AppData\Local\Temp\ccsAAitb.s 			page 16


 437              		.cfi_def_cfa_offset 8
 438              		.cfi_offset 7, -8
 439              		.cfi_offset 14, -4
 440 0002 82B0     		sub	sp, sp, #8
 441              	.LCFI23:
 442              		.cfi_def_cfa_offset 16
 443 0004 00AF     		add	r7, sp, #0
 444              	.LCFI24:
 445              		.cfi_def_cfa_register 7
 420:.\Generated_Source\PSoC5/GPS.c ****         uint8 rxData;
 421:.\Generated_Source\PSoC5/GPS.c **** 
 422:.\Generated_Source\PSoC5/GPS.c ****         #if(GPS_RXBUFFERSIZE > GPS_FIFO_LENGTH)
 423:.\Generated_Source\PSoC5/GPS.c ****             uint8 loc_rxBufferRead;
 424:.\Generated_Source\PSoC5/GPS.c ****             uint8 loc_rxBufferWrite;
 425:.\Generated_Source\PSoC5/GPS.c ****             /* Protect variables that could change on interrupt. */
 426:.\Generated_Source\PSoC5/GPS.c ****             /* Disable Rx interrupt. */
 427:.\Generated_Source\PSoC5/GPS.c ****             #if(GPS_RX_INTERRUPT_ENABLED)
 428:.\Generated_Source\PSoC5/GPS.c ****                 GPS_DisableRxInt();
 446              		.loc 1 428 0
 447 0006 FFF7FEFF 		bl	GPS_DisableRxInt
 429:.\Generated_Source\PSoC5/GPS.c ****             #endif /* GPS_RX_INTERRUPT_ENABLED */
 430:.\Generated_Source\PSoC5/GPS.c ****             loc_rxBufferRead = GPS_rxBufferRead;
 448              		.loc 1 430 0
 449 000a 40F20003 		movw	r3, #:lower16:GPS_rxBufferRead
 450 000e C0F20003 		movt	r3, #:upper16:GPS_rxBufferRead
 451 0012 1B78     		ldrb	r3, [r3, #0]
 452 0014 BB71     		strb	r3, [r7, #6]
 431:.\Generated_Source\PSoC5/GPS.c ****             loc_rxBufferWrite = GPS_rxBufferWrite;
 453              		.loc 1 431 0
 454 0016 40F20003 		movw	r3, #:lower16:GPS_rxBufferWrite
 455 001a C0F20003 		movt	r3, #:upper16:GPS_rxBufferWrite
 456 001e 1B78     		ldrb	r3, [r3, #0]
 457 0020 7B71     		strb	r3, [r7, #5]
 432:.\Generated_Source\PSoC5/GPS.c **** 
 433:.\Generated_Source\PSoC5/GPS.c ****             if( (GPS_rxBufferLoopDetect != 0u) || (loc_rxBufferRead != loc_rxBufferWrite) )
 458              		.loc 1 433 0
 459 0022 40F20003 		movw	r3, #:lower16:GPS_rxBufferLoopDetect
 460 0026 C0F20003 		movt	r3, #:upper16:GPS_rxBufferLoopDetect
 461 002a 1B78     		ldrb	r3, [r3, #0]
 462 002c DBB2     		uxtb	r3, r3
 463 002e 002B     		cmp	r3, #0
 464 0030 03D1     		bne	.L13
 465              		.loc 1 433 0 is_stmt 0 discriminator 1
 466 0032 BA79     		ldrb	r2, [r7, #6]	@ zero_extendqisi2
 467 0034 7B79     		ldrb	r3, [r7, #5]	@ zero_extendqisi2
 468 0036 9A42     		cmp	r2, r3
 469 0038 26D0     		beq	.L14
 470              	.L13:
 434:.\Generated_Source\PSoC5/GPS.c ****             {
 435:.\Generated_Source\PSoC5/GPS.c ****                 rxData = GPS_rxBuffer[loc_rxBufferRead];
 471              		.loc 1 435 0 is_stmt 1
 472 003a BA79     		ldrb	r2, [r7, #6]	@ zero_extendqisi2
 473 003c 40F20003 		movw	r3, #:lower16:GPS_rxBuffer
 474 0040 C0F20003 		movt	r3, #:upper16:GPS_rxBuffer
 475 0044 9B5C     		ldrb	r3, [r3, r2]
 476 0046 FB71     		strb	r3, [r7, #7]
 436:.\Generated_Source\PSoC5/GPS.c ****                 loc_rxBufferRead++;
ARM GAS  C:\Users\javier\AppData\Local\Temp\ccsAAitb.s 			page 17


 477              		.loc 1 436 0
 478 0048 BB79     		ldrb	r3, [r7, #6]
 479 004a 03F10103 		add	r3, r3, #1
 480 004e BB71     		strb	r3, [r7, #6]
 437:.\Generated_Source\PSoC5/GPS.c **** 
 438:.\Generated_Source\PSoC5/GPS.c ****                 if(loc_rxBufferRead >= GPS_RXBUFFERSIZE)
 481              		.loc 1 438 0
 482 0050 BB79     		ldrb	r3, [r7, #6]	@ zero_extendqisi2
 483 0052 4F2B     		cmp	r3, #79
 484 0054 02D9     		bls	.L15
 439:.\Generated_Source\PSoC5/GPS.c ****                 {
 440:.\Generated_Source\PSoC5/GPS.c ****                     loc_rxBufferRead = 0u;
 485              		.loc 1 440 0
 486 0056 4FF00003 		mov	r3, #0
 487 005a BB71     		strb	r3, [r7, #6]
 488              	.L15:
 441:.\Generated_Source\PSoC5/GPS.c ****                 }
 442:.\Generated_Source\PSoC5/GPS.c ****                 /* Update the real pointer */
 443:.\Generated_Source\PSoC5/GPS.c ****                 GPS_rxBufferRead = loc_rxBufferRead;
 489              		.loc 1 443 0
 490 005c 40F20003 		movw	r3, #:lower16:GPS_rxBufferRead
 491 0060 C0F20003 		movt	r3, #:upper16:GPS_rxBufferRead
 492 0064 BA79     		ldrb	r2, [r7, #6]
 493 0066 1A70     		strb	r2, [r3, #0]
 444:.\Generated_Source\PSoC5/GPS.c **** 
 445:.\Generated_Source\PSoC5/GPS.c ****                 if(GPS_rxBufferLoopDetect != 0u )
 494              		.loc 1 445 0
 495 0068 40F20003 		movw	r3, #:lower16:GPS_rxBufferLoopDetect
 496 006c C0F20003 		movt	r3, #:upper16:GPS_rxBufferLoopDetect
 497 0070 1B78     		ldrb	r3, [r3, #0]
 498 0072 DBB2     		uxtb	r3, r3
 499 0074 002B     		cmp	r3, #0
 500 0076 0DD0     		beq	.L17
 446:.\Generated_Source\PSoC5/GPS.c ****                 {
 447:.\Generated_Source\PSoC5/GPS.c ****                     GPS_rxBufferLoopDetect = 0u;
 501              		.loc 1 447 0
 502 0078 40F20003 		movw	r3, #:lower16:GPS_rxBufferLoopDetect
 503 007c C0F20003 		movt	r3, #:upper16:GPS_rxBufferLoopDetect
 504 0080 4FF00002 		mov	r2, #0
 505 0084 1A70     		strb	r2, [r3, #0]
 445:.\Generated_Source\PSoC5/GPS.c ****                 if(GPS_rxBufferLoopDetect != 0u )
 506              		.loc 1 445 0
 507 0086 05E0     		b	.L17
 508              	.L14:
 448:.\Generated_Source\PSoC5/GPS.c ****                     #if( (GPS_RX_INTERRUPT_ENABLED) && (GPS_FLOW_CONTROL != 0u) && \
 449:.\Generated_Source\PSoC5/GPS.c ****                          (GPS_RXBUFFERSIZE > GPS_FIFO_LENGTH) )
 450:.\Generated_Source\PSoC5/GPS.c ****                         /* When Hardware Flow Control selected - return RX mask */
 451:.\Generated_Source\PSoC5/GPS.c ****                         #if( GPS_HD_ENABLED )
 452:.\Generated_Source\PSoC5/GPS.c ****                             if((GPS_CONTROL_REG & GPS_CTRL_HD_SEND) == 0u)
 453:.\Generated_Source\PSoC5/GPS.c ****                             {   /* In Half duplex mode return RX mask only in RX
 454:.\Generated_Source\PSoC5/GPS.c ****                                 *  configuration set, otherwise
 455:.\Generated_Source\PSoC5/GPS.c ****                                 *  mask will be returned in LoadRxConfig() API.
 456:.\Generated_Source\PSoC5/GPS.c ****                                 */
 457:.\Generated_Source\PSoC5/GPS.c ****                                 GPS_RXSTATUS_MASK_REG  |= GPS_RX_STS_FIFO_NOTEMPTY;
 458:.\Generated_Source\PSoC5/GPS.c ****                             }
 459:.\Generated_Source\PSoC5/GPS.c ****                         #else
 460:.\Generated_Source\PSoC5/GPS.c ****                             GPS_RXSTATUS_MASK_REG  |= GPS_RX_STS_FIFO_NOTEMPTY;
ARM GAS  C:\Users\javier\AppData\Local\Temp\ccsAAitb.s 			page 18


 461:.\Generated_Source\PSoC5/GPS.c ****                         #endif /* end GPS_HD_ENABLED */
 462:.\Generated_Source\PSoC5/GPS.c ****                     #endif /* GPS_RX_INTERRUPT_ENABLED and Hardware flow control*/
 463:.\Generated_Source\PSoC5/GPS.c ****                 }
 464:.\Generated_Source\PSoC5/GPS.c ****             }
 465:.\Generated_Source\PSoC5/GPS.c ****             else
 466:.\Generated_Source\PSoC5/GPS.c ****             {   /* Needs to check status for RX_STS_FIFO_NOTEMPTY bit*/
 467:.\Generated_Source\PSoC5/GPS.c ****                 rxData = GPS_RXDATA_REG;
 509              		.loc 1 467 0
 510 0088 46F24553 		movw	r3, #25925
 511 008c C4F20003 		movt	r3, 16384
 512 0090 1B78     		ldrb	r3, [r3, #0]
 513 0092 FB71     		strb	r3, [r7, #7]
 514              	.L17:
 468:.\Generated_Source\PSoC5/GPS.c ****             }
 469:.\Generated_Source\PSoC5/GPS.c **** 
 470:.\Generated_Source\PSoC5/GPS.c ****             /* Enable Rx interrupt. */
 471:.\Generated_Source\PSoC5/GPS.c ****             #if(GPS_RX_INTERRUPT_ENABLED)
 472:.\Generated_Source\PSoC5/GPS.c ****                 GPS_EnableRxInt();
 515              		.loc 1 472 0
 516 0094 FFF7FEFF 		bl	GPS_EnableRxInt
 473:.\Generated_Source\PSoC5/GPS.c ****             #endif /* End GPS_RX_INTERRUPT_ENABLED */
 474:.\Generated_Source\PSoC5/GPS.c **** 
 475:.\Generated_Source\PSoC5/GPS.c ****         #else /* GPS_RXBUFFERSIZE > GPS_FIFO_LENGTH */
 476:.\Generated_Source\PSoC5/GPS.c **** 
 477:.\Generated_Source\PSoC5/GPS.c ****             /* Needs to check status for RX_STS_FIFO_NOTEMPTY bit*/
 478:.\Generated_Source\PSoC5/GPS.c ****             rxData = GPS_RXDATA_REG;
 479:.\Generated_Source\PSoC5/GPS.c **** 
 480:.\Generated_Source\PSoC5/GPS.c ****         #endif /* GPS_RXBUFFERSIZE > GPS_FIFO_LENGTH */
 481:.\Generated_Source\PSoC5/GPS.c **** 
 482:.\Generated_Source\PSoC5/GPS.c ****         return(rxData);
 517              		.loc 1 482 0
 518 0098 FB79     		ldrb	r3, [r7, #7]	@ zero_extendqisi2
 483:.\Generated_Source\PSoC5/GPS.c ****     }
 519              		.loc 1 483 0
 520 009a 1846     		mov	r0, r3
 521 009c 07F10807 		add	r7, r7, #8
 522 00a0 BD46     		mov	sp, r7
 523 00a2 80BD     		pop	{r7, pc}
 524              		.cfi_endproc
 525              	.LFE9:
 526              		.size	GPS_ReadRxData, .-GPS_ReadRxData
 527              		.section	.text.GPS_ReadRxStatus,"ax",%progbits
 528              		.align	2
 529              		.global	GPS_ReadRxStatus
 530              		.thumb
 531              		.thumb_func
 532              		.type	GPS_ReadRxStatus, %function
 533              	GPS_ReadRxStatus:
 534              	.LFB10:
 484:.\Generated_Source\PSoC5/GPS.c **** 
 485:.\Generated_Source\PSoC5/GPS.c **** 
 486:.\Generated_Source\PSoC5/GPS.c ****     /*******************************************************************************
 487:.\Generated_Source\PSoC5/GPS.c ****     * Function Name: GPS_ReadRxStatus
 488:.\Generated_Source\PSoC5/GPS.c ****     ********************************************************************************
 489:.\Generated_Source\PSoC5/GPS.c ****     *
 490:.\Generated_Source\PSoC5/GPS.c ****     * Summary:
 491:.\Generated_Source\PSoC5/GPS.c ****     *  Read the current state of the status register
ARM GAS  C:\Users\javier\AppData\Local\Temp\ccsAAitb.s 			page 19


 492:.\Generated_Source\PSoC5/GPS.c ****     *  And detect software buffer overflow.
 493:.\Generated_Source\PSoC5/GPS.c ****     *
 494:.\Generated_Source\PSoC5/GPS.c ****     * Parameters:
 495:.\Generated_Source\PSoC5/GPS.c ****     *  None.
 496:.\Generated_Source\PSoC5/GPS.c ****     *
 497:.\Generated_Source\PSoC5/GPS.c ****     * Return:
 498:.\Generated_Source\PSoC5/GPS.c ****     *  Current state of the status register.
 499:.\Generated_Source\PSoC5/GPS.c ****     *
 500:.\Generated_Source\PSoC5/GPS.c ****     * Global Variables:
 501:.\Generated_Source\PSoC5/GPS.c ****     *  GPS_rxBufferOverflow - used to indicate overload condition.
 502:.\Generated_Source\PSoC5/GPS.c ****     *   It set to one in RX interrupt when there isn?t free space in
 503:.\Generated_Source\PSoC5/GPS.c ****     *   GPS_rxBufferRead to write new data. This condition returned
 504:.\Generated_Source\PSoC5/GPS.c ****     *   and cleared to zero by this API as an
 505:.\Generated_Source\PSoC5/GPS.c ****     *   GPS_RX_STS_SOFT_BUFF_OVER bit along with RX Status register
 506:.\Generated_Source\PSoC5/GPS.c ****     *   bits.
 507:.\Generated_Source\PSoC5/GPS.c ****     *
 508:.\Generated_Source\PSoC5/GPS.c ****     *******************************************************************************/
 509:.\Generated_Source\PSoC5/GPS.c ****     uint8 GPS_ReadRxStatus(void) 
 510:.\Generated_Source\PSoC5/GPS.c ****     {
 535              		.loc 1 510 0
 536              		.cfi_startproc
 537              		@ args = 0, pretend = 0, frame = 8
 538              		@ frame_needed = 1, uses_anonymous_args = 0
 539              		@ link register save eliminated.
 540 0000 80B4     		push	{r7}
 541              	.LCFI25:
 542              		.cfi_def_cfa_offset 4
 543              		.cfi_offset 7, -4
 544 0002 83B0     		sub	sp, sp, #12
 545              	.LCFI26:
 546              		.cfi_def_cfa_offset 16
 547 0004 00AF     		add	r7, sp, #0
 548              	.LCFI27:
 549              		.cfi_def_cfa_register 7
 511:.\Generated_Source\PSoC5/GPS.c ****         uint8 status;
 512:.\Generated_Source\PSoC5/GPS.c **** 
 513:.\Generated_Source\PSoC5/GPS.c ****         status = GPS_RXSTATUS_REG & GPS_RX_HW_MASK;
 550              		.loc 1 513 0
 551 0006 46F26653 		movw	r3, #25958
 552 000a C4F20003 		movt	r3, 16384
 553 000e 1B78     		ldrb	r3, [r3, #0]
 554 0010 DBB2     		uxtb	r3, r3
 555 0012 03F07F03 		and	r3, r3, #127
 556 0016 FB71     		strb	r3, [r7, #7]
 514:.\Generated_Source\PSoC5/GPS.c **** 
 515:.\Generated_Source\PSoC5/GPS.c ****         #if(GPS_RXBUFFERSIZE > GPS_FIFO_LENGTH)
 516:.\Generated_Source\PSoC5/GPS.c ****             if( GPS_rxBufferOverflow != 0u )
 557              		.loc 1 516 0
 558 0018 40F20003 		movw	r3, #:lower16:GPS_rxBufferOverflow
 559 001c C0F20003 		movt	r3, #:upper16:GPS_rxBufferOverflow
 560 0020 1B78     		ldrb	r3, [r3, #0]
 561 0022 DBB2     		uxtb	r3, r3
 562 0024 002B     		cmp	r3, #0
 563 0026 0AD0     		beq	.L20
 517:.\Generated_Source\PSoC5/GPS.c ****             {
 518:.\Generated_Source\PSoC5/GPS.c ****                 status |= GPS_RX_STS_SOFT_BUFF_OVER;
 564              		.loc 1 518 0
ARM GAS  C:\Users\javier\AppData\Local\Temp\ccsAAitb.s 			page 20


 565 0028 FB79     		ldrb	r3, [r7, #7]
 566 002a 63F07F03 		orn	r3, r3, #127
 567 002e FB71     		strb	r3, [r7, #7]
 519:.\Generated_Source\PSoC5/GPS.c ****                 GPS_rxBufferOverflow = 0u;
 568              		.loc 1 519 0
 569 0030 40F20003 		movw	r3, #:lower16:GPS_rxBufferOverflow
 570 0034 C0F20003 		movt	r3, #:upper16:GPS_rxBufferOverflow
 571 0038 4FF00002 		mov	r2, #0
 572 003c 1A70     		strb	r2, [r3, #0]
 573              	.L20:
 520:.\Generated_Source\PSoC5/GPS.c ****             }
 521:.\Generated_Source\PSoC5/GPS.c ****         #endif /* GPS_RXBUFFERSIZE */
 522:.\Generated_Source\PSoC5/GPS.c **** 
 523:.\Generated_Source\PSoC5/GPS.c ****         return(status);
 574              		.loc 1 523 0
 575 003e FB79     		ldrb	r3, [r7, #7]	@ zero_extendqisi2
 524:.\Generated_Source\PSoC5/GPS.c ****     }
 576              		.loc 1 524 0
 577 0040 1846     		mov	r0, r3
 578 0042 07F10C07 		add	r7, r7, #12
 579 0046 BD46     		mov	sp, r7
 580 0048 80BC     		pop	{r7}
 581 004a 7047     		bx	lr
 582              		.cfi_endproc
 583              	.LFE10:
 584              		.size	GPS_ReadRxStatus, .-GPS_ReadRxStatus
 585              		.section	.text.GPS_GetChar,"ax",%progbits
 586              		.align	2
 587              		.global	GPS_GetChar
 588              		.thumb
 589              		.thumb_func
 590              		.type	GPS_GetChar, %function
 591              	GPS_GetChar:
 592              	.LFB11:
 525:.\Generated_Source\PSoC5/GPS.c **** 
 526:.\Generated_Source\PSoC5/GPS.c **** 
 527:.\Generated_Source\PSoC5/GPS.c ****     /*******************************************************************************
 528:.\Generated_Source\PSoC5/GPS.c ****     * Function Name: GPS_GetChar
 529:.\Generated_Source\PSoC5/GPS.c ****     ********************************************************************************
 530:.\Generated_Source\PSoC5/GPS.c ****     *
 531:.\Generated_Source\PSoC5/GPS.c ****     * Summary:
 532:.\Generated_Source\PSoC5/GPS.c ****     *  Reads UART RX buffer immediately, if data is not available or an error
 533:.\Generated_Source\PSoC5/GPS.c ****     *  condition exists, zero is returned; otherwise, character is read and
 534:.\Generated_Source\PSoC5/GPS.c ****     *  returned.
 535:.\Generated_Source\PSoC5/GPS.c ****     *
 536:.\Generated_Source\PSoC5/GPS.c ****     * Parameters:
 537:.\Generated_Source\PSoC5/GPS.c ****     *  None.
 538:.\Generated_Source\PSoC5/GPS.c ****     *
 539:.\Generated_Source\PSoC5/GPS.c ****     * Return:
 540:.\Generated_Source\PSoC5/GPS.c ****     *  Character read from UART RX buffer. ASCII characters from 1 to 255 are valid.
 541:.\Generated_Source\PSoC5/GPS.c ****     *  A returned zero signifies an error condition or no data available.
 542:.\Generated_Source\PSoC5/GPS.c ****     *
 543:.\Generated_Source\PSoC5/GPS.c ****     * Global Variables:
 544:.\Generated_Source\PSoC5/GPS.c ****     *  GPS_rxBuffer - RAM buffer pointer for save received data.
 545:.\Generated_Source\PSoC5/GPS.c ****     *  GPS_rxBufferWrite - cyclic index for write to rxBuffer,
 546:.\Generated_Source\PSoC5/GPS.c ****     *     checked to identify new data.
 547:.\Generated_Source\PSoC5/GPS.c ****     *  GPS_rxBufferRead - cyclic index for read from rxBuffer,
ARM GAS  C:\Users\javier\AppData\Local\Temp\ccsAAitb.s 			page 21


 548:.\Generated_Source\PSoC5/GPS.c ****     *     incremented after each byte has been read from buffer.
 549:.\Generated_Source\PSoC5/GPS.c ****     *  GPS_rxBufferLoopDetect - creared if loop condition was detected
 550:.\Generated_Source\PSoC5/GPS.c ****     *     in RX ISR.
 551:.\Generated_Source\PSoC5/GPS.c ****     *
 552:.\Generated_Source\PSoC5/GPS.c ****     * Reentrant:
 553:.\Generated_Source\PSoC5/GPS.c ****     *  No.
 554:.\Generated_Source\PSoC5/GPS.c ****     *
 555:.\Generated_Source\PSoC5/GPS.c ****     *******************************************************************************/
 556:.\Generated_Source\PSoC5/GPS.c ****     uint8 GPS_GetChar(void) 
 557:.\Generated_Source\PSoC5/GPS.c ****     {
 593              		.loc 1 557 0
 594              		.cfi_startproc
 595              		@ args = 0, pretend = 0, frame = 8
 596              		@ frame_needed = 1, uses_anonymous_args = 0
 597 0000 80B5     		push	{r7, lr}
 598              	.LCFI28:
 599              		.cfi_def_cfa_offset 8
 600              		.cfi_offset 7, -8
 601              		.cfi_offset 14, -4
 602 0002 82B0     		sub	sp, sp, #8
 603              	.LCFI29:
 604              		.cfi_def_cfa_offset 16
 605 0004 00AF     		add	r7, sp, #0
 606              	.LCFI30:
 607              		.cfi_def_cfa_register 7
 558:.\Generated_Source\PSoC5/GPS.c ****         uint8 rxData = 0u;
 608              		.loc 1 558 0
 609 0006 4FF00003 		mov	r3, #0
 610 000a FB71     		strb	r3, [r7, #7]
 559:.\Generated_Source\PSoC5/GPS.c ****         uint8 rxStatus;
 560:.\Generated_Source\PSoC5/GPS.c **** 
 561:.\Generated_Source\PSoC5/GPS.c ****         #if(GPS_RXBUFFERSIZE > GPS_FIFO_LENGTH)
 562:.\Generated_Source\PSoC5/GPS.c ****             uint8 loc_rxBufferRead;
 563:.\Generated_Source\PSoC5/GPS.c ****             uint8 loc_rxBufferWrite;
 564:.\Generated_Source\PSoC5/GPS.c ****             /* Protect variables that could change on interrupt. */
 565:.\Generated_Source\PSoC5/GPS.c ****             /* Disable Rx interrupt. */
 566:.\Generated_Source\PSoC5/GPS.c ****             #if(GPS_RX_INTERRUPT_ENABLED)
 567:.\Generated_Source\PSoC5/GPS.c ****                 GPS_DisableRxInt();
 611              		.loc 1 567 0
 612 000c FFF7FEFF 		bl	GPS_DisableRxInt
 568:.\Generated_Source\PSoC5/GPS.c ****             #endif /* GPS_RX_INTERRUPT_ENABLED */
 569:.\Generated_Source\PSoC5/GPS.c ****             loc_rxBufferRead = GPS_rxBufferRead;
 613              		.loc 1 569 0
 614 0010 40F20003 		movw	r3, #:lower16:GPS_rxBufferRead
 615 0014 C0F20003 		movt	r3, #:upper16:GPS_rxBufferRead
 616 0018 1B78     		ldrb	r3, [r3, #0]
 617 001a BB71     		strb	r3, [r7, #6]
 570:.\Generated_Source\PSoC5/GPS.c ****             loc_rxBufferWrite = GPS_rxBufferWrite;
 618              		.loc 1 570 0
 619 001c 40F20003 		movw	r3, #:lower16:GPS_rxBufferWrite
 620 0020 C0F20003 		movt	r3, #:upper16:GPS_rxBufferWrite
 621 0024 1B78     		ldrb	r3, [r3, #0]
 622 0026 7B71     		strb	r3, [r7, #5]
 571:.\Generated_Source\PSoC5/GPS.c **** 
 572:.\Generated_Source\PSoC5/GPS.c ****             if( (GPS_rxBufferLoopDetect != 0u) || (loc_rxBufferRead != loc_rxBufferWrite) )
 623              		.loc 1 572 0
 624 0028 40F20003 		movw	r3, #:lower16:GPS_rxBufferLoopDetect
ARM GAS  C:\Users\javier\AppData\Local\Temp\ccsAAitb.s 			page 22


 625 002c C0F20003 		movt	r3, #:upper16:GPS_rxBufferLoopDetect
 626 0030 1B78     		ldrb	r3, [r3, #0]
 627 0032 DBB2     		uxtb	r3, r3
 628 0034 002B     		cmp	r3, #0
 629 0036 03D1     		bne	.L23
 630              		.loc 1 572 0 is_stmt 0 discriminator 1
 631 0038 BA79     		ldrb	r2, [r7, #6]	@ zero_extendqisi2
 632 003a 7B79     		ldrb	r3, [r7, #5]	@ zero_extendqisi2
 633 003c 9A42     		cmp	r2, r3
 634 003e 26D0     		beq	.L24
 635              	.L23:
 573:.\Generated_Source\PSoC5/GPS.c ****             {
 574:.\Generated_Source\PSoC5/GPS.c ****                 rxData = GPS_rxBuffer[loc_rxBufferRead];
 636              		.loc 1 574 0 is_stmt 1
 637 0040 BA79     		ldrb	r2, [r7, #6]	@ zero_extendqisi2
 638 0042 40F20003 		movw	r3, #:lower16:GPS_rxBuffer
 639 0046 C0F20003 		movt	r3, #:upper16:GPS_rxBuffer
 640 004a 9B5C     		ldrb	r3, [r3, r2]
 641 004c FB71     		strb	r3, [r7, #7]
 575:.\Generated_Source\PSoC5/GPS.c ****                 loc_rxBufferRead++;
 642              		.loc 1 575 0
 643 004e BB79     		ldrb	r3, [r7, #6]
 644 0050 03F10103 		add	r3, r3, #1
 645 0054 BB71     		strb	r3, [r7, #6]
 576:.\Generated_Source\PSoC5/GPS.c ****                 if(loc_rxBufferRead >= GPS_RXBUFFERSIZE)
 646              		.loc 1 576 0
 647 0056 BB79     		ldrb	r3, [r7, #6]	@ zero_extendqisi2
 648 0058 4F2B     		cmp	r3, #79
 649 005a 02D9     		bls	.L25
 577:.\Generated_Source\PSoC5/GPS.c ****                 {
 578:.\Generated_Source\PSoC5/GPS.c ****                     loc_rxBufferRead = 0u;
 650              		.loc 1 578 0
 651 005c 4FF00003 		mov	r3, #0
 652 0060 BB71     		strb	r3, [r7, #6]
 653              	.L25:
 579:.\Generated_Source\PSoC5/GPS.c ****                 }
 580:.\Generated_Source\PSoC5/GPS.c ****                 /* Update the real pointer */
 581:.\Generated_Source\PSoC5/GPS.c ****                 GPS_rxBufferRead = loc_rxBufferRead;
 654              		.loc 1 581 0
 655 0062 40F20003 		movw	r3, #:lower16:GPS_rxBufferRead
 656 0066 C0F20003 		movt	r3, #:upper16:GPS_rxBufferRead
 657 006a BA79     		ldrb	r2, [r7, #6]
 658 006c 1A70     		strb	r2, [r3, #0]
 582:.\Generated_Source\PSoC5/GPS.c **** 
 583:.\Generated_Source\PSoC5/GPS.c ****                 if(GPS_rxBufferLoopDetect > 0u )
 659              		.loc 1 583 0
 660 006e 40F20003 		movw	r3, #:lower16:GPS_rxBufferLoopDetect
 661 0072 C0F20003 		movt	r3, #:upper16:GPS_rxBufferLoopDetect
 662 0076 1B78     		ldrb	r3, [r3, #0]
 663 0078 DBB2     		uxtb	r3, r3
 664 007a 002B     		cmp	r3, #0
 665 007c 20D0     		beq	.L27
 584:.\Generated_Source\PSoC5/GPS.c ****                 {
 585:.\Generated_Source\PSoC5/GPS.c ****                     GPS_rxBufferLoopDetect = 0u;
 666              		.loc 1 585 0
 667 007e 40F20003 		movw	r3, #:lower16:GPS_rxBufferLoopDetect
 668 0082 C0F20003 		movt	r3, #:upper16:GPS_rxBufferLoopDetect
ARM GAS  C:\Users\javier\AppData\Local\Temp\ccsAAitb.s 			page 23


 669 0086 4FF00002 		mov	r2, #0
 670 008a 1A70     		strb	r2, [r3, #0]
 583:.\Generated_Source\PSoC5/GPS.c ****                 if(GPS_rxBufferLoopDetect > 0u )
 671              		.loc 1 583 0
 672 008c 18E0     		b	.L27
 673              	.L24:
 586:.\Generated_Source\PSoC5/GPS.c ****                     #if( (GPS_RX_INTERRUPT_ENABLED) && (GPS_FLOW_CONTROL != 0u) )
 587:.\Generated_Source\PSoC5/GPS.c ****                         /* When Hardware Flow Control selected - return RX mask */
 588:.\Generated_Source\PSoC5/GPS.c ****                         #if( GPS_HD_ENABLED )
 589:.\Generated_Source\PSoC5/GPS.c ****                             if((GPS_CONTROL_REG & GPS_CTRL_HD_SEND) == 0u)
 590:.\Generated_Source\PSoC5/GPS.c ****                             {   /* In Half duplex mode return RX mask only if
 591:.\Generated_Source\PSoC5/GPS.c ****                                 *  RX configuration set, otherwise
 592:.\Generated_Source\PSoC5/GPS.c ****                                 *  mask will be returned in LoadRxConfig() API.
 593:.\Generated_Source\PSoC5/GPS.c ****                                 */
 594:.\Generated_Source\PSoC5/GPS.c ****                                 GPS_RXSTATUS_MASK_REG  |= GPS_RX_STS_FIFO_NOTEMPTY;
 595:.\Generated_Source\PSoC5/GPS.c ****                             }
 596:.\Generated_Source\PSoC5/GPS.c ****                         #else
 597:.\Generated_Source\PSoC5/GPS.c ****                             GPS_RXSTATUS_MASK_REG  |= GPS_RX_STS_FIFO_NOTEMPTY;
 598:.\Generated_Source\PSoC5/GPS.c ****                         #endif /* end GPS_HD_ENABLED */
 599:.\Generated_Source\PSoC5/GPS.c ****                     #endif /* GPS_RX_INTERRUPT_ENABLED and Hardware flow control*/
 600:.\Generated_Source\PSoC5/GPS.c ****                 }
 601:.\Generated_Source\PSoC5/GPS.c **** 
 602:.\Generated_Source\PSoC5/GPS.c ****             }
 603:.\Generated_Source\PSoC5/GPS.c ****             else
 604:.\Generated_Source\PSoC5/GPS.c ****             {   rxStatus = GPS_RXSTATUS_REG;
 674              		.loc 1 604 0
 675 008e 46F26653 		movw	r3, #25958
 676 0092 C4F20003 		movt	r3, 16384
 677 0096 1B78     		ldrb	r3, [r3, #0]
 678 0098 3B71     		strb	r3, [r7, #4]
 605:.\Generated_Source\PSoC5/GPS.c ****                 if((rxStatus & GPS_RX_STS_FIFO_NOTEMPTY) != 0u)
 679              		.loc 1 605 0
 680 009a 3B79     		ldrb	r3, [r7, #4]	@ zero_extendqisi2
 681 009c 03F02003 		and	r3, r3, #32
 682 00a0 002B     		cmp	r3, #0
 683 00a2 0DD0     		beq	.L27
 606:.\Generated_Source\PSoC5/GPS.c ****                 {   /* Read received data from FIFO*/
 607:.\Generated_Source\PSoC5/GPS.c ****                     rxData = GPS_RXDATA_REG;
 684              		.loc 1 607 0
 685 00a4 46F24553 		movw	r3, #25925
 686 00a8 C4F20003 		movt	r3, 16384
 687 00ac 1B78     		ldrb	r3, [r3, #0]
 688 00ae FB71     		strb	r3, [r7, #7]
 608:.\Generated_Source\PSoC5/GPS.c ****                     /*Check status on error*/
 609:.\Generated_Source\PSoC5/GPS.c ****                     if((rxStatus & (GPS_RX_STS_BREAK | GPS_RX_STS_PAR_ERROR |
 610:.\Generated_Source\PSoC5/GPS.c ****                                    GPS_RX_STS_STOP_ERROR | GPS_RX_STS_OVERRUN)) != 0u)
 689              		.loc 1 610 0
 690 00b0 3B79     		ldrb	r3, [r7, #4]	@ zero_extendqisi2
 691 00b2 03F01E03 		and	r3, r3, #30
 609:.\Generated_Source\PSoC5/GPS.c ****                     if((rxStatus & (GPS_RX_STS_BREAK | GPS_RX_STS_PAR_ERROR |
 692              		.loc 1 609 0
 693 00b6 002B     		cmp	r3, #0
 694 00b8 02D0     		beq	.L27
 611:.\Generated_Source\PSoC5/GPS.c ****                     {
 612:.\Generated_Source\PSoC5/GPS.c ****                         rxData = 0u;
 695              		.loc 1 612 0
 696 00ba 4FF00003 		mov	r3, #0
ARM GAS  C:\Users\javier\AppData\Local\Temp\ccsAAitb.s 			page 24


 697 00be FB71     		strb	r3, [r7, #7]
 698              	.L27:
 613:.\Generated_Source\PSoC5/GPS.c ****                     }
 614:.\Generated_Source\PSoC5/GPS.c ****                 }
 615:.\Generated_Source\PSoC5/GPS.c ****             }
 616:.\Generated_Source\PSoC5/GPS.c **** 
 617:.\Generated_Source\PSoC5/GPS.c ****             /* Enable Rx interrupt. */
 618:.\Generated_Source\PSoC5/GPS.c ****             #if(GPS_RX_INTERRUPT_ENABLED)
 619:.\Generated_Source\PSoC5/GPS.c ****                 GPS_EnableRxInt();
 699              		.loc 1 619 0
 700 00c0 FFF7FEFF 		bl	GPS_EnableRxInt
 620:.\Generated_Source\PSoC5/GPS.c ****             #endif /* GPS_RX_INTERRUPT_ENABLED */
 621:.\Generated_Source\PSoC5/GPS.c **** 
 622:.\Generated_Source\PSoC5/GPS.c ****         #else /* GPS_RXBUFFERSIZE > GPS_FIFO_LENGTH */
 623:.\Generated_Source\PSoC5/GPS.c **** 
 624:.\Generated_Source\PSoC5/GPS.c ****             rxStatus =GPS_RXSTATUS_REG;
 625:.\Generated_Source\PSoC5/GPS.c ****             if((rxStatus & GPS_RX_STS_FIFO_NOTEMPTY) != 0u)
 626:.\Generated_Source\PSoC5/GPS.c ****             {   /* Read received data from FIFO*/
 627:.\Generated_Source\PSoC5/GPS.c ****                 rxData = GPS_RXDATA_REG;
 628:.\Generated_Source\PSoC5/GPS.c ****                 /*Check status on error*/
 629:.\Generated_Source\PSoC5/GPS.c ****                 if((rxStatus & (GPS_RX_STS_BREAK | GPS_RX_STS_PAR_ERROR |
 630:.\Generated_Source\PSoC5/GPS.c ****                                GPS_RX_STS_STOP_ERROR | GPS_RX_STS_OVERRUN)) != 0u)
 631:.\Generated_Source\PSoC5/GPS.c ****                 {
 632:.\Generated_Source\PSoC5/GPS.c ****                     rxData = 0u;
 633:.\Generated_Source\PSoC5/GPS.c ****                 }
 634:.\Generated_Source\PSoC5/GPS.c ****             }
 635:.\Generated_Source\PSoC5/GPS.c ****         #endif /* GPS_RXBUFFERSIZE > GPS_FIFO_LENGTH */
 636:.\Generated_Source\PSoC5/GPS.c **** 
 637:.\Generated_Source\PSoC5/GPS.c ****         return(rxData);
 701              		.loc 1 637 0
 702 00c4 FB79     		ldrb	r3, [r7, #7]	@ zero_extendqisi2
 638:.\Generated_Source\PSoC5/GPS.c ****     }
 703              		.loc 1 638 0
 704 00c6 1846     		mov	r0, r3
 705 00c8 07F10807 		add	r7, r7, #8
 706 00cc BD46     		mov	sp, r7
 707 00ce 80BD     		pop	{r7, pc}
 708              		.cfi_endproc
 709              	.LFE11:
 710              		.size	GPS_GetChar, .-GPS_GetChar
 711              		.section	.text.GPS_GetByte,"ax",%progbits
 712              		.align	2
 713              		.global	GPS_GetByte
 714              		.thumb
 715              		.thumb_func
 716              		.type	GPS_GetByte, %function
 717              	GPS_GetByte:
 718              	.LFB12:
 639:.\Generated_Source\PSoC5/GPS.c **** 
 640:.\Generated_Source\PSoC5/GPS.c **** 
 641:.\Generated_Source\PSoC5/GPS.c ****     /*******************************************************************************
 642:.\Generated_Source\PSoC5/GPS.c ****     * Function Name: GPS_GetByte
 643:.\Generated_Source\PSoC5/GPS.c ****     ********************************************************************************
 644:.\Generated_Source\PSoC5/GPS.c ****     *
 645:.\Generated_Source\PSoC5/GPS.c ****     * Summary:
 646:.\Generated_Source\PSoC5/GPS.c ****     *  Grab the next available byte of data from the recieve FIFO
 647:.\Generated_Source\PSoC5/GPS.c ****     *
ARM GAS  C:\Users\javier\AppData\Local\Temp\ccsAAitb.s 			page 25


 648:.\Generated_Source\PSoC5/GPS.c ****     * Parameters:
 649:.\Generated_Source\PSoC5/GPS.c ****     *  None.
 650:.\Generated_Source\PSoC5/GPS.c ****     *
 651:.\Generated_Source\PSoC5/GPS.c ****     * Return:
 652:.\Generated_Source\PSoC5/GPS.c ****     *  MSB contains Status Register and LSB contains UART RX data
 653:.\Generated_Source\PSoC5/GPS.c ****     *
 654:.\Generated_Source\PSoC5/GPS.c ****     * Reentrant:
 655:.\Generated_Source\PSoC5/GPS.c ****     *  No.
 656:.\Generated_Source\PSoC5/GPS.c ****     *
 657:.\Generated_Source\PSoC5/GPS.c ****     *******************************************************************************/
 658:.\Generated_Source\PSoC5/GPS.c ****     uint16 GPS_GetByte(void) 
 659:.\Generated_Source\PSoC5/GPS.c ****     {
 719              		.loc 1 659 0
 720              		.cfi_startproc
 721              		@ args = 0, pretend = 0, frame = 0
 722              		@ frame_needed = 1, uses_anonymous_args = 0
 723 0000 98B5     		push	{r3, r4, r7, lr}
 724              	.LCFI31:
 725              		.cfi_def_cfa_offset 16
 726              		.cfi_offset 3, -16
 727              		.cfi_offset 4, -12
 728              		.cfi_offset 7, -8
 729              		.cfi_offset 14, -4
 730 0002 00AF     		add	r7, sp, #0
 731              	.LCFI32:
 732              		.cfi_def_cfa_register 7
 660:.\Generated_Source\PSoC5/GPS.c ****         return ( ((uint16)GPS_ReadRxStatus() << 8u) | GPS_ReadRxData() );
 733              		.loc 1 660 0
 734 0004 FFF7FEFF 		bl	GPS_ReadRxStatus
 735 0008 0346     		mov	r3, r0
 736 000a 4FEA0323 		lsl	r3, r3, #8
 737 000e 9CB2     		uxth	r4, r3
 738 0010 FFF7FEFF 		bl	GPS_ReadRxData
 739 0014 0346     		mov	r3, r0
 740 0016 2246     		mov	r2, r4	@ movhi
 741 0018 1343     		orrs	r3, r3, r2
 742 001a 9BB2     		uxth	r3, r3
 743 001c 9BB2     		uxth	r3, r3
 661:.\Generated_Source\PSoC5/GPS.c ****     }
 744              		.loc 1 661 0
 745 001e 1846     		mov	r0, r3
 746 0020 98BD     		pop	{r3, r4, r7, pc}
 747              		.cfi_endproc
 748              	.LFE12:
 749              		.size	GPS_GetByte, .-GPS_GetByte
 750 0022 00BF     		.section	.text.GPS_GetRxBufferSize,"ax",%progbits
 751              		.align	2
 752              		.global	GPS_GetRxBufferSize
 753              		.thumb
 754              		.thumb_func
 755              		.type	GPS_GetRxBufferSize, %function
 756              	GPS_GetRxBufferSize:
 757              	.LFB13:
 662:.\Generated_Source\PSoC5/GPS.c **** 
 663:.\Generated_Source\PSoC5/GPS.c **** 
 664:.\Generated_Source\PSoC5/GPS.c ****     /*******************************************************************************
 665:.\Generated_Source\PSoC5/GPS.c ****     * Function Name: GPS_GetRxBufferSize
ARM GAS  C:\Users\javier\AppData\Local\Temp\ccsAAitb.s 			page 26


 666:.\Generated_Source\PSoC5/GPS.c ****     ********************************************************************************
 667:.\Generated_Source\PSoC5/GPS.c ****     *
 668:.\Generated_Source\PSoC5/GPS.c ****     * Summary:
 669:.\Generated_Source\PSoC5/GPS.c ****     *  Determine the amount of bytes left in the RX buffer and return the count in
 670:.\Generated_Source\PSoC5/GPS.c ****     *  bytes
 671:.\Generated_Source\PSoC5/GPS.c ****     *
 672:.\Generated_Source\PSoC5/GPS.c ****     * Parameters:
 673:.\Generated_Source\PSoC5/GPS.c ****     *  None.
 674:.\Generated_Source\PSoC5/GPS.c ****     *
 675:.\Generated_Source\PSoC5/GPS.c ****     * Return:
 676:.\Generated_Source\PSoC5/GPS.c ****     *  uint8: Integer count of the number of bytes left
 677:.\Generated_Source\PSoC5/GPS.c ****     *  in the RX buffer
 678:.\Generated_Source\PSoC5/GPS.c ****     *
 679:.\Generated_Source\PSoC5/GPS.c ****     * Global Variables:
 680:.\Generated_Source\PSoC5/GPS.c ****     *  GPS_rxBufferWrite - used to calculate left bytes.
 681:.\Generated_Source\PSoC5/GPS.c ****     *  GPS_rxBufferRead - used to calculate left bytes.
 682:.\Generated_Source\PSoC5/GPS.c ****     *  GPS_rxBufferLoopDetect - checked to decide left bytes amount.
 683:.\Generated_Source\PSoC5/GPS.c ****     *
 684:.\Generated_Source\PSoC5/GPS.c ****     * Reentrant:
 685:.\Generated_Source\PSoC5/GPS.c ****     *  No.
 686:.\Generated_Source\PSoC5/GPS.c ****     *
 687:.\Generated_Source\PSoC5/GPS.c ****     * Theory:
 688:.\Generated_Source\PSoC5/GPS.c ****     *  Allows the user to find out how full the RX Buffer is.
 689:.\Generated_Source\PSoC5/GPS.c ****     *
 690:.\Generated_Source\PSoC5/GPS.c ****     *******************************************************************************/
 691:.\Generated_Source\PSoC5/GPS.c ****     uint8 GPS_GetRxBufferSize(void)
 692:.\Generated_Source\PSoC5/GPS.c ****                                                             
 693:.\Generated_Source\PSoC5/GPS.c ****     {
 758              		.loc 1 693 0
 759              		.cfi_startproc
 760              		@ args = 0, pretend = 0, frame = 8
 761              		@ frame_needed = 1, uses_anonymous_args = 0
 762 0000 80B5     		push	{r7, lr}
 763              	.LCFI33:
 764              		.cfi_def_cfa_offset 8
 765              		.cfi_offset 7, -8
 766              		.cfi_offset 14, -4
 767 0002 82B0     		sub	sp, sp, #8
 768              	.LCFI34:
 769              		.cfi_def_cfa_offset 16
 770 0004 00AF     		add	r7, sp, #0
 771              	.LCFI35:
 772              		.cfi_def_cfa_register 7
 694:.\Generated_Source\PSoC5/GPS.c ****         uint8 size;
 695:.\Generated_Source\PSoC5/GPS.c **** 
 696:.\Generated_Source\PSoC5/GPS.c ****         #if(GPS_RXBUFFERSIZE > GPS_FIFO_LENGTH)
 697:.\Generated_Source\PSoC5/GPS.c **** 
 698:.\Generated_Source\PSoC5/GPS.c ****             /* Disable Rx interrupt. */
 699:.\Generated_Source\PSoC5/GPS.c ****             /* Protect variables that could change on interrupt. */
 700:.\Generated_Source\PSoC5/GPS.c ****             #if(GPS_RX_INTERRUPT_ENABLED)
 701:.\Generated_Source\PSoC5/GPS.c ****                 GPS_DisableRxInt();
 773              		.loc 1 701 0
 774 0006 FFF7FEFF 		bl	GPS_DisableRxInt
 702:.\Generated_Source\PSoC5/GPS.c ****             #endif /* GPS_RX_INTERRUPT_ENABLED */
 703:.\Generated_Source\PSoC5/GPS.c **** 
 704:.\Generated_Source\PSoC5/GPS.c ****             if(GPS_rxBufferRead == GPS_rxBufferWrite)
 775              		.loc 1 704 0
ARM GAS  C:\Users\javier\AppData\Local\Temp\ccsAAitb.s 			page 27


 776 000a 40F20003 		movw	r3, #:lower16:GPS_rxBufferRead
 777 000e C0F20003 		movt	r3, #:upper16:GPS_rxBufferRead
 778 0012 1B78     		ldrb	r3, [r3, #0]
 779 0014 DAB2     		uxtb	r2, r3
 780 0016 40F20003 		movw	r3, #:lower16:GPS_rxBufferWrite
 781 001a C0F20003 		movt	r3, #:upper16:GPS_rxBufferWrite
 782 001e 1B78     		ldrb	r3, [r3, #0]
 783 0020 DBB2     		uxtb	r3, r3
 784 0022 9A42     		cmp	r2, r3
 785 0024 0FD1     		bne	.L32
 705:.\Generated_Source\PSoC5/GPS.c ****             {
 706:.\Generated_Source\PSoC5/GPS.c ****                 if(GPS_rxBufferLoopDetect > 0u)
 786              		.loc 1 706 0
 787 0026 40F20003 		movw	r3, #:lower16:GPS_rxBufferLoopDetect
 788 002a C0F20003 		movt	r3, #:upper16:GPS_rxBufferLoopDetect
 789 002e 1B78     		ldrb	r3, [r3, #0]
 790 0030 DBB2     		uxtb	r3, r3
 791 0032 002B     		cmp	r3, #0
 792 0034 03D0     		beq	.L33
 707:.\Generated_Source\PSoC5/GPS.c ****                 {
 708:.\Generated_Source\PSoC5/GPS.c ****                     size = GPS_RXBUFFERSIZE;
 793              		.loc 1 708 0
 794 0036 4FF05003 		mov	r3, #80
 795 003a FB71     		strb	r3, [r7, #7]
 796 003c 31E0     		b	.L34
 797              	.L33:
 709:.\Generated_Source\PSoC5/GPS.c ****                 }
 710:.\Generated_Source\PSoC5/GPS.c ****                 else
 711:.\Generated_Source\PSoC5/GPS.c ****                 {
 712:.\Generated_Source\PSoC5/GPS.c ****                     size = 0u;
 798              		.loc 1 712 0
 799 003e 4FF00003 		mov	r3, #0
 800 0042 FB71     		strb	r3, [r7, #7]
 801 0044 2DE0     		b	.L34
 802              	.L32:
 713:.\Generated_Source\PSoC5/GPS.c ****                 }
 714:.\Generated_Source\PSoC5/GPS.c ****             }
 715:.\Generated_Source\PSoC5/GPS.c ****             else if(GPS_rxBufferRead < GPS_rxBufferWrite)
 803              		.loc 1 715 0
 804 0046 40F20003 		movw	r3, #:lower16:GPS_rxBufferRead
 805 004a C0F20003 		movt	r3, #:upper16:GPS_rxBufferRead
 806 004e 1B78     		ldrb	r3, [r3, #0]
 807 0050 DAB2     		uxtb	r2, r3
 808 0052 40F20003 		movw	r3, #:lower16:GPS_rxBufferWrite
 809 0056 C0F20003 		movt	r3, #:upper16:GPS_rxBufferWrite
 810 005a 1B78     		ldrb	r3, [r3, #0]
 811 005c DBB2     		uxtb	r3, r3
 812 005e 9A42     		cmp	r2, r3
 813 0060 0ED2     		bcs	.L35
 716:.\Generated_Source\PSoC5/GPS.c ****             {
 717:.\Generated_Source\PSoC5/GPS.c ****                 size = (GPS_rxBufferWrite - GPS_rxBufferRead);
 814              		.loc 1 717 0
 815 0062 40F20003 		movw	r3, #:lower16:GPS_rxBufferWrite
 816 0066 C0F20003 		movt	r3, #:upper16:GPS_rxBufferWrite
 817 006a 1B78     		ldrb	r3, [r3, #0]
 818 006c DAB2     		uxtb	r2, r3
 819 006e 40F20003 		movw	r3, #:lower16:GPS_rxBufferRead
ARM GAS  C:\Users\javier\AppData\Local\Temp\ccsAAitb.s 			page 28


 820 0072 C0F20003 		movt	r3, #:upper16:GPS_rxBufferRead
 821 0076 1B78     		ldrb	r3, [r3, #0]
 822 0078 DBB2     		uxtb	r3, r3
 823 007a D31A     		subs	r3, r2, r3
 824 007c FB71     		strb	r3, [r7, #7]
 825 007e 10E0     		b	.L34
 826              	.L35:
 718:.\Generated_Source\PSoC5/GPS.c ****             }
 719:.\Generated_Source\PSoC5/GPS.c ****             else
 720:.\Generated_Source\PSoC5/GPS.c ****             {
 721:.\Generated_Source\PSoC5/GPS.c ****                 size = (GPS_RXBUFFERSIZE - GPS_rxBufferRead) + GPS_rxBufferWrite;
 827              		.loc 1 721 0
 828 0080 40F20003 		movw	r3, #:lower16:GPS_rxBufferWrite
 829 0084 C0F20003 		movt	r3, #:upper16:GPS_rxBufferWrite
 830 0088 1B78     		ldrb	r3, [r3, #0]
 831 008a DAB2     		uxtb	r2, r3
 832 008c 40F20003 		movw	r3, #:lower16:GPS_rxBufferRead
 833 0090 C0F20003 		movt	r3, #:upper16:GPS_rxBufferRead
 834 0094 1B78     		ldrb	r3, [r3, #0]
 835 0096 DBB2     		uxtb	r3, r3
 836 0098 D31A     		subs	r3, r2, r3
 837 009a DBB2     		uxtb	r3, r3
 838 009c 03F15003 		add	r3, r3, #80
 839 00a0 FB71     		strb	r3, [r7, #7]
 840              	.L34:
 722:.\Generated_Source\PSoC5/GPS.c ****             }
 723:.\Generated_Source\PSoC5/GPS.c **** 
 724:.\Generated_Source\PSoC5/GPS.c ****             /* Enable Rx interrupt. */
 725:.\Generated_Source\PSoC5/GPS.c ****             #if(GPS_RX_INTERRUPT_ENABLED)
 726:.\Generated_Source\PSoC5/GPS.c ****                 GPS_EnableRxInt();
 841              		.loc 1 726 0
 842 00a2 FFF7FEFF 		bl	GPS_EnableRxInt
 727:.\Generated_Source\PSoC5/GPS.c ****             #endif /* End GPS_RX_INTERRUPT_ENABLED */
 728:.\Generated_Source\PSoC5/GPS.c **** 
 729:.\Generated_Source\PSoC5/GPS.c ****         #else /* GPS_RXBUFFERSIZE > GPS_FIFO_LENGTH */
 730:.\Generated_Source\PSoC5/GPS.c **** 
 731:.\Generated_Source\PSoC5/GPS.c ****             /* We can only know if there is data in the fifo. */
 732:.\Generated_Source\PSoC5/GPS.c ****             size = ((GPS_RXSTATUS_REG & GPS_RX_STS_FIFO_NOTEMPTY) != 0u) ? 1u : 0u;
 733:.\Generated_Source\PSoC5/GPS.c **** 
 734:.\Generated_Source\PSoC5/GPS.c ****         #endif /* End GPS_RXBUFFERSIZE > GPS_FIFO_LENGTH */
 735:.\Generated_Source\PSoC5/GPS.c **** 
 736:.\Generated_Source\PSoC5/GPS.c ****         return(size);
 843              		.loc 1 736 0
 844 00a6 FB79     		ldrb	r3, [r7, #7]	@ zero_extendqisi2
 737:.\Generated_Source\PSoC5/GPS.c ****     }
 845              		.loc 1 737 0
 846 00a8 1846     		mov	r0, r3
 847 00aa 07F10807 		add	r7, r7, #8
 848 00ae BD46     		mov	sp, r7
 849 00b0 80BD     		pop	{r7, pc}
 850              		.cfi_endproc
 851              	.LFE13:
 852              		.size	GPS_GetRxBufferSize, .-GPS_GetRxBufferSize
 853 00b2 00BF     		.section	.text.GPS_ClearRxBuffer,"ax",%progbits
 854              		.align	2
 855              		.global	GPS_ClearRxBuffer
 856              		.thumb
ARM GAS  C:\Users\javier\AppData\Local\Temp\ccsAAitb.s 			page 29


 857              		.thumb_func
 858              		.type	GPS_ClearRxBuffer, %function
 859              	GPS_ClearRxBuffer:
 860              	.LFB14:
 738:.\Generated_Source\PSoC5/GPS.c **** 
 739:.\Generated_Source\PSoC5/GPS.c **** 
 740:.\Generated_Source\PSoC5/GPS.c ****     /*******************************************************************************
 741:.\Generated_Source\PSoC5/GPS.c ****     * Function Name: GPS_ClearRxBuffer
 742:.\Generated_Source\PSoC5/GPS.c ****     ********************************************************************************
 743:.\Generated_Source\PSoC5/GPS.c ****     *
 744:.\Generated_Source\PSoC5/GPS.c ****     * Summary:
 745:.\Generated_Source\PSoC5/GPS.c ****     *  Clears the RX RAM buffer by setting the read and write pointers both to zero.
 746:.\Generated_Source\PSoC5/GPS.c ****     *  Clears hardware RX FIFO.
 747:.\Generated_Source\PSoC5/GPS.c ****     *
 748:.\Generated_Source\PSoC5/GPS.c ****     * Parameters:
 749:.\Generated_Source\PSoC5/GPS.c ****     *  None.
 750:.\Generated_Source\PSoC5/GPS.c ****     *
 751:.\Generated_Source\PSoC5/GPS.c ****     * Return:
 752:.\Generated_Source\PSoC5/GPS.c ****     *  None.
 753:.\Generated_Source\PSoC5/GPS.c ****     *
 754:.\Generated_Source\PSoC5/GPS.c ****     * Global Variables:
 755:.\Generated_Source\PSoC5/GPS.c ****     *  GPS_rxBufferWrite - cleared to zero.
 756:.\Generated_Source\PSoC5/GPS.c ****     *  GPS_rxBufferRead - cleared to zero.
 757:.\Generated_Source\PSoC5/GPS.c ****     *  GPS_rxBufferLoopDetect - cleared to zero.
 758:.\Generated_Source\PSoC5/GPS.c ****     *  GPS_rxBufferOverflow - cleared to zero.
 759:.\Generated_Source\PSoC5/GPS.c ****     *
 760:.\Generated_Source\PSoC5/GPS.c ****     * Reentrant:
 761:.\Generated_Source\PSoC5/GPS.c ****     *  No.
 762:.\Generated_Source\PSoC5/GPS.c ****     *
 763:.\Generated_Source\PSoC5/GPS.c ****     * Theory:
 764:.\Generated_Source\PSoC5/GPS.c ****     *  Setting the pointers to zero makes the system believe there is no data to
 765:.\Generated_Source\PSoC5/GPS.c ****     *  read and writing will resume at address 0 overwriting any data that may
 766:.\Generated_Source\PSoC5/GPS.c ****     *  have remained in the RAM.
 767:.\Generated_Source\PSoC5/GPS.c ****     *
 768:.\Generated_Source\PSoC5/GPS.c ****     * Side Effects:
 769:.\Generated_Source\PSoC5/GPS.c ****     *  Any received data not read from the RAM or FIFO buffer will be lost.
 770:.\Generated_Source\PSoC5/GPS.c ****     *******************************************************************************/
 771:.\Generated_Source\PSoC5/GPS.c ****     void GPS_ClearRxBuffer(void) 
 772:.\Generated_Source\PSoC5/GPS.c ****     {
 861              		.loc 1 772 0
 862              		.cfi_startproc
 863              		@ args = 0, pretend = 0, frame = 8
 864              		@ frame_needed = 1, uses_anonymous_args = 0
 865 0000 80B5     		push	{r7, lr}
 866              	.LCFI36:
 867              		.cfi_def_cfa_offset 8
 868              		.cfi_offset 7, -8
 869              		.cfi_offset 14, -4
 870 0002 82B0     		sub	sp, sp, #8
 871              	.LCFI37:
 872              		.cfi_def_cfa_offset 16
 873 0004 00AF     		add	r7, sp, #0
 874              	.LCFI38:
 875              		.cfi_def_cfa_register 7
 773:.\Generated_Source\PSoC5/GPS.c ****         uint8 enableInterrupts;
 774:.\Generated_Source\PSoC5/GPS.c **** 
 775:.\Generated_Source\PSoC5/GPS.c ****         /* clear the HW FIFO */
ARM GAS  C:\Users\javier\AppData\Local\Temp\ccsAAitb.s 			page 30


 776:.\Generated_Source\PSoC5/GPS.c ****         /* Enter critical section */
 777:.\Generated_Source\PSoC5/GPS.c ****         enableInterrupts = CyEnterCriticalSection();
 876              		.loc 1 777 0
 877 0006 FFF7FEFF 		bl	CyEnterCriticalSection
 878 000a 0346     		mov	r3, r0
 879 000c FB71     		strb	r3, [r7, #7]
 778:.\Generated_Source\PSoC5/GPS.c ****         GPS_RXDATA_AUX_CTL_REG |=  GPS_RX_FIFO_CLR;
 880              		.loc 1 778 0
 881 000e 46F29553 		movw	r3, #26005
 882 0012 C4F20003 		movt	r3, 16384
 883 0016 46F29552 		movw	r2, #26005
 884 001a C4F20002 		movt	r2, 16384
 885 001e 1278     		ldrb	r2, [r2, #0]
 886 0020 D2B2     		uxtb	r2, r2
 887 0022 42F00102 		orr	r2, r2, #1
 888 0026 D2B2     		uxtb	r2, r2
 889 0028 1A70     		strb	r2, [r3, #0]
 779:.\Generated_Source\PSoC5/GPS.c ****         GPS_RXDATA_AUX_CTL_REG &= (uint8)~GPS_RX_FIFO_CLR;
 890              		.loc 1 779 0
 891 002a 46F29553 		movw	r3, #26005
 892 002e C4F20003 		movt	r3, 16384
 893 0032 46F29552 		movw	r2, #26005
 894 0036 C4F20002 		movt	r2, 16384
 895 003a 1278     		ldrb	r2, [r2, #0]
 896 003c D2B2     		uxtb	r2, r2
 897 003e 22F00102 		bic	r2, r2, #1
 898 0042 D2B2     		uxtb	r2, r2
 899 0044 1A70     		strb	r2, [r3, #0]
 780:.\Generated_Source\PSoC5/GPS.c ****         /* Exit critical section */
 781:.\Generated_Source\PSoC5/GPS.c ****         CyExitCriticalSection(enableInterrupts);
 900              		.loc 1 781 0
 901 0046 FB79     		ldrb	r3, [r7, #7]	@ zero_extendqisi2
 902 0048 1846     		mov	r0, r3
 903 004a FFF7FEFF 		bl	CyExitCriticalSection
 782:.\Generated_Source\PSoC5/GPS.c **** 
 783:.\Generated_Source\PSoC5/GPS.c ****         #if(GPS_RXBUFFERSIZE > GPS_FIFO_LENGTH)
 784:.\Generated_Source\PSoC5/GPS.c ****             /* Disable Rx interrupt. */
 785:.\Generated_Source\PSoC5/GPS.c ****             /* Protect variables that could change on interrupt. */
 786:.\Generated_Source\PSoC5/GPS.c ****             #if(GPS_RX_INTERRUPT_ENABLED)
 787:.\Generated_Source\PSoC5/GPS.c ****                 GPS_DisableRxInt();
 904              		.loc 1 787 0
 905 004e FFF7FEFF 		bl	GPS_DisableRxInt
 788:.\Generated_Source\PSoC5/GPS.c ****             #endif /* End GPS_RX_INTERRUPT_ENABLED */
 789:.\Generated_Source\PSoC5/GPS.c **** 
 790:.\Generated_Source\PSoC5/GPS.c ****             GPS_rxBufferRead = 0u;
 906              		.loc 1 790 0
 907 0052 40F20003 		movw	r3, #:lower16:GPS_rxBufferRead
 908 0056 C0F20003 		movt	r3, #:upper16:GPS_rxBufferRead
 909 005a 4FF00002 		mov	r2, #0
 910 005e 1A70     		strb	r2, [r3, #0]
 791:.\Generated_Source\PSoC5/GPS.c ****             GPS_rxBufferWrite = 0u;
 911              		.loc 1 791 0
 912 0060 40F20003 		movw	r3, #:lower16:GPS_rxBufferWrite
 913 0064 C0F20003 		movt	r3, #:upper16:GPS_rxBufferWrite
 914 0068 4FF00002 		mov	r2, #0
 915 006c 1A70     		strb	r2, [r3, #0]
 792:.\Generated_Source\PSoC5/GPS.c ****             GPS_rxBufferLoopDetect = 0u;
ARM GAS  C:\Users\javier\AppData\Local\Temp\ccsAAitb.s 			page 31


 916              		.loc 1 792 0
 917 006e 40F20003 		movw	r3, #:lower16:GPS_rxBufferLoopDetect
 918 0072 C0F20003 		movt	r3, #:upper16:GPS_rxBufferLoopDetect
 919 0076 4FF00002 		mov	r2, #0
 920 007a 1A70     		strb	r2, [r3, #0]
 793:.\Generated_Source\PSoC5/GPS.c ****             GPS_rxBufferOverflow = 0u;
 921              		.loc 1 793 0
 922 007c 40F20003 		movw	r3, #:lower16:GPS_rxBufferOverflow
 923 0080 C0F20003 		movt	r3, #:upper16:GPS_rxBufferOverflow
 924 0084 4FF00002 		mov	r2, #0
 925 0088 1A70     		strb	r2, [r3, #0]
 794:.\Generated_Source\PSoC5/GPS.c **** 
 795:.\Generated_Source\PSoC5/GPS.c ****             /* Enable Rx interrupt. */
 796:.\Generated_Source\PSoC5/GPS.c ****             #if(GPS_RX_INTERRUPT_ENABLED)
 797:.\Generated_Source\PSoC5/GPS.c ****                 GPS_EnableRxInt();
 926              		.loc 1 797 0
 927 008a FFF7FEFF 		bl	GPS_EnableRxInt
 798:.\Generated_Source\PSoC5/GPS.c ****             #endif /* End GPS_RX_INTERRUPT_ENABLED */
 799:.\Generated_Source\PSoC5/GPS.c ****         #endif /* End GPS_RXBUFFERSIZE > GPS_FIFO_LENGTH */
 800:.\Generated_Source\PSoC5/GPS.c **** 
 801:.\Generated_Source\PSoC5/GPS.c ****     }
 928              		.loc 1 801 0
 929 008e 07F10807 		add	r7, r7, #8
 930 0092 BD46     		mov	sp, r7
 931 0094 80BD     		pop	{r7, pc}
 932              		.cfi_endproc
 933              	.LFE14:
 934              		.size	GPS_ClearRxBuffer, .-GPS_ClearRxBuffer
 935 0096 00BF     		.section	.text.GPS_SetRxAddressMode,"ax",%progbits
 936              		.align	2
 937              		.global	GPS_SetRxAddressMode
 938              		.thumb
 939              		.thumb_func
 940              		.type	GPS_SetRxAddressMode, %function
 941              	GPS_SetRxAddressMode:
 942              	.LFB15:
 802:.\Generated_Source\PSoC5/GPS.c **** 
 803:.\Generated_Source\PSoC5/GPS.c **** 
 804:.\Generated_Source\PSoC5/GPS.c ****     /*******************************************************************************
 805:.\Generated_Source\PSoC5/GPS.c ****     * Function Name: GPS_SetRxAddressMode
 806:.\Generated_Source\PSoC5/GPS.c ****     ********************************************************************************
 807:.\Generated_Source\PSoC5/GPS.c ****     *
 808:.\Generated_Source\PSoC5/GPS.c ****     * Summary:
 809:.\Generated_Source\PSoC5/GPS.c ****     *  Set the receive addressing mode
 810:.\Generated_Source\PSoC5/GPS.c ****     *
 811:.\Generated_Source\PSoC5/GPS.c ****     * Parameters:
 812:.\Generated_Source\PSoC5/GPS.c ****     *  addressMode: Enumerated value indicating the mode of RX addressing
 813:.\Generated_Source\PSoC5/GPS.c ****     *  GPS__B_UART__AM_SW_BYTE_BYTE -  Software Byte-by-Byte address
 814:.\Generated_Source\PSoC5/GPS.c ****     *                                               detection
 815:.\Generated_Source\PSoC5/GPS.c ****     *  GPS__B_UART__AM_SW_DETECT_TO_BUFFER - Software Detect to Buffer
 816:.\Generated_Source\PSoC5/GPS.c ****     *                                               address detection
 817:.\Generated_Source\PSoC5/GPS.c ****     *  GPS__B_UART__AM_HW_BYTE_BY_BYTE - Hardware Byte-by-Byte address
 818:.\Generated_Source\PSoC5/GPS.c ****     *                                               detection
 819:.\Generated_Source\PSoC5/GPS.c ****     *  GPS__B_UART__AM_HW_DETECT_TO_BUFFER - Hardware Detect to Buffer
 820:.\Generated_Source\PSoC5/GPS.c ****     *                                               address detection
 821:.\Generated_Source\PSoC5/GPS.c ****     *  GPS__B_UART__AM_NONE - No address detection
 822:.\Generated_Source\PSoC5/GPS.c ****     *
ARM GAS  C:\Users\javier\AppData\Local\Temp\ccsAAitb.s 			page 32


 823:.\Generated_Source\PSoC5/GPS.c ****     * Return:
 824:.\Generated_Source\PSoC5/GPS.c ****     *  None.
 825:.\Generated_Source\PSoC5/GPS.c ****     *
 826:.\Generated_Source\PSoC5/GPS.c ****     * Global Variables:
 827:.\Generated_Source\PSoC5/GPS.c ****     *  GPS_rxAddressMode - the parameter stored in this variable for
 828:.\Generated_Source\PSoC5/GPS.c ****     *   the farther usage in RX ISR.
 829:.\Generated_Source\PSoC5/GPS.c ****     *  GPS_rxAddressDetected - set to initial state (0).
 830:.\Generated_Source\PSoC5/GPS.c ****     *
 831:.\Generated_Source\PSoC5/GPS.c ****     *******************************************************************************/
 832:.\Generated_Source\PSoC5/GPS.c ****     void GPS_SetRxAddressMode(uint8 addressMode)
 833:.\Generated_Source\PSoC5/GPS.c ****                                                         
 834:.\Generated_Source\PSoC5/GPS.c ****     {
 943              		.loc 1 834 0
 944              		.cfi_startproc
 945              		@ args = 0, pretend = 0, frame = 8
 946              		@ frame_needed = 1, uses_anonymous_args = 0
 947              		@ link register save eliminated.
 948 0000 80B4     		push	{r7}
 949              	.LCFI39:
 950              		.cfi_def_cfa_offset 4
 951              		.cfi_offset 7, -4
 952 0002 83B0     		sub	sp, sp, #12
 953              	.LCFI40:
 954              		.cfi_def_cfa_offset 16
 955 0004 00AF     		add	r7, sp, #0
 956              	.LCFI41:
 957              		.cfi_def_cfa_register 7
 958 0006 0346     		mov	r3, r0
 959 0008 FB71     		strb	r3, [r7, #7]
 835:.\Generated_Source\PSoC5/GPS.c ****         #if(GPS_RXHW_ADDRESS_ENABLED)
 836:.\Generated_Source\PSoC5/GPS.c ****             #if(GPS_CONTROL_REG_REMOVED)
 837:.\Generated_Source\PSoC5/GPS.c ****                 if(addressMode != 0u) { }     /* release compiler warning */
 838:.\Generated_Source\PSoC5/GPS.c ****             #else /* GPS_CONTROL_REG_REMOVED */
 839:.\Generated_Source\PSoC5/GPS.c ****                 uint8 tmpCtrl;
 840:.\Generated_Source\PSoC5/GPS.c ****                 tmpCtrl = GPS_CONTROL_REG & (uint8)~GPS_CTRL_RXADDR_MODE_MASK;
 841:.\Generated_Source\PSoC5/GPS.c ****                 tmpCtrl |= (uint8)(addressMode << GPS_CTRL_RXADDR_MODE0_SHIFT);
 842:.\Generated_Source\PSoC5/GPS.c ****                 GPS_CONTROL_REG = tmpCtrl;
 843:.\Generated_Source\PSoC5/GPS.c ****                 #if(GPS_RX_INTERRUPT_ENABLED && \
 844:.\Generated_Source\PSoC5/GPS.c ****                    (GPS_RXBUFFERSIZE > GPS_FIFO_LENGTH) )
 845:.\Generated_Source\PSoC5/GPS.c ****                     GPS_rxAddressMode = addressMode;
 846:.\Generated_Source\PSoC5/GPS.c ****                     GPS_rxAddressDetected = 0u;
 847:.\Generated_Source\PSoC5/GPS.c ****                 #endif /* End GPS_RXBUFFERSIZE > GPS_FIFO_LENGTH*/
 848:.\Generated_Source\PSoC5/GPS.c ****             #endif /* End GPS_CONTROL_REG_REMOVED */
 849:.\Generated_Source\PSoC5/GPS.c ****         #else /* GPS_RXHW_ADDRESS_ENABLED */
 850:.\Generated_Source\PSoC5/GPS.c ****             if(addressMode != 0u) { }     /* release compiler warning */
 851:.\Generated_Source\PSoC5/GPS.c ****         #endif /* End GPS_RXHW_ADDRESS_ENABLED */
 852:.\Generated_Source\PSoC5/GPS.c ****     }
 960              		.loc 1 852 0
 961 000a 07F10C07 		add	r7, r7, #12
 962 000e BD46     		mov	sp, r7
 963 0010 80BC     		pop	{r7}
 964 0012 7047     		bx	lr
 965              		.cfi_endproc
 966              	.LFE15:
 967              		.size	GPS_SetRxAddressMode, .-GPS_SetRxAddressMode
 968              		.section	.text.GPS_SetRxAddress1,"ax",%progbits
 969              		.align	2
ARM GAS  C:\Users\javier\AppData\Local\Temp\ccsAAitb.s 			page 33


 970              		.global	GPS_SetRxAddress1
 971              		.thumb
 972              		.thumb_func
 973              		.type	GPS_SetRxAddress1, %function
 974              	GPS_SetRxAddress1:
 975              	.LFB16:
 853:.\Generated_Source\PSoC5/GPS.c **** 
 854:.\Generated_Source\PSoC5/GPS.c **** 
 855:.\Generated_Source\PSoC5/GPS.c ****     /*******************************************************************************
 856:.\Generated_Source\PSoC5/GPS.c ****     * Function Name: GPS_SetRxAddress1
 857:.\Generated_Source\PSoC5/GPS.c ****     ********************************************************************************
 858:.\Generated_Source\PSoC5/GPS.c ****     *
 859:.\Generated_Source\PSoC5/GPS.c ****     * Summary:
 860:.\Generated_Source\PSoC5/GPS.c ****     *  Set the first hardware address compare value
 861:.\Generated_Source\PSoC5/GPS.c ****     *
 862:.\Generated_Source\PSoC5/GPS.c ****     * Parameters:
 863:.\Generated_Source\PSoC5/GPS.c ****     *  address
 864:.\Generated_Source\PSoC5/GPS.c ****     *
 865:.\Generated_Source\PSoC5/GPS.c ****     * Return:
 866:.\Generated_Source\PSoC5/GPS.c ****     *  None.
 867:.\Generated_Source\PSoC5/GPS.c ****     *
 868:.\Generated_Source\PSoC5/GPS.c ****     *******************************************************************************/
 869:.\Generated_Source\PSoC5/GPS.c ****     void GPS_SetRxAddress1(uint8 address) 
 870:.\Generated_Source\PSoC5/GPS.c **** 
 871:.\Generated_Source\PSoC5/GPS.c ****     {
 976              		.loc 1 871 0
 977              		.cfi_startproc
 978              		@ args = 0, pretend = 0, frame = 8
 979              		@ frame_needed = 1, uses_anonymous_args = 0
 980              		@ link register save eliminated.
 981 0000 80B4     		push	{r7}
 982              	.LCFI42:
 983              		.cfi_def_cfa_offset 4
 984              		.cfi_offset 7, -4
 985 0002 83B0     		sub	sp, sp, #12
 986              	.LCFI43:
 987              		.cfi_def_cfa_offset 16
 988 0004 00AF     		add	r7, sp, #0
 989              	.LCFI44:
 990              		.cfi_def_cfa_register 7
 991 0006 0346     		mov	r3, r0
 992 0008 FB71     		strb	r3, [r7, #7]
 872:.\Generated_Source\PSoC5/GPS.c ****         GPS_RXADDRESS1_REG = address;
 993              		.loc 1 872 0
 994 000a 46F22553 		movw	r3, #25893
 995 000e C4F20003 		movt	r3, 16384
 996 0012 FA79     		ldrb	r2, [r7, #7]
 997 0014 1A70     		strb	r2, [r3, #0]
 873:.\Generated_Source\PSoC5/GPS.c ****     }
 998              		.loc 1 873 0
 999 0016 07F10C07 		add	r7, r7, #12
 1000 001a BD46     		mov	sp, r7
 1001 001c 80BC     		pop	{r7}
 1002 001e 7047     		bx	lr
 1003              		.cfi_endproc
 1004              	.LFE16:
 1005              		.size	GPS_SetRxAddress1, .-GPS_SetRxAddress1
ARM GAS  C:\Users\javier\AppData\Local\Temp\ccsAAitb.s 			page 34


 1006              		.section	.text.GPS_SetRxAddress2,"ax",%progbits
 1007              		.align	2
 1008              		.global	GPS_SetRxAddress2
 1009              		.thumb
 1010              		.thumb_func
 1011              		.type	GPS_SetRxAddress2, %function
 1012              	GPS_SetRxAddress2:
 1013              	.LFB17:
 874:.\Generated_Source\PSoC5/GPS.c **** 
 875:.\Generated_Source\PSoC5/GPS.c **** 
 876:.\Generated_Source\PSoC5/GPS.c ****     /*******************************************************************************
 877:.\Generated_Source\PSoC5/GPS.c ****     * Function Name: GPS_SetRxAddress2
 878:.\Generated_Source\PSoC5/GPS.c ****     ********************************************************************************
 879:.\Generated_Source\PSoC5/GPS.c ****     *
 880:.\Generated_Source\PSoC5/GPS.c ****     * Summary:
 881:.\Generated_Source\PSoC5/GPS.c ****     *  Set the second hardware address compare value
 882:.\Generated_Source\PSoC5/GPS.c ****     *
 883:.\Generated_Source\PSoC5/GPS.c ****     * Parameters:
 884:.\Generated_Source\PSoC5/GPS.c ****     *  address
 885:.\Generated_Source\PSoC5/GPS.c ****     *
 886:.\Generated_Source\PSoC5/GPS.c ****     * Return:
 887:.\Generated_Source\PSoC5/GPS.c ****     *  None.
 888:.\Generated_Source\PSoC5/GPS.c ****     *
 889:.\Generated_Source\PSoC5/GPS.c ****     *******************************************************************************/
 890:.\Generated_Source\PSoC5/GPS.c ****     void GPS_SetRxAddress2(uint8 address) 
 891:.\Generated_Source\PSoC5/GPS.c ****     {
 1014              		.loc 1 891 0
 1015              		.cfi_startproc
 1016              		@ args = 0, pretend = 0, frame = 8
 1017              		@ frame_needed = 1, uses_anonymous_args = 0
 1018              		@ link register save eliminated.
 1019 0000 80B4     		push	{r7}
 1020              	.LCFI45:
 1021              		.cfi_def_cfa_offset 4
 1022              		.cfi_offset 7, -4
 1023 0002 83B0     		sub	sp, sp, #12
 1024              	.LCFI46:
 1025              		.cfi_def_cfa_offset 16
 1026 0004 00AF     		add	r7, sp, #0
 1027              	.LCFI47:
 1028              		.cfi_def_cfa_register 7
 1029 0006 0346     		mov	r3, r0
 1030 0008 FB71     		strb	r3, [r7, #7]
 892:.\Generated_Source\PSoC5/GPS.c ****         GPS_RXADDRESS2_REG = address;
 1031              		.loc 1 892 0
 1032 000a 46F23553 		movw	r3, #25909
 1033 000e C4F20003 		movt	r3, 16384
 1034 0012 FA79     		ldrb	r2, [r7, #7]
 1035 0014 1A70     		strb	r2, [r3, #0]
 893:.\Generated_Source\PSoC5/GPS.c ****     }
 1036              		.loc 1 893 0
 1037 0016 07F10C07 		add	r7, r7, #12
 1038 001a BD46     		mov	sp, r7
 1039 001c 80BC     		pop	{r7}
 1040 001e 7047     		bx	lr
 1041              		.cfi_endproc
 1042              	.LFE17:
ARM GAS  C:\Users\javier\AppData\Local\Temp\ccsAAitb.s 			page 35


 1043              		.size	GPS_SetRxAddress2, .-GPS_SetRxAddress2
 1044              		.text
 1045              	.Letext0:
 1046              		.file 2 ".\\Generated_Source\\PSoC5\\cytypes.h"
 1047              		.section	.debug_info,"",%progbits
 1048              	.Ldebug_info0:
 1049 0000 35040000 		.4byte	0x435
 1050 0004 0200     		.2byte	0x2
 1051 0006 00000000 		.4byte	.Ldebug_abbrev0
 1052 000a 04       		.byte	0x4
 1053 000b 01       		.uleb128 0x1
 1054 000c 06000000 		.4byte	.LASF53
 1055 0010 01       		.byte	0x1
 1056 0011 2F020000 		.4byte	.LASF54
 1057 0015 AE020000 		.4byte	.LASF55
 1058 0019 00000000 		.4byte	.Ldebug_ranges0+0
 1059 001d 00000000 		.4byte	0
 1060 0021 00000000 		.4byte	0
 1061 0025 00000000 		.4byte	.Ldebug_line0
 1062 0029 02       		.uleb128 0x2
 1063 002a 01       		.byte	0x1
 1064 002b 06       		.byte	0x6
 1065 002c 16030000 		.4byte	.LASF0
 1066 0030 02       		.uleb128 0x2
 1067 0031 01       		.byte	0x1
 1068 0032 08       		.byte	0x8
 1069 0033 66010000 		.4byte	.LASF1
 1070 0037 02       		.uleb128 0x2
 1071 0038 02       		.byte	0x2
 1072 0039 05       		.byte	0x5
 1073 003a 9B020000 		.4byte	.LASF2
 1074 003e 02       		.uleb128 0x2
 1075 003f 02       		.byte	0x2
 1076 0040 07       		.byte	0x7
 1077 0041 93000000 		.4byte	.LASF3
 1078 0045 02       		.uleb128 0x2
 1079 0046 04       		.byte	0x4
 1080 0047 05       		.byte	0x5
 1081 0048 75000000 		.4byte	.LASF4
 1082 004c 02       		.uleb128 0x2
 1083 004d 04       		.byte	0x4
 1084 004e 07       		.byte	0x7
 1085 004f 1D010000 		.4byte	.LASF5
 1086 0053 02       		.uleb128 0x2
 1087 0054 08       		.byte	0x8
 1088 0055 05       		.byte	0x5
 1089 0056 4E020000 		.4byte	.LASF6
 1090 005a 02       		.uleb128 0x2
 1091 005b 08       		.byte	0x8
 1092 005c 07       		.byte	0x7
 1093 005d FA010000 		.4byte	.LASF7
 1094 0061 03       		.uleb128 0x3
 1095 0062 04       		.byte	0x4
 1096 0063 05       		.byte	0x5
 1097 0064 696E7400 		.ascii	"int\000"
 1098 0068 02       		.uleb128 0x2
 1099 0069 04       		.byte	0x4
ARM GAS  C:\Users\javier\AppData\Local\Temp\ccsAAitb.s 			page 36


 1100 006a 07       		.byte	0x7
 1101 006b D4010000 		.4byte	.LASF8
 1102 006f 04       		.uleb128 0x4
 1103 0070 2F010000 		.4byte	.LASF9
 1104 0074 02       		.byte	0x2
 1105 0075 5B       		.byte	0x5b
 1106 0076 30000000 		.4byte	0x30
 1107 007a 04       		.uleb128 0x4
 1108 007b 97010000 		.4byte	.LASF10
 1109 007f 02       		.byte	0x2
 1110 0080 5C       		.byte	0x5c
 1111 0081 3E000000 		.4byte	0x3e
 1112 0085 04       		.uleb128 0x4
 1113 0086 B6010000 		.4byte	.LASF11
 1114 008a 02       		.byte	0x2
 1115 008b 5D       		.byte	0x5d
 1116 008c 4C000000 		.4byte	0x4c
 1117 0090 02       		.uleb128 0x2
 1118 0091 04       		.byte	0x4
 1119 0092 04       		.byte	0x4
 1120 0093 BC000000 		.4byte	.LASF12
 1121 0097 02       		.uleb128 0x2
 1122 0098 08       		.byte	0x8
 1123 0099 04       		.byte	0x4
 1124 009a 74010000 		.4byte	.LASF13
 1125 009e 02       		.uleb128 0x2
 1126 009f 01       		.byte	0x1
 1127 00a0 08       		.byte	0x8
 1128 00a1 6E020000 		.4byte	.LASF14
 1129 00a5 04       		.uleb128 0x4
 1130 00a6 21020000 		.4byte	.LASF15
 1131 00aa 02       		.byte	0x2
 1132 00ab F0       		.byte	0xf0
 1133 00ac B0000000 		.4byte	0xb0
 1134 00b0 05       		.uleb128 0x5
 1135 00b1 6F000000 		.4byte	0x6f
 1136 00b5 04       		.uleb128 0x4
 1137 00b6 00000000 		.4byte	.LASF16
 1138 00ba 02       		.byte	0x2
 1139 00bb F2       		.byte	0xf2
 1140 00bc C0000000 		.4byte	0xc0
 1141 00c0 05       		.uleb128 0x5
 1142 00c1 85000000 		.4byte	0x85
 1143 00c5 02       		.uleb128 0x2
 1144 00c6 04       		.byte	0x4
 1145 00c7 07       		.byte	0x7
 1146 00c8 26020000 		.4byte	.LASF17
 1147 00cc 06       		.uleb128 0x6
 1148 00cd 01       		.byte	0x1
 1149 00ce EA000000 		.4byte	.LASF18
 1150 00d2 01       		.byte	0x1
 1151 00d3 49       		.byte	0x49
 1152 00d4 01       		.byte	0x1
 1153 00d5 00000000 		.4byte	.LFB0
 1154 00d9 2A000000 		.4byte	.LFE0
 1155 00dd 00000000 		.4byte	.LLST0
 1156 00e1 01       		.byte	0x1
ARM GAS  C:\Users\javier\AppData\Local\Temp\ccsAAitb.s 			page 37


 1157 00e2 06       		.uleb128 0x6
 1158 00e3 01       		.byte	0x1
 1159 00e4 A5020000 		.4byte	.LASF19
 1160 00e8 01       		.byte	0x1
 1161 00e9 65       		.byte	0x65
 1162 00ea 01       		.byte	0x1
 1163 00eb 00000000 		.4byte	.LFB1
 1164 00ef 3E000000 		.4byte	.LFE1
 1165 00f3 2C000000 		.4byte	.LLST1
 1166 00f7 01       		.byte	0x1
 1167 00f8 07       		.uleb128 0x7
 1168 00f9 01       		.byte	0x1
 1169 00fa CE000000 		.4byte	.LASF20
 1170 00fe 01       		.byte	0x1
 1171 00ff AE       		.byte	0xae
 1172 0100 01       		.byte	0x1
 1173 0101 00000000 		.4byte	.LFB2
 1174 0105 68000000 		.4byte	.LFE2
 1175 0109 58000000 		.4byte	.LLST2
 1176 010d 01       		.byte	0x1
 1177 010e 21010000 		.4byte	0x121
 1178 0112 08       		.uleb128 0x8
 1179 0113 55010000 		.4byte	.LASF22
 1180 0117 01       		.byte	0x1
 1181 0118 B0       		.byte	0xb0
 1182 0119 6F000000 		.4byte	0x6f
 1183 011d 02       		.byte	0x2
 1184 011e 91       		.byte	0x91
 1185 011f 77       		.sleb128 -9
 1186 0120 00       		.byte	0
 1187 0121 07       		.uleb128 0x7
 1188 0122 01       		.byte	0x1
 1189 0123 01030000 		.4byte	.LASF21
 1190 0127 01       		.byte	0x1
 1191 0128 E3       		.byte	0xe3
 1192 0129 01       		.byte	0x1
 1193 012a 00000000 		.4byte	.LFB3
 1194 012e 5E000000 		.4byte	.LFE3
 1195 0132 90000000 		.4byte	.LLST3
 1196 0136 01       		.byte	0x1
 1197 0137 4A010000 		.4byte	0x14a
 1198 013b 08       		.uleb128 0x8
 1199 013c 55010000 		.4byte	.LASF22
 1200 0140 01       		.byte	0x1
 1201 0141 E5       		.byte	0xe5
 1202 0142 6F000000 		.4byte	0x6f
 1203 0146 02       		.byte	0x2
 1204 0147 91       		.byte	0x91
 1205 0148 77       		.sleb128 -9
 1206 0149 00       		.byte	0
 1207 014a 09       		.uleb128 0x9
 1208 014b 01       		.byte	0x1
 1209 014c 9E010000 		.4byte	.LASF37
 1210 0150 01       		.byte	0x1
 1211 0151 1901     		.2byte	0x119
 1212 0153 01       		.byte	0x1
 1213 0154 6F000000 		.4byte	0x6f
ARM GAS  C:\Users\javier\AppData\Local\Temp\ccsAAitb.s 			page 38


 1214 0158 00000000 		.4byte	.LFB4
 1215 015c 10000000 		.4byte	.LFE4
 1216 0160 C8000000 		.4byte	.LLST4
 1217 0164 01       		.byte	0x1
 1218 0165 0A       		.uleb128 0xa
 1219 0166 01       		.byte	0x1
 1220 0167 E1010000 		.4byte	.LASF23
 1221 016b 01       		.byte	0x1
 1222 016c 3101     		.2byte	0x131
 1223 016e 01       		.byte	0x1
 1224 016f 00000000 		.4byte	.LFB5
 1225 0173 14000000 		.4byte	.LFE5
 1226 0177 F4000000 		.4byte	.LLST5
 1227 017b 01       		.byte	0x1
 1228 017c 90010000 		.4byte	0x190
 1229 0180 0B       		.uleb128 0xb
 1230 0181 35010000 		.4byte	.LASF27
 1231 0185 01       		.byte	0x1
 1232 0186 3101     		.2byte	0x131
 1233 0188 6F000000 		.4byte	0x6f
 1234 018c 02       		.byte	0x2
 1235 018d 91       		.byte	0x91
 1236 018e 77       		.sleb128 -9
 1237 018f 00       		.byte	0
 1238 0190 0C       		.uleb128 0xc
 1239 0191 01       		.byte	0x1
 1240 0192 11020000 		.4byte	.LASF24
 1241 0196 01       		.byte	0x1
 1242 0197 5001     		.2byte	0x150
 1243 0199 01       		.byte	0x1
 1244 019a 00000000 		.4byte	.LFB6
 1245 019e 18000000 		.4byte	.LFE6
 1246 01a2 2C010000 		.4byte	.LLST6
 1247 01a6 01       		.byte	0x1
 1248 01a7 0C       		.uleb128 0xc
 1249 01a8 01       		.byte	0x1
 1250 01a9 58030000 		.4byte	.LASF25
 1251 01ad 01       		.byte	0x1
 1252 01ae 6701     		.2byte	0x167
 1253 01b0 01       		.byte	0x1
 1254 01b1 00000000 		.4byte	.LFB7
 1255 01b5 18000000 		.4byte	.LFE7
 1256 01b9 58010000 		.4byte	.LLST7
 1257 01bd 01       		.byte	0x1
 1258 01be 0A       		.uleb128 0xa
 1259 01bf 01       		.byte	0x1
 1260 01c0 BD010000 		.4byte	.LASF26
 1261 01c4 01       		.byte	0x1
 1262 01c5 8101     		.2byte	0x181
 1263 01c7 01       		.byte	0x1
 1264 01c8 00000000 		.4byte	.LFB8
 1265 01cc 20000000 		.4byte	.LFE8
 1266 01d0 84010000 		.4byte	.LLST8
 1267 01d4 01       		.byte	0x1
 1268 01d5 E9010000 		.4byte	0x1e9
 1269 01d9 0B       		.uleb128 0xb
 1270 01da 7B010000 		.4byte	.LASF28
ARM GAS  C:\Users\javier\AppData\Local\Temp\ccsAAitb.s 			page 39


 1271 01de 01       		.byte	0x1
 1272 01df 8101     		.2byte	0x181
 1273 01e1 6F000000 		.4byte	0x6f
 1274 01e5 02       		.byte	0x2
 1275 01e6 91       		.byte	0x91
 1276 01e7 77       		.sleb128 -9
 1277 01e8 00       		.byte	0
 1278 01e9 0D       		.uleb128 0xd
 1279 01ea 01       		.byte	0x1
 1280 01eb A6000000 		.4byte	.LASF32
 1281 01ef 01       		.byte	0x1
 1282 01f0 A201     		.2byte	0x1a2
 1283 01f2 01       		.byte	0x1
 1284 01f3 6F000000 		.4byte	0x6f
 1285 01f7 00000000 		.4byte	.LFB9
 1286 01fb A4000000 		.4byte	.LFE9
 1287 01ff BC010000 		.4byte	.LLST9
 1288 0203 01       		.byte	0x1
 1289 0204 36020000 		.4byte	0x236
 1290 0208 0E       		.uleb128 0xe
 1291 0209 4E010000 		.4byte	.LASF29
 1292 020d 01       		.byte	0x1
 1293 020e A401     		.2byte	0x1a4
 1294 0210 6F000000 		.4byte	0x6f
 1295 0214 02       		.byte	0x2
 1296 0215 91       		.byte	0x91
 1297 0216 77       		.sleb128 -9
 1298 0217 0E       		.uleb128 0xe
 1299 0218 8A020000 		.4byte	.LASF30
 1300 021c 01       		.byte	0x1
 1301 021d A701     		.2byte	0x1a7
 1302 021f 6F000000 		.4byte	0x6f
 1303 0223 02       		.byte	0x2
 1304 0224 91       		.byte	0x91
 1305 0225 76       		.sleb128 -10
 1306 0226 0E       		.uleb128 0xe
 1307 0227 EF020000 		.4byte	.LASF31
 1308 022b 01       		.byte	0x1
 1309 022c A801     		.2byte	0x1a8
 1310 022e 6F000000 		.4byte	0x6f
 1311 0232 02       		.byte	0x2
 1312 0233 91       		.byte	0x91
 1313 0234 75       		.sleb128 -11
 1314 0235 00       		.byte	0
 1315 0236 0F       		.uleb128 0xf
 1316 0237 01       		.byte	0x1
 1317 0238 3D010000 		.4byte	.LASF33
 1318 023c 01       		.byte	0x1
 1319 023d FD01     		.2byte	0x1fd
 1320 023f 01       		.byte	0x1
 1321 0240 6F000000 		.4byte	0x6f
 1322 0244 00000000 		.4byte	.LFB10
 1323 0248 4C000000 		.4byte	.LFE10
 1324 024c F4010000 		.4byte	.LLST10
 1325 0250 01       		.byte	0x1
 1326 0251 65020000 		.4byte	0x265
 1327 0255 0E       		.uleb128 0xe
ARM GAS  C:\Users\javier\AppData\Local\Temp\ccsAAitb.s 			page 40


 1328 0256 B5000000 		.4byte	.LASF34
 1329 025a 01       		.byte	0x1
 1330 025b FF01     		.2byte	0x1ff
 1331 025d 6F000000 		.4byte	0x6f
 1332 0261 02       		.byte	0x2
 1333 0262 91       		.byte	0x91
 1334 0263 77       		.sleb128 -9
 1335 0264 00       		.byte	0
 1336 0265 0D       		.uleb128 0xd
 1337 0266 01       		.byte	0x1
 1338 0267 8B010000 		.4byte	.LASF35
 1339 026b 01       		.byte	0x1
 1340 026c 2C02     		.2byte	0x22c
 1341 026e 01       		.byte	0x1
 1342 026f 6F000000 		.4byte	0x6f
 1343 0273 00000000 		.4byte	.LFB11
 1344 0277 D0000000 		.4byte	.LFE11
 1345 027b 2C020000 		.4byte	.LLST11
 1346 027f 01       		.byte	0x1
 1347 0280 C1020000 		.4byte	0x2c1
 1348 0284 0E       		.uleb128 0xe
 1349 0285 4E010000 		.4byte	.LASF29
 1350 0289 01       		.byte	0x1
 1351 028a 2E02     		.2byte	0x22e
 1352 028c 6F000000 		.4byte	0x6f
 1353 0290 02       		.byte	0x2
 1354 0291 91       		.byte	0x91
 1355 0292 77       		.sleb128 -9
 1356 0293 0E       		.uleb128 0xe
 1357 0294 82010000 		.4byte	.LASF36
 1358 0298 01       		.byte	0x1
 1359 0299 2F02     		.2byte	0x22f
 1360 029b 6F000000 		.4byte	0x6f
 1361 029f 02       		.byte	0x2
 1362 02a0 91       		.byte	0x91
 1363 02a1 74       		.sleb128 -12
 1364 02a2 0E       		.uleb128 0xe
 1365 02a3 8A020000 		.4byte	.LASF30
 1366 02a7 01       		.byte	0x1
 1367 02a8 3202     		.2byte	0x232
 1368 02aa 6F000000 		.4byte	0x6f
 1369 02ae 02       		.byte	0x2
 1370 02af 91       		.byte	0x91
 1371 02b0 76       		.sleb128 -10
 1372 02b1 0E       		.uleb128 0xe
 1373 02b2 EF020000 		.4byte	.LASF31
 1374 02b6 01       		.byte	0x1
 1375 02b7 3302     		.2byte	0x233
 1376 02b9 6F000000 		.4byte	0x6f
 1377 02bd 02       		.byte	0x2
 1378 02be 91       		.byte	0x91
 1379 02bf 75       		.sleb128 -11
 1380 02c0 00       		.byte	0
 1381 02c1 10       		.uleb128 0x10
 1382 02c2 01       		.byte	0x1
 1383 02c3 0A030000 		.4byte	.LASF38
 1384 02c7 01       		.byte	0x1
ARM GAS  C:\Users\javier\AppData\Local\Temp\ccsAAitb.s 			page 41


 1385 02c8 9202     		.2byte	0x292
 1386 02ca 01       		.byte	0x1
 1387 02cb 7A000000 		.4byte	0x7a
 1388 02cf 00000000 		.4byte	.LFB12
 1389 02d3 22000000 		.4byte	.LFE12
 1390 02d7 64020000 		.4byte	.LLST12
 1391 02db 01       		.byte	0x1
 1392 02dc 0D       		.uleb128 0xd
 1393 02dd 01       		.byte	0x1
 1394 02de 61000000 		.4byte	.LASF39
 1395 02e2 01       		.byte	0x1
 1396 02e3 B302     		.2byte	0x2b3
 1397 02e5 01       		.byte	0x1
 1398 02e6 6F000000 		.4byte	0x6f
 1399 02ea 00000000 		.4byte	.LFB13
 1400 02ee B2000000 		.4byte	.LFE13
 1401 02f2 90020000 		.4byte	.LLST13
 1402 02f6 01       		.byte	0x1
 1403 02f7 0B030000 		.4byte	0x30b
 1404 02fb 0E       		.uleb128 0xe
 1405 02fc 22030000 		.4byte	.LASF40
 1406 0300 01       		.byte	0x1
 1407 0301 B602     		.2byte	0x2b6
 1408 0303 6F000000 		.4byte	0x6f
 1409 0307 02       		.byte	0x2
 1410 0308 91       		.byte	0x91
 1411 0309 77       		.sleb128 -9
 1412 030a 00       		.byte	0
 1413 030b 11       		.uleb128 0x11
 1414 030c 01       		.byte	0x1
 1415 030d 5C020000 		.4byte	.LASF41
 1416 0311 01       		.byte	0x1
 1417 0312 0303     		.2byte	0x303
 1418 0314 01       		.byte	0x1
 1419 0315 00000000 		.4byte	.LFB14
 1420 0319 96000000 		.4byte	.LFE14
 1421 031d C8020000 		.4byte	.LLST14
 1422 0321 01       		.byte	0x1
 1423 0322 36030000 		.4byte	0x336
 1424 0326 0E       		.uleb128 0xe
 1425 0327 55010000 		.4byte	.LASF22
 1426 032b 01       		.byte	0x1
 1427 032c 0503     		.2byte	0x305
 1428 032e 6F000000 		.4byte	0x6f
 1429 0332 02       		.byte	0x2
 1430 0333 91       		.byte	0x91
 1431 0334 77       		.sleb128 -9
 1432 0335 00       		.byte	0
 1433 0336 0A       		.uleb128 0xa
 1434 0337 01       		.byte	0x1
 1435 0338 00010000 		.4byte	.LASF42
 1436 033c 01       		.byte	0x1
 1437 033d 4003     		.2byte	0x340
 1438 033f 01       		.byte	0x1
 1439 0340 00000000 		.4byte	.LFB15
 1440 0344 14000000 		.4byte	.LFE15
 1441 0348 00030000 		.4byte	.LLST15
ARM GAS  C:\Users\javier\AppData\Local\Temp\ccsAAitb.s 			page 42


 1442 034c 01       		.byte	0x1
 1443 034d 61030000 		.4byte	0x361
 1444 0351 0B       		.uleb128 0xb
 1445 0352 F4000000 		.4byte	.LASF43
 1446 0356 01       		.byte	0x1
 1447 0357 4003     		.2byte	0x340
 1448 0359 6F000000 		.4byte	0x6f
 1449 035d 02       		.byte	0x2
 1450 035e 91       		.byte	0x91
 1451 035f 77       		.sleb128 -9
 1452 0360 00       		.byte	0
 1453 0361 0A       		.uleb128 0xa
 1454 0362 01       		.byte	0x1
 1455 0363 34030000 		.4byte	.LASF44
 1456 0367 01       		.byte	0x1
 1457 0368 6503     		.2byte	0x365
 1458 036a 01       		.byte	0x1
 1459 036b 00000000 		.4byte	.LFB16
 1460 036f 20000000 		.4byte	.LFE16
 1461 0373 38030000 		.4byte	.LLST16
 1462 0377 01       		.byte	0x1
 1463 0378 8C030000 		.4byte	0x38c
 1464 037c 0B       		.uleb128 0xb
 1465 037d 15010000 		.4byte	.LASF45
 1466 0381 01       		.byte	0x1
 1467 0382 6503     		.2byte	0x365
 1468 0384 6F000000 		.4byte	0x6f
 1469 0388 02       		.byte	0x2
 1470 0389 91       		.byte	0x91
 1471 038a 77       		.sleb128 -9
 1472 038b 00       		.byte	0
 1473 038c 0A       		.uleb128 0xa
 1474 038d 01       		.byte	0x1
 1475 038e 46030000 		.4byte	.LASF46
 1476 0392 01       		.byte	0x1
 1477 0393 7A03     		.2byte	0x37a
 1478 0395 01       		.byte	0x1
 1479 0396 00000000 		.4byte	.LFB17
 1480 039a 20000000 		.4byte	.LFE17
 1481 039e 70030000 		.4byte	.LLST17
 1482 03a2 01       		.byte	0x1
 1483 03a3 B7030000 		.4byte	0x3b7
 1484 03a7 0B       		.uleb128 0xb
 1485 03a8 15010000 		.4byte	.LASF45
 1486 03ac 01       		.byte	0x1
 1487 03ad 7A03     		.2byte	0x37a
 1488 03af 6F000000 		.4byte	0x6f
 1489 03b3 02       		.byte	0x2
 1490 03b4 91       		.byte	0x91
 1491 03b5 77       		.sleb128 -9
 1492 03b6 00       		.byte	0
 1493 03b7 12       		.uleb128 0x12
 1494 03b8 C2000000 		.4byte	.LASF47
 1495 03bc 01       		.byte	0x1
 1496 03bd 1C       		.byte	0x1c
 1497 03be 6F000000 		.4byte	0x6f
 1498 03c2 01       		.byte	0x1
ARM GAS  C:\Users\javier\AppData\Local\Temp\ccsAAitb.s 			page 43


 1499 03c3 05       		.byte	0x5
 1500 03c4 03       		.byte	0x3
 1501 03c5 00000000 		.4byte	GPS_initVar
 1502 03c9 13       		.uleb128 0x13
 1503 03ca 6F000000 		.4byte	0x6f
 1504 03ce D9030000 		.4byte	0x3d9
 1505 03d2 14       		.uleb128 0x14
 1506 03d3 C5000000 		.4byte	0xc5
 1507 03d7 4F       		.byte	0x4f
 1508 03d8 00       		.byte	0
 1509 03d9 12       		.uleb128 0x12
 1510 03da 27030000 		.4byte	.LASF48
 1511 03de 01       		.byte	0x1
 1512 03df 24       		.byte	0x24
 1513 03e0 EB030000 		.4byte	0x3eb
 1514 03e4 01       		.byte	0x1
 1515 03e5 05       		.byte	0x5
 1516 03e6 03       		.byte	0x3
 1517 03e7 00000000 		.4byte	GPS_rxBuffer
 1518 03eb 05       		.uleb128 0x5
 1519 03ec C9030000 		.4byte	0x3c9
 1520 03f0 12       		.uleb128 0x12
 1521 03f1 D9000000 		.4byte	.LASF49
 1522 03f5 01       		.byte	0x1
 1523 03f6 25       		.byte	0x25
 1524 03f7 B0000000 		.4byte	0xb0
 1525 03fb 01       		.byte	0x1
 1526 03fc 05       		.byte	0x5
 1527 03fd 03       		.byte	0x3
 1528 03fe 00000000 		.4byte	GPS_rxBufferRead
 1529 0402 12       		.uleb128 0x12
 1530 0403 4F000000 		.4byte	.LASF50
 1531 0407 01       		.byte	0x1
 1532 0408 26       		.byte	0x26
 1533 0409 B0000000 		.4byte	0xb0
 1534 040d 01       		.byte	0x1
 1535 040e 05       		.byte	0x5
 1536 040f 03       		.byte	0x3
 1537 0410 00000000 		.4byte	GPS_rxBufferWrite
 1538 0414 12       		.uleb128 0x12
 1539 0415 73020000 		.4byte	.LASF51
 1540 0419 01       		.byte	0x1
 1541 041a 27       		.byte	0x27
 1542 041b B0000000 		.4byte	0xb0
 1543 041f 01       		.byte	0x1
 1544 0420 05       		.byte	0x5
 1545 0421 03       		.byte	0x3
 1546 0422 00000000 		.4byte	GPS_rxBufferLoopDetect
 1547 0426 12       		.uleb128 0x12
 1548 0427 7E000000 		.4byte	.LASF52
 1549 042b 01       		.byte	0x1
 1550 042c 28       		.byte	0x28
 1551 042d B0000000 		.4byte	0xb0
 1552 0431 01       		.byte	0x1
 1553 0432 05       		.byte	0x5
 1554 0433 03       		.byte	0x3
 1555 0434 00000000 		.4byte	GPS_rxBufferOverflow
ARM GAS  C:\Users\javier\AppData\Local\Temp\ccsAAitb.s 			page 44


 1556 0438 00       		.byte	0
 1557              		.section	.debug_abbrev,"",%progbits
 1558              	.Ldebug_abbrev0:
 1559 0000 01       		.uleb128 0x1
 1560 0001 11       		.uleb128 0x11
 1561 0002 01       		.byte	0x1
 1562 0003 25       		.uleb128 0x25
 1563 0004 0E       		.uleb128 0xe
 1564 0005 13       		.uleb128 0x13
 1565 0006 0B       		.uleb128 0xb
 1566 0007 03       		.uleb128 0x3
 1567 0008 0E       		.uleb128 0xe
 1568 0009 1B       		.uleb128 0x1b
 1569 000a 0E       		.uleb128 0xe
 1570 000b 55       		.uleb128 0x55
 1571 000c 06       		.uleb128 0x6
 1572 000d 11       		.uleb128 0x11
 1573 000e 01       		.uleb128 0x1
 1574 000f 52       		.uleb128 0x52
 1575 0010 01       		.uleb128 0x1
 1576 0011 10       		.uleb128 0x10
 1577 0012 06       		.uleb128 0x6
 1578 0013 00       		.byte	0
 1579 0014 00       		.byte	0
 1580 0015 02       		.uleb128 0x2
 1581 0016 24       		.uleb128 0x24
 1582 0017 00       		.byte	0
 1583 0018 0B       		.uleb128 0xb
 1584 0019 0B       		.uleb128 0xb
 1585 001a 3E       		.uleb128 0x3e
 1586 001b 0B       		.uleb128 0xb
 1587 001c 03       		.uleb128 0x3
 1588 001d 0E       		.uleb128 0xe
 1589 001e 00       		.byte	0
 1590 001f 00       		.byte	0
 1591 0020 03       		.uleb128 0x3
 1592 0021 24       		.uleb128 0x24
 1593 0022 00       		.byte	0
 1594 0023 0B       		.uleb128 0xb
 1595 0024 0B       		.uleb128 0xb
 1596 0025 3E       		.uleb128 0x3e
 1597 0026 0B       		.uleb128 0xb
 1598 0027 03       		.uleb128 0x3
 1599 0028 08       		.uleb128 0x8
 1600 0029 00       		.byte	0
 1601 002a 00       		.byte	0
 1602 002b 04       		.uleb128 0x4
 1603 002c 16       		.uleb128 0x16
 1604 002d 00       		.byte	0
 1605 002e 03       		.uleb128 0x3
 1606 002f 0E       		.uleb128 0xe
 1607 0030 3A       		.uleb128 0x3a
 1608 0031 0B       		.uleb128 0xb
 1609 0032 3B       		.uleb128 0x3b
 1610 0033 0B       		.uleb128 0xb
 1611 0034 49       		.uleb128 0x49
 1612 0035 13       		.uleb128 0x13
ARM GAS  C:\Users\javier\AppData\Local\Temp\ccsAAitb.s 			page 45


 1613 0036 00       		.byte	0
 1614 0037 00       		.byte	0
 1615 0038 05       		.uleb128 0x5
 1616 0039 35       		.uleb128 0x35
 1617 003a 00       		.byte	0
 1618 003b 49       		.uleb128 0x49
 1619 003c 13       		.uleb128 0x13
 1620 003d 00       		.byte	0
 1621 003e 00       		.byte	0
 1622 003f 06       		.uleb128 0x6
 1623 0040 2E       		.uleb128 0x2e
 1624 0041 00       		.byte	0
 1625 0042 3F       		.uleb128 0x3f
 1626 0043 0C       		.uleb128 0xc
 1627 0044 03       		.uleb128 0x3
 1628 0045 0E       		.uleb128 0xe
 1629 0046 3A       		.uleb128 0x3a
 1630 0047 0B       		.uleb128 0xb
 1631 0048 3B       		.uleb128 0x3b
 1632 0049 0B       		.uleb128 0xb
 1633 004a 27       		.uleb128 0x27
 1634 004b 0C       		.uleb128 0xc
 1635 004c 11       		.uleb128 0x11
 1636 004d 01       		.uleb128 0x1
 1637 004e 12       		.uleb128 0x12
 1638 004f 01       		.uleb128 0x1
 1639 0050 40       		.uleb128 0x40
 1640 0051 06       		.uleb128 0x6
 1641 0052 9642     		.uleb128 0x2116
 1642 0054 0C       		.uleb128 0xc
 1643 0055 00       		.byte	0
 1644 0056 00       		.byte	0
 1645 0057 07       		.uleb128 0x7
 1646 0058 2E       		.uleb128 0x2e
 1647 0059 01       		.byte	0x1
 1648 005a 3F       		.uleb128 0x3f
 1649 005b 0C       		.uleb128 0xc
 1650 005c 03       		.uleb128 0x3
 1651 005d 0E       		.uleb128 0xe
 1652 005e 3A       		.uleb128 0x3a
 1653 005f 0B       		.uleb128 0xb
 1654 0060 3B       		.uleb128 0x3b
 1655 0061 0B       		.uleb128 0xb
 1656 0062 27       		.uleb128 0x27
 1657 0063 0C       		.uleb128 0xc
 1658 0064 11       		.uleb128 0x11
 1659 0065 01       		.uleb128 0x1
 1660 0066 12       		.uleb128 0x12
 1661 0067 01       		.uleb128 0x1
 1662 0068 40       		.uleb128 0x40
 1663 0069 06       		.uleb128 0x6
 1664 006a 9642     		.uleb128 0x2116
 1665 006c 0C       		.uleb128 0xc
 1666 006d 01       		.uleb128 0x1
 1667 006e 13       		.uleb128 0x13
 1668 006f 00       		.byte	0
 1669 0070 00       		.byte	0
ARM GAS  C:\Users\javier\AppData\Local\Temp\ccsAAitb.s 			page 46


 1670 0071 08       		.uleb128 0x8
 1671 0072 34       		.uleb128 0x34
 1672 0073 00       		.byte	0
 1673 0074 03       		.uleb128 0x3
 1674 0075 0E       		.uleb128 0xe
 1675 0076 3A       		.uleb128 0x3a
 1676 0077 0B       		.uleb128 0xb
 1677 0078 3B       		.uleb128 0x3b
 1678 0079 0B       		.uleb128 0xb
 1679 007a 49       		.uleb128 0x49
 1680 007b 13       		.uleb128 0x13
 1681 007c 02       		.uleb128 0x2
 1682 007d 0A       		.uleb128 0xa
 1683 007e 00       		.byte	0
 1684 007f 00       		.byte	0
 1685 0080 09       		.uleb128 0x9
 1686 0081 2E       		.uleb128 0x2e
 1687 0082 00       		.byte	0
 1688 0083 3F       		.uleb128 0x3f
 1689 0084 0C       		.uleb128 0xc
 1690 0085 03       		.uleb128 0x3
 1691 0086 0E       		.uleb128 0xe
 1692 0087 3A       		.uleb128 0x3a
 1693 0088 0B       		.uleb128 0xb
 1694 0089 3B       		.uleb128 0x3b
 1695 008a 05       		.uleb128 0x5
 1696 008b 27       		.uleb128 0x27
 1697 008c 0C       		.uleb128 0xc
 1698 008d 49       		.uleb128 0x49
 1699 008e 13       		.uleb128 0x13
 1700 008f 11       		.uleb128 0x11
 1701 0090 01       		.uleb128 0x1
 1702 0091 12       		.uleb128 0x12
 1703 0092 01       		.uleb128 0x1
 1704 0093 40       		.uleb128 0x40
 1705 0094 06       		.uleb128 0x6
 1706 0095 9742     		.uleb128 0x2117
 1707 0097 0C       		.uleb128 0xc
 1708 0098 00       		.byte	0
 1709 0099 00       		.byte	0
 1710 009a 0A       		.uleb128 0xa
 1711 009b 2E       		.uleb128 0x2e
 1712 009c 01       		.byte	0x1
 1713 009d 3F       		.uleb128 0x3f
 1714 009e 0C       		.uleb128 0xc
 1715 009f 03       		.uleb128 0x3
 1716 00a0 0E       		.uleb128 0xe
 1717 00a1 3A       		.uleb128 0x3a
 1718 00a2 0B       		.uleb128 0xb
 1719 00a3 3B       		.uleb128 0x3b
 1720 00a4 05       		.uleb128 0x5
 1721 00a5 27       		.uleb128 0x27
 1722 00a6 0C       		.uleb128 0xc
 1723 00a7 11       		.uleb128 0x11
 1724 00a8 01       		.uleb128 0x1
 1725 00a9 12       		.uleb128 0x12
 1726 00aa 01       		.uleb128 0x1
ARM GAS  C:\Users\javier\AppData\Local\Temp\ccsAAitb.s 			page 47


 1727 00ab 40       		.uleb128 0x40
 1728 00ac 06       		.uleb128 0x6
 1729 00ad 9742     		.uleb128 0x2117
 1730 00af 0C       		.uleb128 0xc
 1731 00b0 01       		.uleb128 0x1
 1732 00b1 13       		.uleb128 0x13
 1733 00b2 00       		.byte	0
 1734 00b3 00       		.byte	0
 1735 00b4 0B       		.uleb128 0xb
 1736 00b5 05       		.uleb128 0x5
 1737 00b6 00       		.byte	0
 1738 00b7 03       		.uleb128 0x3
 1739 00b8 0E       		.uleb128 0xe
 1740 00b9 3A       		.uleb128 0x3a
 1741 00ba 0B       		.uleb128 0xb
 1742 00bb 3B       		.uleb128 0x3b
 1743 00bc 05       		.uleb128 0x5
 1744 00bd 49       		.uleb128 0x49
 1745 00be 13       		.uleb128 0x13
 1746 00bf 02       		.uleb128 0x2
 1747 00c0 0A       		.uleb128 0xa
 1748 00c1 00       		.byte	0
 1749 00c2 00       		.byte	0
 1750 00c3 0C       		.uleb128 0xc
 1751 00c4 2E       		.uleb128 0x2e
 1752 00c5 00       		.byte	0
 1753 00c6 3F       		.uleb128 0x3f
 1754 00c7 0C       		.uleb128 0xc
 1755 00c8 03       		.uleb128 0x3
 1756 00c9 0E       		.uleb128 0xe
 1757 00ca 3A       		.uleb128 0x3a
 1758 00cb 0B       		.uleb128 0xb
 1759 00cc 3B       		.uleb128 0x3b
 1760 00cd 05       		.uleb128 0x5
 1761 00ce 27       		.uleb128 0x27
 1762 00cf 0C       		.uleb128 0xc
 1763 00d0 11       		.uleb128 0x11
 1764 00d1 01       		.uleb128 0x1
 1765 00d2 12       		.uleb128 0x12
 1766 00d3 01       		.uleb128 0x1
 1767 00d4 40       		.uleb128 0x40
 1768 00d5 06       		.uleb128 0x6
 1769 00d6 9742     		.uleb128 0x2117
 1770 00d8 0C       		.uleb128 0xc
 1771 00d9 00       		.byte	0
 1772 00da 00       		.byte	0
 1773 00db 0D       		.uleb128 0xd
 1774 00dc 2E       		.uleb128 0x2e
 1775 00dd 01       		.byte	0x1
 1776 00de 3F       		.uleb128 0x3f
 1777 00df 0C       		.uleb128 0xc
 1778 00e0 03       		.uleb128 0x3
 1779 00e1 0E       		.uleb128 0xe
 1780 00e2 3A       		.uleb128 0x3a
 1781 00e3 0B       		.uleb128 0xb
 1782 00e4 3B       		.uleb128 0x3b
 1783 00e5 05       		.uleb128 0x5
ARM GAS  C:\Users\javier\AppData\Local\Temp\ccsAAitb.s 			page 48


 1784 00e6 27       		.uleb128 0x27
 1785 00e7 0C       		.uleb128 0xc
 1786 00e8 49       		.uleb128 0x49
 1787 00e9 13       		.uleb128 0x13
 1788 00ea 11       		.uleb128 0x11
 1789 00eb 01       		.uleb128 0x1
 1790 00ec 12       		.uleb128 0x12
 1791 00ed 01       		.uleb128 0x1
 1792 00ee 40       		.uleb128 0x40
 1793 00ef 06       		.uleb128 0x6
 1794 00f0 9642     		.uleb128 0x2116
 1795 00f2 0C       		.uleb128 0xc
 1796 00f3 01       		.uleb128 0x1
 1797 00f4 13       		.uleb128 0x13
 1798 00f5 00       		.byte	0
 1799 00f6 00       		.byte	0
 1800 00f7 0E       		.uleb128 0xe
 1801 00f8 34       		.uleb128 0x34
 1802 00f9 00       		.byte	0
 1803 00fa 03       		.uleb128 0x3
 1804 00fb 0E       		.uleb128 0xe
 1805 00fc 3A       		.uleb128 0x3a
 1806 00fd 0B       		.uleb128 0xb
 1807 00fe 3B       		.uleb128 0x3b
 1808 00ff 05       		.uleb128 0x5
 1809 0100 49       		.uleb128 0x49
 1810 0101 13       		.uleb128 0x13
 1811 0102 02       		.uleb128 0x2
 1812 0103 0A       		.uleb128 0xa
 1813 0104 00       		.byte	0
 1814 0105 00       		.byte	0
 1815 0106 0F       		.uleb128 0xf
 1816 0107 2E       		.uleb128 0x2e
 1817 0108 01       		.byte	0x1
 1818 0109 3F       		.uleb128 0x3f
 1819 010a 0C       		.uleb128 0xc
 1820 010b 03       		.uleb128 0x3
 1821 010c 0E       		.uleb128 0xe
 1822 010d 3A       		.uleb128 0x3a
 1823 010e 0B       		.uleb128 0xb
 1824 010f 3B       		.uleb128 0x3b
 1825 0110 05       		.uleb128 0x5
 1826 0111 27       		.uleb128 0x27
 1827 0112 0C       		.uleb128 0xc
 1828 0113 49       		.uleb128 0x49
 1829 0114 13       		.uleb128 0x13
 1830 0115 11       		.uleb128 0x11
 1831 0116 01       		.uleb128 0x1
 1832 0117 12       		.uleb128 0x12
 1833 0118 01       		.uleb128 0x1
 1834 0119 40       		.uleb128 0x40
 1835 011a 06       		.uleb128 0x6
 1836 011b 9742     		.uleb128 0x2117
 1837 011d 0C       		.uleb128 0xc
 1838 011e 01       		.uleb128 0x1
 1839 011f 13       		.uleb128 0x13
 1840 0120 00       		.byte	0
ARM GAS  C:\Users\javier\AppData\Local\Temp\ccsAAitb.s 			page 49


 1841 0121 00       		.byte	0
 1842 0122 10       		.uleb128 0x10
 1843 0123 2E       		.uleb128 0x2e
 1844 0124 00       		.byte	0
 1845 0125 3F       		.uleb128 0x3f
 1846 0126 0C       		.uleb128 0xc
 1847 0127 03       		.uleb128 0x3
 1848 0128 0E       		.uleb128 0xe
 1849 0129 3A       		.uleb128 0x3a
 1850 012a 0B       		.uleb128 0xb
 1851 012b 3B       		.uleb128 0x3b
 1852 012c 05       		.uleb128 0x5
 1853 012d 27       		.uleb128 0x27
 1854 012e 0C       		.uleb128 0xc
 1855 012f 49       		.uleb128 0x49
 1856 0130 13       		.uleb128 0x13
 1857 0131 11       		.uleb128 0x11
 1858 0132 01       		.uleb128 0x1
 1859 0133 12       		.uleb128 0x12
 1860 0134 01       		.uleb128 0x1
 1861 0135 40       		.uleb128 0x40
 1862 0136 06       		.uleb128 0x6
 1863 0137 9642     		.uleb128 0x2116
 1864 0139 0C       		.uleb128 0xc
 1865 013a 00       		.byte	0
 1866 013b 00       		.byte	0
 1867 013c 11       		.uleb128 0x11
 1868 013d 2E       		.uleb128 0x2e
 1869 013e 01       		.byte	0x1
 1870 013f 3F       		.uleb128 0x3f
 1871 0140 0C       		.uleb128 0xc
 1872 0141 03       		.uleb128 0x3
 1873 0142 0E       		.uleb128 0xe
 1874 0143 3A       		.uleb128 0x3a
 1875 0144 0B       		.uleb128 0xb
 1876 0145 3B       		.uleb128 0x3b
 1877 0146 05       		.uleb128 0x5
 1878 0147 27       		.uleb128 0x27
 1879 0148 0C       		.uleb128 0xc
 1880 0149 11       		.uleb128 0x11
 1881 014a 01       		.uleb128 0x1
 1882 014b 12       		.uleb128 0x12
 1883 014c 01       		.uleb128 0x1
 1884 014d 40       		.uleb128 0x40
 1885 014e 06       		.uleb128 0x6
 1886 014f 9642     		.uleb128 0x2116
 1887 0151 0C       		.uleb128 0xc
 1888 0152 01       		.uleb128 0x1
 1889 0153 13       		.uleb128 0x13
 1890 0154 00       		.byte	0
 1891 0155 00       		.byte	0
 1892 0156 12       		.uleb128 0x12
 1893 0157 34       		.uleb128 0x34
 1894 0158 00       		.byte	0
 1895 0159 03       		.uleb128 0x3
 1896 015a 0E       		.uleb128 0xe
 1897 015b 3A       		.uleb128 0x3a
ARM GAS  C:\Users\javier\AppData\Local\Temp\ccsAAitb.s 			page 50


 1898 015c 0B       		.uleb128 0xb
 1899 015d 3B       		.uleb128 0x3b
 1900 015e 0B       		.uleb128 0xb
 1901 015f 49       		.uleb128 0x49
 1902 0160 13       		.uleb128 0x13
 1903 0161 3F       		.uleb128 0x3f
 1904 0162 0C       		.uleb128 0xc
 1905 0163 02       		.uleb128 0x2
 1906 0164 0A       		.uleb128 0xa
 1907 0165 00       		.byte	0
 1908 0166 00       		.byte	0
 1909 0167 13       		.uleb128 0x13
 1910 0168 01       		.uleb128 0x1
 1911 0169 01       		.byte	0x1
 1912 016a 49       		.uleb128 0x49
 1913 016b 13       		.uleb128 0x13
 1914 016c 01       		.uleb128 0x1
 1915 016d 13       		.uleb128 0x13
 1916 016e 00       		.byte	0
 1917 016f 00       		.byte	0
 1918 0170 14       		.uleb128 0x14
 1919 0171 21       		.uleb128 0x21
 1920 0172 00       		.byte	0
 1921 0173 49       		.uleb128 0x49
 1922 0174 13       		.uleb128 0x13
 1923 0175 2F       		.uleb128 0x2f
 1924 0176 0B       		.uleb128 0xb
 1925 0177 00       		.byte	0
 1926 0178 00       		.byte	0
 1927 0179 00       		.byte	0
 1928              		.section	.debug_loc,"",%progbits
 1929              	.Ldebug_loc0:
 1930              	.LLST0:
 1931 0000 00000000 		.4byte	.LFB0
 1932 0004 02000000 		.4byte	.LCFI0
 1933 0008 0200     		.2byte	0x2
 1934 000a 7D       		.byte	0x7d
 1935 000b 00       		.sleb128 0
 1936 000c 02000000 		.4byte	.LCFI0
 1937 0010 04000000 		.4byte	.LCFI1
 1938 0014 0200     		.2byte	0x2
 1939 0016 7D       		.byte	0x7d
 1940 0017 08       		.sleb128 8
 1941 0018 04000000 		.4byte	.LCFI1
 1942 001c 2A000000 		.4byte	.LFE0
 1943 0020 0200     		.2byte	0x2
 1944 0022 77       		.byte	0x77
 1945 0023 08       		.sleb128 8
 1946 0024 00000000 		.4byte	0
 1947 0028 00000000 		.4byte	0
 1948              	.LLST1:
 1949 002c 00000000 		.4byte	.LFB1
 1950 0030 02000000 		.4byte	.LCFI2
 1951 0034 0200     		.2byte	0x2
 1952 0036 7D       		.byte	0x7d
 1953 0037 00       		.sleb128 0
 1954 0038 02000000 		.4byte	.LCFI2
ARM GAS  C:\Users\javier\AppData\Local\Temp\ccsAAitb.s 			page 51


 1955 003c 04000000 		.4byte	.LCFI3
 1956 0040 0200     		.2byte	0x2
 1957 0042 7D       		.byte	0x7d
 1958 0043 08       		.sleb128 8
 1959 0044 04000000 		.4byte	.LCFI3
 1960 0048 3E000000 		.4byte	.LFE1
 1961 004c 0200     		.2byte	0x2
 1962 004e 77       		.byte	0x77
 1963 004f 08       		.sleb128 8
 1964 0050 00000000 		.4byte	0
 1965 0054 00000000 		.4byte	0
 1966              	.LLST2:
 1967 0058 00000000 		.4byte	.LFB2
 1968 005c 02000000 		.4byte	.LCFI4
 1969 0060 0200     		.2byte	0x2
 1970 0062 7D       		.byte	0x7d
 1971 0063 00       		.sleb128 0
 1972 0064 02000000 		.4byte	.LCFI4
 1973 0068 04000000 		.4byte	.LCFI5
 1974 006c 0200     		.2byte	0x2
 1975 006e 7D       		.byte	0x7d
 1976 006f 08       		.sleb128 8
 1977 0070 04000000 		.4byte	.LCFI5
 1978 0074 06000000 		.4byte	.LCFI6
 1979 0078 0200     		.2byte	0x2
 1980 007a 7D       		.byte	0x7d
 1981 007b 10       		.sleb128 16
 1982 007c 06000000 		.4byte	.LCFI6
 1983 0080 68000000 		.4byte	.LFE2
 1984 0084 0200     		.2byte	0x2
 1985 0086 77       		.byte	0x77
 1986 0087 10       		.sleb128 16
 1987 0088 00000000 		.4byte	0
 1988 008c 00000000 		.4byte	0
 1989              	.LLST3:
 1990 0090 00000000 		.4byte	.LFB3
 1991 0094 02000000 		.4byte	.LCFI7
 1992 0098 0200     		.2byte	0x2
 1993 009a 7D       		.byte	0x7d
 1994 009b 00       		.sleb128 0
 1995 009c 02000000 		.4byte	.LCFI7
 1996 00a0 04000000 		.4byte	.LCFI8
 1997 00a4 0200     		.2byte	0x2
 1998 00a6 7D       		.byte	0x7d
 1999 00a7 08       		.sleb128 8
 2000 00a8 04000000 		.4byte	.LCFI8
 2001 00ac 06000000 		.4byte	.LCFI9
 2002 00b0 0200     		.2byte	0x2
 2003 00b2 7D       		.byte	0x7d
 2004 00b3 10       		.sleb128 16
 2005 00b4 06000000 		.4byte	.LCFI9
 2006 00b8 5E000000 		.4byte	.LFE3
 2007 00bc 0200     		.2byte	0x2
 2008 00be 77       		.byte	0x77
 2009 00bf 10       		.sleb128 16
 2010 00c0 00000000 		.4byte	0
 2011 00c4 00000000 		.4byte	0
ARM GAS  C:\Users\javier\AppData\Local\Temp\ccsAAitb.s 			page 52


 2012              	.LLST4:
 2013 00c8 00000000 		.4byte	.LFB4
 2014 00cc 02000000 		.4byte	.LCFI10
 2015 00d0 0200     		.2byte	0x2
 2016 00d2 7D       		.byte	0x7d
 2017 00d3 00       		.sleb128 0
 2018 00d4 02000000 		.4byte	.LCFI10
 2019 00d8 04000000 		.4byte	.LCFI11
 2020 00dc 0200     		.2byte	0x2
 2021 00de 7D       		.byte	0x7d
 2022 00df 04       		.sleb128 4
 2023 00e0 04000000 		.4byte	.LCFI11
 2024 00e4 10000000 		.4byte	.LFE4
 2025 00e8 0200     		.2byte	0x2
 2026 00ea 77       		.byte	0x77
 2027 00eb 04       		.sleb128 4
 2028 00ec 00000000 		.4byte	0
 2029 00f0 00000000 		.4byte	0
 2030              	.LLST5:
 2031 00f4 00000000 		.4byte	.LFB5
 2032 00f8 02000000 		.4byte	.LCFI12
 2033 00fc 0200     		.2byte	0x2
 2034 00fe 7D       		.byte	0x7d
 2035 00ff 00       		.sleb128 0
 2036 0100 02000000 		.4byte	.LCFI12
 2037 0104 04000000 		.4byte	.LCFI13
 2038 0108 0200     		.2byte	0x2
 2039 010a 7D       		.byte	0x7d
 2040 010b 04       		.sleb128 4
 2041 010c 04000000 		.4byte	.LCFI13
 2042 0110 06000000 		.4byte	.LCFI14
 2043 0114 0200     		.2byte	0x2
 2044 0116 7D       		.byte	0x7d
 2045 0117 10       		.sleb128 16
 2046 0118 06000000 		.4byte	.LCFI14
 2047 011c 14000000 		.4byte	.LFE5
 2048 0120 0200     		.2byte	0x2
 2049 0122 77       		.byte	0x77
 2050 0123 10       		.sleb128 16
 2051 0124 00000000 		.4byte	0
 2052 0128 00000000 		.4byte	0
 2053              	.LLST6:
 2054 012c 00000000 		.4byte	.LFB6
 2055 0130 02000000 		.4byte	.LCFI15
 2056 0134 0200     		.2byte	0x2
 2057 0136 7D       		.byte	0x7d
 2058 0137 00       		.sleb128 0
 2059 0138 02000000 		.4byte	.LCFI15
 2060 013c 04000000 		.4byte	.LCFI16
 2061 0140 0200     		.2byte	0x2
 2062 0142 7D       		.byte	0x7d
 2063 0143 04       		.sleb128 4
 2064 0144 04000000 		.4byte	.LCFI16
 2065 0148 18000000 		.4byte	.LFE6
 2066 014c 0200     		.2byte	0x2
 2067 014e 77       		.byte	0x77
 2068 014f 04       		.sleb128 4
ARM GAS  C:\Users\javier\AppData\Local\Temp\ccsAAitb.s 			page 53


 2069 0150 00000000 		.4byte	0
 2070 0154 00000000 		.4byte	0
 2071              	.LLST7:
 2072 0158 00000000 		.4byte	.LFB7
 2073 015c 02000000 		.4byte	.LCFI17
 2074 0160 0200     		.2byte	0x2
 2075 0162 7D       		.byte	0x7d
 2076 0163 00       		.sleb128 0
 2077 0164 02000000 		.4byte	.LCFI17
 2078 0168 04000000 		.4byte	.LCFI18
 2079 016c 0200     		.2byte	0x2
 2080 016e 7D       		.byte	0x7d
 2081 016f 04       		.sleb128 4
 2082 0170 04000000 		.4byte	.LCFI18
 2083 0174 18000000 		.4byte	.LFE7
 2084 0178 0200     		.2byte	0x2
 2085 017a 77       		.byte	0x77
 2086 017b 04       		.sleb128 4
 2087 017c 00000000 		.4byte	0
 2088 0180 00000000 		.4byte	0
 2089              	.LLST8:
 2090 0184 00000000 		.4byte	.LFB8
 2091 0188 02000000 		.4byte	.LCFI19
 2092 018c 0200     		.2byte	0x2
 2093 018e 7D       		.byte	0x7d
 2094 018f 00       		.sleb128 0
 2095 0190 02000000 		.4byte	.LCFI19
 2096 0194 04000000 		.4byte	.LCFI20
 2097 0198 0200     		.2byte	0x2
 2098 019a 7D       		.byte	0x7d
 2099 019b 04       		.sleb128 4
 2100 019c 04000000 		.4byte	.LCFI20
 2101 01a0 06000000 		.4byte	.LCFI21
 2102 01a4 0200     		.2byte	0x2
 2103 01a6 7D       		.byte	0x7d
 2104 01a7 10       		.sleb128 16
 2105 01a8 06000000 		.4byte	.LCFI21
 2106 01ac 20000000 		.4byte	.LFE8
 2107 01b0 0200     		.2byte	0x2
 2108 01b2 77       		.byte	0x77
 2109 01b3 10       		.sleb128 16
 2110 01b4 00000000 		.4byte	0
 2111 01b8 00000000 		.4byte	0
 2112              	.LLST9:
 2113 01bc 00000000 		.4byte	.LFB9
 2114 01c0 02000000 		.4byte	.LCFI22
 2115 01c4 0200     		.2byte	0x2
 2116 01c6 7D       		.byte	0x7d
 2117 01c7 00       		.sleb128 0
 2118 01c8 02000000 		.4byte	.LCFI22
 2119 01cc 04000000 		.4byte	.LCFI23
 2120 01d0 0200     		.2byte	0x2
 2121 01d2 7D       		.byte	0x7d
 2122 01d3 08       		.sleb128 8
 2123 01d4 04000000 		.4byte	.LCFI23
 2124 01d8 06000000 		.4byte	.LCFI24
 2125 01dc 0200     		.2byte	0x2
ARM GAS  C:\Users\javier\AppData\Local\Temp\ccsAAitb.s 			page 54


 2126 01de 7D       		.byte	0x7d
 2127 01df 10       		.sleb128 16
 2128 01e0 06000000 		.4byte	.LCFI24
 2129 01e4 A4000000 		.4byte	.LFE9
 2130 01e8 0200     		.2byte	0x2
 2131 01ea 77       		.byte	0x77
 2132 01eb 10       		.sleb128 16
 2133 01ec 00000000 		.4byte	0
 2134 01f0 00000000 		.4byte	0
 2135              	.LLST10:
 2136 01f4 00000000 		.4byte	.LFB10
 2137 01f8 02000000 		.4byte	.LCFI25
 2138 01fc 0200     		.2byte	0x2
 2139 01fe 7D       		.byte	0x7d
 2140 01ff 00       		.sleb128 0
 2141 0200 02000000 		.4byte	.LCFI25
 2142 0204 04000000 		.4byte	.LCFI26
 2143 0208 0200     		.2byte	0x2
 2144 020a 7D       		.byte	0x7d
 2145 020b 04       		.sleb128 4
 2146 020c 04000000 		.4byte	.LCFI26
 2147 0210 06000000 		.4byte	.LCFI27
 2148 0214 0200     		.2byte	0x2
 2149 0216 7D       		.byte	0x7d
 2150 0217 10       		.sleb128 16
 2151 0218 06000000 		.4byte	.LCFI27
 2152 021c 4C000000 		.4byte	.LFE10
 2153 0220 0200     		.2byte	0x2
 2154 0222 77       		.byte	0x77
 2155 0223 10       		.sleb128 16
 2156 0224 00000000 		.4byte	0
 2157 0228 00000000 		.4byte	0
 2158              	.LLST11:
 2159 022c 00000000 		.4byte	.LFB11
 2160 0230 02000000 		.4byte	.LCFI28
 2161 0234 0200     		.2byte	0x2
 2162 0236 7D       		.byte	0x7d
 2163 0237 00       		.sleb128 0
 2164 0238 02000000 		.4byte	.LCFI28
 2165 023c 04000000 		.4byte	.LCFI29
 2166 0240 0200     		.2byte	0x2
 2167 0242 7D       		.byte	0x7d
 2168 0243 08       		.sleb128 8
 2169 0244 04000000 		.4byte	.LCFI29
 2170 0248 06000000 		.4byte	.LCFI30
 2171 024c 0200     		.2byte	0x2
 2172 024e 7D       		.byte	0x7d
 2173 024f 10       		.sleb128 16
 2174 0250 06000000 		.4byte	.LCFI30
 2175 0254 D0000000 		.4byte	.LFE11
 2176 0258 0200     		.2byte	0x2
 2177 025a 77       		.byte	0x77
 2178 025b 10       		.sleb128 16
 2179 025c 00000000 		.4byte	0
 2180 0260 00000000 		.4byte	0
 2181              	.LLST12:
 2182 0264 00000000 		.4byte	.LFB12
ARM GAS  C:\Users\javier\AppData\Local\Temp\ccsAAitb.s 			page 55


 2183 0268 02000000 		.4byte	.LCFI31
 2184 026c 0200     		.2byte	0x2
 2185 026e 7D       		.byte	0x7d
 2186 026f 00       		.sleb128 0
 2187 0270 02000000 		.4byte	.LCFI31
 2188 0274 04000000 		.4byte	.LCFI32
 2189 0278 0200     		.2byte	0x2
 2190 027a 7D       		.byte	0x7d
 2191 027b 10       		.sleb128 16
 2192 027c 04000000 		.4byte	.LCFI32
 2193 0280 22000000 		.4byte	.LFE12
 2194 0284 0200     		.2byte	0x2
 2195 0286 77       		.byte	0x77
 2196 0287 10       		.sleb128 16
 2197 0288 00000000 		.4byte	0
 2198 028c 00000000 		.4byte	0
 2199              	.LLST13:
 2200 0290 00000000 		.4byte	.LFB13
 2201 0294 02000000 		.4byte	.LCFI33
 2202 0298 0200     		.2byte	0x2
 2203 029a 7D       		.byte	0x7d
 2204 029b 00       		.sleb128 0
 2205 029c 02000000 		.4byte	.LCFI33
 2206 02a0 04000000 		.4byte	.LCFI34
 2207 02a4 0200     		.2byte	0x2
 2208 02a6 7D       		.byte	0x7d
 2209 02a7 08       		.sleb128 8
 2210 02a8 04000000 		.4byte	.LCFI34
 2211 02ac 06000000 		.4byte	.LCFI35
 2212 02b0 0200     		.2byte	0x2
 2213 02b2 7D       		.byte	0x7d
 2214 02b3 10       		.sleb128 16
 2215 02b4 06000000 		.4byte	.LCFI35
 2216 02b8 B2000000 		.4byte	.LFE13
 2217 02bc 0200     		.2byte	0x2
 2218 02be 77       		.byte	0x77
 2219 02bf 10       		.sleb128 16
 2220 02c0 00000000 		.4byte	0
 2221 02c4 00000000 		.4byte	0
 2222              	.LLST14:
 2223 02c8 00000000 		.4byte	.LFB14
 2224 02cc 02000000 		.4byte	.LCFI36
 2225 02d0 0200     		.2byte	0x2
 2226 02d2 7D       		.byte	0x7d
 2227 02d3 00       		.sleb128 0
 2228 02d4 02000000 		.4byte	.LCFI36
 2229 02d8 04000000 		.4byte	.LCFI37
 2230 02dc 0200     		.2byte	0x2
 2231 02de 7D       		.byte	0x7d
 2232 02df 08       		.sleb128 8
 2233 02e0 04000000 		.4byte	.LCFI37
 2234 02e4 06000000 		.4byte	.LCFI38
 2235 02e8 0200     		.2byte	0x2
 2236 02ea 7D       		.byte	0x7d
 2237 02eb 10       		.sleb128 16
 2238 02ec 06000000 		.4byte	.LCFI38
 2239 02f0 96000000 		.4byte	.LFE14
ARM GAS  C:\Users\javier\AppData\Local\Temp\ccsAAitb.s 			page 56


 2240 02f4 0200     		.2byte	0x2
 2241 02f6 77       		.byte	0x77
 2242 02f7 10       		.sleb128 16
 2243 02f8 00000000 		.4byte	0
 2244 02fc 00000000 		.4byte	0
 2245              	.LLST15:
 2246 0300 00000000 		.4byte	.LFB15
 2247 0304 02000000 		.4byte	.LCFI39
 2248 0308 0200     		.2byte	0x2
 2249 030a 7D       		.byte	0x7d
 2250 030b 00       		.sleb128 0
 2251 030c 02000000 		.4byte	.LCFI39
 2252 0310 04000000 		.4byte	.LCFI40
 2253 0314 0200     		.2byte	0x2
 2254 0316 7D       		.byte	0x7d
 2255 0317 04       		.sleb128 4
 2256 0318 04000000 		.4byte	.LCFI40
 2257 031c 06000000 		.4byte	.LCFI41
 2258 0320 0200     		.2byte	0x2
 2259 0322 7D       		.byte	0x7d
 2260 0323 10       		.sleb128 16
 2261 0324 06000000 		.4byte	.LCFI41
 2262 0328 14000000 		.4byte	.LFE15
 2263 032c 0200     		.2byte	0x2
 2264 032e 77       		.byte	0x77
 2265 032f 10       		.sleb128 16
 2266 0330 00000000 		.4byte	0
 2267 0334 00000000 		.4byte	0
 2268              	.LLST16:
 2269 0338 00000000 		.4byte	.LFB16
 2270 033c 02000000 		.4byte	.LCFI42
 2271 0340 0200     		.2byte	0x2
 2272 0342 7D       		.byte	0x7d
 2273 0343 00       		.sleb128 0
 2274 0344 02000000 		.4byte	.LCFI42
 2275 0348 04000000 		.4byte	.LCFI43
 2276 034c 0200     		.2byte	0x2
 2277 034e 7D       		.byte	0x7d
 2278 034f 04       		.sleb128 4
 2279 0350 04000000 		.4byte	.LCFI43
 2280 0354 06000000 		.4byte	.LCFI44
 2281 0358 0200     		.2byte	0x2
 2282 035a 7D       		.byte	0x7d
 2283 035b 10       		.sleb128 16
 2284 035c 06000000 		.4byte	.LCFI44
 2285 0360 20000000 		.4byte	.LFE16
 2286 0364 0200     		.2byte	0x2
 2287 0366 77       		.byte	0x77
 2288 0367 10       		.sleb128 16
 2289 0368 00000000 		.4byte	0
 2290 036c 00000000 		.4byte	0
 2291              	.LLST17:
 2292 0370 00000000 		.4byte	.LFB17
 2293 0374 02000000 		.4byte	.LCFI45
 2294 0378 0200     		.2byte	0x2
 2295 037a 7D       		.byte	0x7d
 2296 037b 00       		.sleb128 0
ARM GAS  C:\Users\javier\AppData\Local\Temp\ccsAAitb.s 			page 57


 2297 037c 02000000 		.4byte	.LCFI45
 2298 0380 04000000 		.4byte	.LCFI46
 2299 0384 0200     		.2byte	0x2
 2300 0386 7D       		.byte	0x7d
 2301 0387 04       		.sleb128 4
 2302 0388 04000000 		.4byte	.LCFI46
 2303 038c 06000000 		.4byte	.LCFI47
 2304 0390 0200     		.2byte	0x2
 2305 0392 7D       		.byte	0x7d
 2306 0393 10       		.sleb128 16
 2307 0394 06000000 		.4byte	.LCFI47
 2308 0398 20000000 		.4byte	.LFE17
 2309 039c 0200     		.2byte	0x2
 2310 039e 77       		.byte	0x77
 2311 039f 10       		.sleb128 16
 2312 03a0 00000000 		.4byte	0
 2313 03a4 00000000 		.4byte	0
 2314              		.section	.debug_aranges,"",%progbits
 2315 0000 A4000000 		.4byte	0xa4
 2316 0004 0200     		.2byte	0x2
 2317 0006 00000000 		.4byte	.Ldebug_info0
 2318 000a 04       		.byte	0x4
 2319 000b 00       		.byte	0
 2320 000c 0000     		.2byte	0
 2321 000e 0000     		.2byte	0
 2322 0010 00000000 		.4byte	.LFB0
 2323 0014 2A000000 		.4byte	.LFE0-.LFB0
 2324 0018 00000000 		.4byte	.LFB1
 2325 001c 3E000000 		.4byte	.LFE1-.LFB1
 2326 0020 00000000 		.4byte	.LFB2
 2327 0024 68000000 		.4byte	.LFE2-.LFB2
 2328 0028 00000000 		.4byte	.LFB3
 2329 002c 5E000000 		.4byte	.LFE3-.LFB3
 2330 0030 00000000 		.4byte	.LFB4
 2331 0034 10000000 		.4byte	.LFE4-.LFB4
 2332 0038 00000000 		.4byte	.LFB5
 2333 003c 14000000 		.4byte	.LFE5-.LFB5
 2334 0040 00000000 		.4byte	.LFB6
 2335 0044 18000000 		.4byte	.LFE6-.LFB6
 2336 0048 00000000 		.4byte	.LFB7
 2337 004c 18000000 		.4byte	.LFE7-.LFB7
 2338 0050 00000000 		.4byte	.LFB8
 2339 0054 20000000 		.4byte	.LFE8-.LFB8
 2340 0058 00000000 		.4byte	.LFB9
 2341 005c A4000000 		.4byte	.LFE9-.LFB9
 2342 0060 00000000 		.4byte	.LFB10
 2343 0064 4C000000 		.4byte	.LFE10-.LFB10
 2344 0068 00000000 		.4byte	.LFB11
 2345 006c D0000000 		.4byte	.LFE11-.LFB11
 2346 0070 00000000 		.4byte	.LFB12
 2347 0074 22000000 		.4byte	.LFE12-.LFB12
 2348 0078 00000000 		.4byte	.LFB13
 2349 007c B2000000 		.4byte	.LFE13-.LFB13
 2350 0080 00000000 		.4byte	.LFB14
 2351 0084 96000000 		.4byte	.LFE14-.LFB14
 2352 0088 00000000 		.4byte	.LFB15
 2353 008c 14000000 		.4byte	.LFE15-.LFB15
ARM GAS  C:\Users\javier\AppData\Local\Temp\ccsAAitb.s 			page 58


 2354 0090 00000000 		.4byte	.LFB16
 2355 0094 20000000 		.4byte	.LFE16-.LFB16
 2356 0098 00000000 		.4byte	.LFB17
 2357 009c 20000000 		.4byte	.LFE17-.LFB17
 2358 00a0 00000000 		.4byte	0
 2359 00a4 00000000 		.4byte	0
 2360              		.section	.debug_ranges,"",%progbits
 2361              	.Ldebug_ranges0:
 2362 0000 00000000 		.4byte	.LFB0
 2363 0004 2A000000 		.4byte	.LFE0
 2364 0008 00000000 		.4byte	.LFB1
 2365 000c 3E000000 		.4byte	.LFE1
 2366 0010 00000000 		.4byte	.LFB2
 2367 0014 68000000 		.4byte	.LFE2
 2368 0018 00000000 		.4byte	.LFB3
 2369 001c 5E000000 		.4byte	.LFE3
 2370 0020 00000000 		.4byte	.LFB4
 2371 0024 10000000 		.4byte	.LFE4
 2372 0028 00000000 		.4byte	.LFB5
 2373 002c 14000000 		.4byte	.LFE5
 2374 0030 00000000 		.4byte	.LFB6
 2375 0034 18000000 		.4byte	.LFE6
 2376 0038 00000000 		.4byte	.LFB7
 2377 003c 18000000 		.4byte	.LFE7
 2378 0040 00000000 		.4byte	.LFB8
 2379 0044 20000000 		.4byte	.LFE8
 2380 0048 00000000 		.4byte	.LFB9
 2381 004c A4000000 		.4byte	.LFE9
 2382 0050 00000000 		.4byte	.LFB10
 2383 0054 4C000000 		.4byte	.LFE10
 2384 0058 00000000 		.4byte	.LFB11
 2385 005c D0000000 		.4byte	.LFE11
 2386 0060 00000000 		.4byte	.LFB12
 2387 0064 22000000 		.4byte	.LFE12
 2388 0068 00000000 		.4byte	.LFB13
 2389 006c B2000000 		.4byte	.LFE13
 2390 0070 00000000 		.4byte	.LFB14
 2391 0074 96000000 		.4byte	.LFE14
 2392 0078 00000000 		.4byte	.LFB15
 2393 007c 14000000 		.4byte	.LFE15
 2394 0080 00000000 		.4byte	.LFB16
 2395 0084 20000000 		.4byte	.LFE16
 2396 0088 00000000 		.4byte	.LFB17
 2397 008c 20000000 		.4byte	.LFE17
 2398 0090 00000000 		.4byte	0
 2399 0094 00000000 		.4byte	0
 2400              		.section	.debug_line,"",%progbits
 2401              	.Ldebug_line0:
 2402 0000 FB010000 		.section	.debug_str,"MS",%progbits,1
 2402      02004200 
 2402      00000201 
 2402      FB0E0D00 
 2402      01010101 
 2403              	.LASF16:
 2404 0000 72656733 		.ascii	"reg32\000"
 2404      3200
 2405              	.LASF53:
ARM GAS  C:\Users\javier\AppData\Local\Temp\ccsAAitb.s 			page 59


 2406 0006 474E5520 		.ascii	"GNU C 4.7.3 20130312 (release) [ARM/embedded-4_7-br"
 2406      4320342E 
 2406      372E3320 
 2406      32303133 
 2406      30333132 
 2407 0039 616E6368 		.ascii	"anch revision 196615]\000"
 2407      20726576 
 2407      6973696F 
 2407      6E203139 
 2407      36363135 
 2408              	.LASF50:
 2409 004f 4750535F 		.ascii	"GPS_rxBufferWrite\000"
 2409      72784275 
 2409      66666572 
 2409      57726974 
 2409      6500
 2410              	.LASF39:
 2411 0061 4750535F 		.ascii	"GPS_GetRxBufferSize\000"
 2411      47657452 
 2411      78427566 
 2411      66657253 
 2411      697A6500 
 2412              	.LASF4:
 2413 0075 6C6F6E67 		.ascii	"long int\000"
 2413      20696E74 
 2413      00
 2414              	.LASF52:
 2415 007e 4750535F 		.ascii	"GPS_rxBufferOverflow\000"
 2415      72784275 
 2415      66666572 
 2415      4F766572 
 2415      666C6F77 
 2416              	.LASF3:
 2417 0093 73686F72 		.ascii	"short unsigned int\000"
 2417      7420756E 
 2417      7369676E 
 2417      65642069 
 2417      6E7400
 2418              	.LASF32:
 2419 00a6 4750535F 		.ascii	"GPS_ReadRxData\000"
 2419      52656164 
 2419      52784461 
 2419      746100
 2420              	.LASF34:
 2421 00b5 73746174 		.ascii	"status\000"
 2421      757300
 2422              	.LASF12:
 2423 00bc 666C6F61 		.ascii	"float\000"
 2423      7400
 2424              	.LASF47:
 2425 00c2 4750535F 		.ascii	"GPS_initVar\000"
 2425      696E6974 
 2425      56617200 
 2426              	.LASF20:
 2427 00ce 4750535F 		.ascii	"GPS_Enable\000"
 2427      456E6162 
 2427      6C6500
ARM GAS  C:\Users\javier\AppData\Local\Temp\ccsAAitb.s 			page 60


 2428              	.LASF49:
 2429 00d9 4750535F 		.ascii	"GPS_rxBufferRead\000"
 2429      72784275 
 2429      66666572 
 2429      52656164 
 2429      00
 2430              	.LASF18:
 2431 00ea 4750535F 		.ascii	"GPS_Start\000"
 2431      53746172 
 2431      7400
 2432              	.LASF43:
 2433 00f4 61646472 		.ascii	"addressMode\000"
 2433      6573734D 
 2433      6F646500 
 2434              	.LASF42:
 2435 0100 4750535F 		.ascii	"GPS_SetRxAddressMode\000"
 2435      53657452 
 2435      78416464 
 2435      72657373 
 2435      4D6F6465 
 2436              	.LASF45:
 2437 0115 61646472 		.ascii	"address\000"
 2437      65737300 
 2438              	.LASF5:
 2439 011d 6C6F6E67 		.ascii	"long unsigned int\000"
 2439      20756E73 
 2439      69676E65 
 2439      6420696E 
 2439      7400
 2440              	.LASF9:
 2441 012f 75696E74 		.ascii	"uint8\000"
 2441      3800
 2442              	.LASF27:
 2443 0135 636F6E74 		.ascii	"control\000"
 2443      726F6C00 
 2444              	.LASF33:
 2445 013d 4750535F 		.ascii	"GPS_ReadRxStatus\000"
 2445      52656164 
 2445      52785374 
 2445      61747573 
 2445      00
 2446              	.LASF29:
 2447 014e 72784461 		.ascii	"rxData\000"
 2447      746100
 2448              	.LASF22:
 2449 0155 656E6162 		.ascii	"enableInterrupts\000"
 2449      6C65496E 
 2449      74657272 
 2449      75707473 
 2449      00
 2450              	.LASF1:
 2451 0166 756E7369 		.ascii	"unsigned char\000"
 2451      676E6564 
 2451      20636861 
 2451      7200
 2452              	.LASF13:
 2453 0174 646F7562 		.ascii	"double\000"
ARM GAS  C:\Users\javier\AppData\Local\Temp\ccsAAitb.s 			page 61


 2453      6C6500
 2454              	.LASF28:
 2455 017b 696E7453 		.ascii	"intSrc\000"
 2455      726300
 2456              	.LASF36:
 2457 0182 72785374 		.ascii	"rxStatus\000"
 2457      61747573 
 2457      00
 2458              	.LASF35:
 2459 018b 4750535F 		.ascii	"GPS_GetChar\000"
 2459      47657443 
 2459      68617200 
 2460              	.LASF10:
 2461 0197 75696E74 		.ascii	"uint16\000"
 2461      313600
 2462              	.LASF37:
 2463 019e 4750535F 		.ascii	"GPS_ReadControlRegister\000"
 2463      52656164 
 2463      436F6E74 
 2463      726F6C52 
 2463      65676973 
 2464              	.LASF11:
 2465 01b6 75696E74 		.ascii	"uint32\000"
 2465      333200
 2466              	.LASF26:
 2467 01bd 4750535F 		.ascii	"GPS_SetRxInterruptMode\000"
 2467      53657452 
 2467      78496E74 
 2467      65727275 
 2467      70744D6F 
 2468              	.LASF8:
 2469 01d4 756E7369 		.ascii	"unsigned int\000"
 2469      676E6564 
 2469      20696E74 
 2469      00
 2470              	.LASF23:
 2471 01e1 4750535F 		.ascii	"GPS_WriteControlRegister\000"
 2471      57726974 
 2471      65436F6E 
 2471      74726F6C 
 2471      52656769 
 2472              	.LASF7:
 2473 01fa 6C6F6E67 		.ascii	"long long unsigned int\000"
 2473      206C6F6E 
 2473      6720756E 
 2473      7369676E 
 2473      65642069 
 2474              	.LASF24:
 2475 0211 4750535F 		.ascii	"GPS_EnableRxInt\000"
 2475      456E6162 
 2475      6C655278 
 2475      496E7400 
 2476              	.LASF15:
 2477 0221 72656738 		.ascii	"reg8\000"
 2477      00
 2478              	.LASF17:
 2479 0226 73697A65 		.ascii	"sizetype\000"
ARM GAS  C:\Users\javier\AppData\Local\Temp\ccsAAitb.s 			page 62


 2479      74797065 
 2479      00
 2480              	.LASF54:
 2481 022f 2E5C4765 		.ascii	".\\Generated_Source\\PSoC5\\GPS.c\000"
 2481      6E657261 
 2481      7465645F 
 2481      536F7572 
 2481      63655C50 
 2482              	.LASF6:
 2483 024e 6C6F6E67 		.ascii	"long long int\000"
 2483      206C6F6E 
 2483      6720696E 
 2483      7400
 2484              	.LASF41:
 2485 025c 4750535F 		.ascii	"GPS_ClearRxBuffer\000"
 2485      436C6561 
 2485      72527842 
 2485      75666665 
 2485      7200
 2486              	.LASF14:
 2487 026e 63686172 		.ascii	"char\000"
 2487      00
 2488              	.LASF51:
 2489 0273 4750535F 		.ascii	"GPS_rxBufferLoopDetect\000"
 2489      72784275 
 2489      66666572 
 2489      4C6F6F70 
 2489      44657465 
 2490              	.LASF30:
 2491 028a 6C6F635F 		.ascii	"loc_rxBufferRead\000"
 2491      72784275 
 2491      66666572 
 2491      52656164 
 2491      00
 2492              	.LASF2:
 2493 029b 73686F72 		.ascii	"short int\000"
 2493      7420696E 
 2493      7400
 2494              	.LASF19:
 2495 02a5 4750535F 		.ascii	"GPS_Init\000"
 2495      496E6974 
 2495      00
 2496              	.LASF55:
 2497 02ae 433A5C50 		.ascii	"C:\\Projects\\PSoC\\Bootloading_PSoC5_LP\\Bootloadi"
 2497      726F6A65 
 2497      6374735C 
 2497      50536F43 
 2497      5C426F6F 
 2498 02dd 6E675F50 		.ascii	"ng_PSoC5_LP.cydsn\000"
 2498      536F4335 
 2498      5F4C502E 
 2498      63796473 
 2498      6E00
 2499              	.LASF31:
 2500 02ef 6C6F635F 		.ascii	"loc_rxBufferWrite\000"
 2500      72784275 
 2500      66666572 
ARM GAS  C:\Users\javier\AppData\Local\Temp\ccsAAitb.s 			page 63


 2500      57726974 
 2500      6500
 2501              	.LASF21:
 2502 0301 4750535F 		.ascii	"GPS_Stop\000"
 2502      53746F70 
 2502      00
 2503              	.LASF38:
 2504 030a 4750535F 		.ascii	"GPS_GetByte\000"
 2504      47657442 
 2504      79746500 
 2505              	.LASF0:
 2506 0316 7369676E 		.ascii	"signed char\000"
 2506      65642063 
 2506      68617200 
 2507              	.LASF40:
 2508 0322 73697A65 		.ascii	"size\000"
 2508      00
 2509              	.LASF48:
 2510 0327 4750535F 		.ascii	"GPS_rxBuffer\000"
 2510      72784275 
 2510      66666572 
 2510      00
 2511              	.LASF44:
 2512 0334 4750535F 		.ascii	"GPS_SetRxAddress1\000"
 2512      53657452 
 2512      78416464 
 2512      72657373 
 2512      3100
 2513              	.LASF46:
 2514 0346 4750535F 		.ascii	"GPS_SetRxAddress2\000"
 2514      53657452 
 2514      78416464 
 2514      72657373 
 2514      3200
 2515              	.LASF25:
 2516 0358 4750535F 		.ascii	"GPS_DisableRxInt\000"
 2516      44697361 
 2516      626C6552 
 2516      78496E74 
 2516      00
 2517              		.ident	"GCC: (GNU Tools for ARM Embedded Processors) 4.7.3 20130312 (release) [ARM/embedded-4_7-br
