ARM GAS  C:\Users\javier\AppData\Local\Temp\ccC9pX9j.s 			page 1


   1              		.syntax unified
   2              		.cpu cortex-m3
   3              		.fpu softvfp
   4              		.eabi_attribute 20, 1
   5              		.eabi_attribute 21, 1
   6              		.eabi_attribute 23, 3
   7              		.eabi_attribute 24, 1
   8              		.eabi_attribute 25, 1
   9              		.eabi_attribute 26, 1
  10              		.eabi_attribute 30, 6
  11              		.eabi_attribute 34, 1
  12              		.eabi_attribute 18, 4
  13              		.thumb
  14              		.file	"main.c"
  15              		.text
  16              	.Ltext0:
  17              		.cfi_sections	.debug_frame
  18              		.comm	runMode,1,1
  19              		.global	MAX_STR
  20              		.section	.rodata
  21              		.align	2
  22              		.type	MAX_STR, %object
  23              		.size	MAX_STR, 4
  24              	MAX_STR:
  25 0000 96000000 		.word	150
  26              		.global	sdFile
  27              		.data
  28              		.align	2
  29              		.type	sdFile, %object
  30              		.size	sdFile, 10
  31              	sdFile:
  32 0000 47505344 		.ascii	"GPSDAT.txt"
  32      41542E74 
  32      7874
  33              		.global	CRLF
  34 000a 0000     		.align	2
  35              		.type	CRLF, %object
  36              		.size	CRLF, 2
  37              	CRLF:
  38 000c 0A       		.byte	10
  39 000d 0D       		.byte	13
  40              		.global	START
  41              		.type	START, %object
  42              		.size	START, 1
  43              	START:
  44 000e 24       		.byte	36
  45              		.global	gpsSeconds
  46 000f 00       		.align	2
  47              		.type	gpsSeconds, %object
  48              		.size	gpsSeconds, 2
  49              	gpsSeconds:
  50 0010 30       		.byte	48
  51 0011 30       		.byte	48
  52              		.comm	psoc4_msg,80,4
  53              		.comm	psoc4_buffer,80,4
  54              		.global	psoc4MsgPos
  55 0012 0000     		.bss
ARM GAS  C:\Users\javier\AppData\Local\Temp\ccC9pX9j.s 			page 2


  56              		.align	2
  57              		.type	psoc4MsgPos, %object
  58              		.size	psoc4MsgPos, 4
  59              	psoc4MsgPos:
  60 0000 00000000 		.space	4
  61              		.global	psoc4MsgStarted
  62              		.align	2
  63              		.type	psoc4MsgStarted, %object
  64              		.size	psoc4MsgStarted, 4
  65              	psoc4MsgStarted:
  66 0004 00000000 		.space	4
  67              		.comm	inPSoc4Char,1,1
  68              		.section	.text.clearBuffer,"ax",%progbits
  69              		.align	2
  70              		.global	clearBuffer
  71              		.thumb
  72              		.thumb_func
  73              		.type	clearBuffer, %function
  74              	clearBuffer:
  75              	.LFB56:
  76              		.file 1 ".\\main.c"
   1:.\main.c      **** /* ========================================
   2:.\main.c      ****  *
   3:.\main.c      ****  * Copyright YOUR COMPANY, THE YEAR
   4:.\main.c      ****  * All Rights Reserved
   5:.\main.c      ****  * UNPUBLISHED, LICENSED SOFTWARE.
   6:.\main.c      ****  *
   7:.\main.c      ****  * CONFIDENTIAL AND PROPRIETARY INFORMATION
   8:.\main.c      ****  * WHICH IS THE PROPERTY OF your company.
   9:.\main.c      ****  *
  10:.\main.c      ****  * ========================================
  11:.\main.c      **** */
  12:.\main.c      **** #include <device.h>
  13:.\main.c      **** #include <FS.h>
  14:.\main.c      **** #include <string.h>
  15:.\main.c      **** #include <Global.h>
  16:.\main.c      **** #include <stdlib.h>
  17:.\main.c      **** 
  18:.\main.c      **** int main();
  19:.\main.c      **** int logTime(char input[] );
  20:.\main.c      **** void clearBuffer(char *buff, int len);
  21:.\main.c      **** void clearPSoC4Buffer();
  22:.\main.c      **** void clearPSoC4Msg();
  23:.\main.c      **** void fetchPSoC4Msg();
  24:.\main.c      **** 
  25:.\main.c      **** enum RUN_MODE { RECORDING, SEND_BLUETOOTH } runMode;
  26:.\main.c      **** 
  27:.\main.c      **** /****************************************
  28:.\main.c      ****     Bluetooth Communication
  29:.\main.c      **** *****************************************/
  30:.\main.c      **** //void initBluetooth();
  31:.\main.c      **** //void clearBlueBuffer();
  32:.\main.c      **** /*enum RUN_MODE fetchPBlueMsg();
  33:.\main.c      **** void flushGPSData();*/
  34:.\main.c      **** 
  35:.\main.c      **** const int MAX_STR = 150;
  36:.\main.c      **** char sdFile[10] = "GPSDAT.txt";
ARM GAS  C:\Users\javier\AppData\Local\Temp\ccC9pX9j.s 			page 3


  37:.\main.c      **** char CRLF[2] = { 10, 13 };
  38:.\main.c      **** //Start character for GPS messages
  39:.\main.c      **** char START = '$';
  40:.\main.c      **** 
  41:.\main.c      **** char gpsSeconds[2] = {'0','0'};
  42:.\main.c      **** 
  43:.\main.c      **** 
  44:.\main.c      **** /****************************************
  45:.\main.c      ****     PSoC4 Data Buffers
  46:.\main.c      **** *****************************************/
  47:.\main.c      **** #define PSOC4_MSG_MAX  80
  48:.\main.c      **** char psoc4_msg[PSOC4_MSG_MAX];
  49:.\main.c      **** char psoc4_buffer[PSOC4_MSG_MAX];
  50:.\main.c      **** 
  51:.\main.c      **** int psoc4MsgPos = 0;
  52:.\main.c      **** int psoc4MsgStarted = 0;
  53:.\main.c      **** char inPSoc4Char;
  54:.\main.c      **** 
  55:.\main.c      **** void clearBuffer(char *buff, int len)
  56:.\main.c      **** {
  77              		.loc 1 56 0
  78              		.cfi_startproc
  79              		@ args = 0, pretend = 0, frame = 8
  80              		@ frame_needed = 1, uses_anonymous_args = 0
  81 0000 80B5     		push	{r7, lr}
  82              	.LCFI0:
  83              		.cfi_def_cfa_offset 8
  84              		.cfi_offset 7, -8
  85              		.cfi_offset 14, -4
  86 0002 82B0     		sub	sp, sp, #8
  87              	.LCFI1:
  88              		.cfi_def_cfa_offset 16
  89 0004 00AF     		add	r7, sp, #0
  90              	.LCFI2:
  91              		.cfi_def_cfa_register 7
  92 0006 7860     		str	r0, [r7, #4]
  93 0008 3960     		str	r1, [r7, #0]
  57:.\main.c      ****     memset(buff, 0, (sizeof(char)*len));
  94              		.loc 1 57 0
  95 000a 3B68     		ldr	r3, [r7, #0]
  96 000c 7868     		ldr	r0, [r7, #4]
  97 000e 4FF00001 		mov	r1, #0
  98 0012 1A46     		mov	r2, r3
  99 0014 FFF7FEFF 		bl	memset
  58:.\main.c      **** }
 100              		.loc 1 58 0
 101 0018 07F10807 		add	r7, r7, #8
 102 001c BD46     		mov	sp, r7
 103 001e 80BD     		pop	{r7, pc}
 104              		.cfi_endproc
 105              	.LFE56:
 106              		.size	clearBuffer, .-clearBuffer
 107              		.section	.text.clearPSoC4Buffer,"ax",%progbits
 108              		.align	2
 109              		.global	clearPSoC4Buffer
 110              		.thumb
 111              		.thumb_func
ARM GAS  C:\Users\javier\AppData\Local\Temp\ccC9pX9j.s 			page 4


 112              		.type	clearPSoC4Buffer, %function
 113              	clearPSoC4Buffer:
 114              	.LFB57:
  59:.\main.c      **** 
  60:.\main.c      **** void clearPSoC4Buffer()
  61:.\main.c      **** {
 115              		.loc 1 61 0
 116              		.cfi_startproc
 117              		@ args = 0, pretend = 0, frame = 0
 118              		@ frame_needed = 1, uses_anonymous_args = 0
 119 0000 80B5     		push	{r7, lr}
 120              	.LCFI3:
 121              		.cfi_def_cfa_offset 8
 122              		.cfi_offset 7, -8
 123              		.cfi_offset 14, -4
 124 0002 00AF     		add	r7, sp, #0
 125              	.LCFI4:
 126              		.cfi_def_cfa_register 7
  62:.\main.c      ****     clearBuffer(psoc4_buffer, PSOC4_MSG_MAX );
 127              		.loc 1 62 0
 128 0004 40F20000 		movw	r0, #:lower16:psoc4_buffer
 129 0008 C0F20000 		movt	r0, #:upper16:psoc4_buffer
 130 000c 4FF05001 		mov	r1, #80
 131 0010 FFF7FEFF 		bl	clearBuffer
  63:.\main.c      **** }
 132              		.loc 1 63 0
 133 0014 80BD     		pop	{r7, pc}
 134              		.cfi_endproc
 135              	.LFE57:
 136              		.size	clearPSoC4Buffer, .-clearPSoC4Buffer
 137 0016 00BF     		.section	.text.clearPSoC4Msg,"ax",%progbits
 138              		.align	2
 139              		.global	clearPSoC4Msg
 140              		.thumb
 141              		.thumb_func
 142              		.type	clearPSoC4Msg, %function
 143              	clearPSoC4Msg:
 144              	.LFB58:
  64:.\main.c      **** void clearPSoC4Msg()
  65:.\main.c      **** {
 145              		.loc 1 65 0
 146              		.cfi_startproc
 147              		@ args = 0, pretend = 0, frame = 0
 148              		@ frame_needed = 1, uses_anonymous_args = 0
 149 0000 80B5     		push	{r7, lr}
 150              	.LCFI5:
 151              		.cfi_def_cfa_offset 8
 152              		.cfi_offset 7, -8
 153              		.cfi_offset 14, -4
 154 0002 00AF     		add	r7, sp, #0
 155              	.LCFI6:
 156              		.cfi_def_cfa_register 7
  66:.\main.c      ****     clearBuffer(psoc4_msg, PSOC4_MSG_MAX );
 157              		.loc 1 66 0
 158 0004 40F20000 		movw	r0, #:lower16:psoc4_msg
 159 0008 C0F20000 		movt	r0, #:upper16:psoc4_msg
 160 000c 4FF05001 		mov	r1, #80
ARM GAS  C:\Users\javier\AppData\Local\Temp\ccC9pX9j.s 			page 5


 161 0010 FFF7FEFF 		bl	clearBuffer
  67:.\main.c      **** }
 162              		.loc 1 67 0
 163 0014 80BD     		pop	{r7, pc}
 164              		.cfi_endproc
 165              	.LFE58:
 166              		.size	clearPSoC4Msg, .-clearPSoC4Msg
 167 0016 00BF     		.section	.text.movePSoC4Buffer2Msg,"ax",%progbits
 168              		.align	2
 169              		.global	movePSoC4Buffer2Msg
 170              		.thumb
 171              		.thumb_func
 172              		.type	movePSoC4Buffer2Msg, %function
 173              	movePSoC4Buffer2Msg:
 174              	.LFB59:
  68:.\main.c      **** 
  69:.\main.c      **** void movePSoC4Buffer2Msg()
  70:.\main.c      **** {
 175              		.loc 1 70 0
 176              		.cfi_startproc
 177              		@ args = 0, pretend = 0, frame = 0
 178              		@ frame_needed = 1, uses_anonymous_args = 0
 179 0000 80B5     		push	{r7, lr}
 180              	.LCFI7:
 181              		.cfi_def_cfa_offset 8
 182              		.cfi_offset 7, -8
 183              		.cfi_offset 14, -4
 184 0002 00AF     		add	r7, sp, #0
 185              	.LCFI8:
 186              		.cfi_def_cfa_register 7
  71:.\main.c      ****     memcpy(psoc4_msg, psoc4_buffer, strlen(psoc4_buffer)+1 );
 187              		.loc 1 71 0
 188 0004 40F20000 		movw	r0, #:lower16:psoc4_buffer
 189 0008 C0F20000 		movt	r0, #:upper16:psoc4_buffer
 190 000c FFF7FEFF 		bl	strlen
 191 0010 0346     		mov	r3, r0
 192 0012 03F10103 		add	r3, r3, #1
 193 0016 40F20000 		movw	r0, #:lower16:psoc4_msg
 194 001a C0F20000 		movt	r0, #:upper16:psoc4_msg
 195 001e 40F20001 		movw	r1, #:lower16:psoc4_buffer
 196 0022 C0F20001 		movt	r1, #:upper16:psoc4_buffer
 197 0026 1A46     		mov	r2, r3
 198 0028 FFF7FEFF 		bl	memcpy
  72:.\main.c      ****     clearPSoC4Buffer();
 199              		.loc 1 72 0
 200 002c FFF7FEFF 		bl	clearPSoC4Buffer
  73:.\main.c      **** }
 201              		.loc 1 73 0
 202 0030 80BD     		pop	{r7, pc}
 203              		.cfi_endproc
 204              	.LFE59:
 205              		.size	movePSoC4Buffer2Msg, .-movePSoC4Buffer2Msg
 206 0032 00BF     		.section	.rodata
 207              		.align	2
 208              	.LC0:
 209 0004 6100     		.ascii	"a\000"
 210 0006 0000     		.align	2
ARM GAS  C:\Users\javier\AppData\Local\Temp\ccC9pX9j.s 			page 6


 211              	.LC1:
 212 0008 24475052 		.ascii	"$GPRMC\000"
 212      4D4300
 213 000f 00       		.align	2
 214              	.LC2:
 215 0010 0A00     		.ascii	"\012\000"
 216              		.section	.text.main,"ax",%progbits
 217              		.align	2
 218              		.global	main
 219              		.thumb
 220              		.thumb_func
 221              		.type	main, %function
 222              	main:
 223              	.LFB60:
  74:.\main.c      **** 
  75:.\main.c      **** 
  76:.\main.c      **** int main()
  77:.\main.c      **** {
 224              		.loc 1 77 0
 225              		.cfi_startproc
 226              		@ args = 0, pretend = 0, frame = 40
 227              		@ frame_needed = 1, uses_anonymous_args = 0
 228 0000 2DE9B043 		push	{r4, r5, r7, r8, r9, lr}
 229              	.LCFI9:
 230              		.cfi_def_cfa_offset 24
 231              		.cfi_offset 4, -24
 232              		.cfi_offset 5, -20
 233              		.cfi_offset 7, -16
 234              		.cfi_offset 8, -12
 235              		.cfi_offset 9, -8
 236              		.cfi_offset 14, -4
 237 0004 8AB0     		sub	sp, sp, #40
 238              	.LCFI10:
 239              		.cfi_def_cfa_offset 64
 240 0006 00AF     		add	r7, sp, #0
 241              	.LCFI11:
 242              		.cfi_def_cfa_register 7
  78:.\main.c      ****     //Set default status as Running
  79:.\main.c      ****     runMode = RECORDING;
 243              		.loc 1 79 0
 244 0008 40F20003 		movw	r3, #:lower16:runMode
 245 000c C0F20003 		movt	r3, #:upper16:runMode
 246 0010 4FF00002 		mov	r2, #0
 247 0014 1A70     		strb	r2, [r3, #0]
  80:.\main.c      ****     /* Place your initialization/startup code here (e.g. MyInst_Start()) */
  81:.\main.c      **** 	PWM_1_Start();
 248              		.loc 1 81 0
 249 0016 FFF7FEFF 		bl	PWM_1_Start
  82:.\main.c      ****     char sdVolName[10];     /* Buffer that will hold SD card Volume name */
  83:.\main.c      ****     //U16 step = 1u;
  84:.\main.c      ****     FS_FILE * pFile;    
  85:.\main.c      ****     char inChar;    
  86:.\main.c      ****     GPS_Init();
 250              		.loc 1 86 0
 251 001a FFF7FEFF 		bl	GPS_Init
  87:.\main.c      ****     GPS_Start();
 252              		.loc 1 87 0
ARM GAS  C:\Users\javier\AppData\Local\Temp\ccC9pX9j.s 			page 7


 253 001e FFF7FEFF 		bl	GPS_Start
  88:.\main.c      ****     
  89:.\main.c      ****     PSOC4_Init();
 254              		.loc 1 89 0
 255 0022 FFF7FEFF 		bl	PSOC4_Init
  90:.\main.c      ****     PSOC4_Start();
 256              		.loc 1 90 0
 257 0026 FFF7FEFF 		bl	PSOC4_Start
  91:.\main.c      ****     
  92:.\main.c      ****     /* Initialize file system */
  93:.\main.c      ****     FS_Init();
 258              		.loc 1 93 0
 259 002a FFF7FEFF 		bl	FS_Init
  94:.\main.c      ****     
  95:.\main.c      ****     //Initialize Bluetooth UART
  96:.\main.c      ****     //initBluetooth();
  97:.\main.c      ****     
  98:.\main.c      ****     char inputLine[MAX_STR];
 260              		.loc 1 98 0
 261 002e 40F20003 		movw	r3, #:lower16:MAX_STR
 262 0032 C0F20003 		movt	r3, #:upper16:MAX_STR
 263 0036 1B68     		ldr	r3, [r3, #0]
 264 0038 03F1FF33 		add	r3, r3, #-1
 265 003c FB61     		str	r3, [r7, #28]
 266 003e 40F20003 		movw	r3, #:lower16:MAX_STR
 267 0042 C0F20003 		movt	r3, #:upper16:MAX_STR
 268 0046 1B68     		ldr	r3, [r3, #0]
 269 0048 1946     		mov	r1, r3
 270 004a 0A46     		mov	r2, r1
 271 004c 4FF00003 		mov	r3, #0
 272 0050 4FEA5271 		lsr	r1, r2, #29
 273 0054 4FEAC309 		lsl	r9, r3, #3
 274 0058 41EA0909 		orr	r9, r1, r9
 275 005c 4FEAC208 		lsl	r8, r2, #3
 276 0060 40F20003 		movw	r3, #:lower16:MAX_STR
 277 0064 C0F20003 		movt	r3, #:upper16:MAX_STR
 278 0068 1B68     		ldr	r3, [r3, #0]
 279 006a 1946     		mov	r1, r3
 280 006c 0A46     		mov	r2, r1
 281 006e 4FF00003 		mov	r3, #0
 282 0072 4FEA5271 		lsr	r1, r2, #29
 283 0076 4FEAC305 		lsl	r5, r3, #3
 284 007a 0D43     		orrs	r5, r5, r1
 285 007c 4FEAC204 		lsl	r4, r2, #3
 286 0080 40F20003 		movw	r3, #:lower16:MAX_STR
 287 0084 C0F20003 		movt	r3, #:upper16:MAX_STR
 288 0088 1B68     		ldr	r3, [r3, #0]
 289 008a 03F10703 		add	r3, r3, #7
 290 008e 4FEAD303 		lsr	r3, r3, #3
 291 0092 4FEAC303 		lsl	r3, r3, #3
 292 0096 ADEB030D 		sub	sp, sp, r3
 293 009a 6B46     		mov	r3, sp
 294 009c 03F10003 		add	r3, r3, #0
 295 00a0 BB61     		str	r3, [r7, #24]
  99:.\main.c      ****     int pos=0;
 296              		.loc 1 99 0
 297 00a2 4FF00003 		mov	r3, #0
ARM GAS  C:\Users\javier\AppData\Local\Temp\ccC9pX9j.s 			page 8


 298 00a6 7B62     		str	r3, [r7, #36]
 100:.\main.c      ****     //memset(inputLine, sizeof(char)*MAX_STR,0);
 101:.\main.c      ****     memset(inputLine, 0, sizeof(char)*MAX_STR );
 299              		.loc 1 101 0
 300 00a8 BA69     		ldr	r2, [r7, #24]
 301 00aa 40F20003 		movw	r3, #:lower16:MAX_STR
 302 00ae C0F20003 		movt	r3, #:upper16:MAX_STR
 303 00b2 1B68     		ldr	r3, [r3, #0]
 304 00b4 1046     		mov	r0, r2
 305 00b6 4FF00001 		mov	r1, #0
 306 00ba 1A46     		mov	r2, r3
 307 00bc FFF7FEFF 		bl	memset
 102:.\main.c      ****     
 103:.\main.c      ****     /* Get volume name of SD card #0 */
 104:.\main.c      ****     if(0 != FS_GetVolumeName(0u, &sdVolName[0], 9u))
 308              		.loc 1 104 0
 309 00c0 07F10803 		add	r3, r7, #8
 310 00c4 4FF00000 		mov	r0, #0
 311 00c8 1946     		mov	r1, r3
 312 00ca 4FF00902 		mov	r2, #9
 313 00ce FFF7FEFF 		bl	FS_GetVolumeName
 105:.\main.c      ****     {
 106:.\main.c      ****     }
 107:.\main.c      **** 
 108:.\main.c      ****     CyGlobalIntEnable; /* Uncomment this line to enable global interrupts. */
 314              		.loc 1 108 0
 315              	@ 108 ".\main.c" 1
 316 00d2 62B6     		CPSIE   i
 317              	@ 0 "" 2
 109:.\main.c      ****     /* Create specific file for modification */
 110:.\main.c      ****     pFile = FS_FOpen(sdFile, "a");
 318              		.loc 1 110 0
 319              		.thumb
 320 00d4 40F20000 		movw	r0, #:lower16:sdFile
 321 00d8 C0F20000 		movt	r0, #:upper16:sdFile
 322 00dc 40F20001 		movw	r1, #:lower16:.LC0
 323 00e0 C0F20001 		movt	r1, #:upper16:.LC0
 324 00e4 FFF7FEFF 		bl	FS_FOpen
 325 00e8 7861     		str	r0, [r7, #20]
 111:.\main.c      ****     int started = 0;
 326              		.loc 1 111 0
 327 00ea 4FF00003 		mov	r3, #0
 328 00ee 3B62     		str	r3, [r7, #32]
 329 00f0 00E0     		b	.L14
 330              	.L15:
 112:.\main.c      ****     //char inPSOC4;
 113:.\main.c      ****     for(;;)
 114:.\main.c      ****     {
 115:.\main.c      ****         //This may change run mode
 116:.\main.c      ****         /*runMode = fetchPBlueMsg();
 117:.\main.c      ****         if( runMode != RECORDING )
 118:.\main.c      ****         {
 119:.\main.c      ****             //Close existing file
 120:.\main.c      ****             FS_FClose( pFile );    
 121:.\main.c      ****             //Open file for Reading
 122:.\main.c      ****             pFile = FS_FOpen(sdFile, "r");
 123:.\main.c      ****             //Move to the beginning of the file
ARM GAS  C:\Users\javier\AppData\Local\Temp\ccC9pX9j.s 			page 9


 124:.\main.c      ****             FS_FSeek(pFile, 0, 0 );
 125:.\main.c      ****             //Flush SDCard to Bluetooth
 126:.\main.c      ****             flushGPSData( pFile );
 127:.\main.c      ****             FS_FClose( pFile ); 
 128:.\main.c      ****             CyDelay(5);
 129:.\main.c      ****             pFile = FS_FOpen(sdFile, "a");
 130:.\main.c      ****         }*/
 131:.\main.c      **** 
 132:.\main.c      ****         //Fetch data from PSoC4
 133:.\main.c      ****         fetchPSoC4Msg();
 134:.\main.c      ****         
 135:.\main.c      ****         inChar = GPS_GetChar();
 136:.\main.c      ****         if( inChar == START ){
 137:.\main.c      ****             started = 1;
 138:.\main.c      ****             pos=0;
 139:.\main.c      ****         }
 140:.\main.c      **** 
 141:.\main.c      ****         /* Place your application code here. */
 142:.\main.c      ****         if( pos >=MAX_STR ){
 143:.\main.c      ****             //Avoid overflow - clear buffer
 144:.\main.c      ****             pos=0;
 145:.\main.c      ****             memset(inputLine, sizeof(char)*MAX_STR,0);
 146:.\main.c      ****         }else if( inChar == 13 ){
 147:.\main.c      ****             //Line Feed - Time to break into new line!!
 148:.\main.c      ****             //Flush to disk!!            
 149:.\main.c      ****             if( pos >5 ){
 150:.\main.c      ****                 if( strncmp(inputLine, "$GPRMC", 6 ) == 0 ){                    
 151:.\main.c      ****                     char input[2];
 152:.\main.c      ****                     input[0] = inputLine[11];
 153:.\main.c      ****                     input[1] = inputLine[12];
 154:.\main.c      ****                     if( logTime(input ) )
 155:.\main.c      ****                     {
 156:.\main.c      ****                         pos--;
 157:.\main.c      ****                         FS_Write(pFile, inputLine, pos);
 158:.\main.c      ****                         //If Msg is not empty
 159:.\main.c      ****                         if( psoc4_msg[0] != 0 )
 160:.\main.c      ****                         {                                 
 161:.\main.c      ****                             FS_Write(pFile, psoc4_msg, strlen(psoc4_msg));                        
 162:.\main.c      ****                         }else{
 163:.\main.c      ****                             FS_Write(pFile, psoc4_buffer,(psoc4MsgPos-1));                         
 164:.\main.c      ****                         }
 165:.\main.c      ****                         //CyDelay(2);
 166:.\main.c      ****                         FS_Write(pFile, "\n", 1);
 167:.\main.c      ****                         //CyDelay(1);
 168:.\main.c      ****                     }                    
 169:.\main.c      ****                 }                
 170:.\main.c      ****             }
 171:.\main.c      ****             started = 0;
 172:.\main.c      ****             pos=0;
 173:.\main.c      ****             memset(inputLine, sizeof(char)*MAX_STR,0);
 174:.\main.c      ****         }else if( started>0 && inChar != 0 && inChar != 10 && inChar != 13 ){
 175:.\main.c      ****             inputLine[pos] = inChar;
 176:.\main.c      ****             pos++;
 177:.\main.c      ****         }
 178:.\main.c      ****     }
 331              		.loc 1 178 0
 332 00f2 00BF     		nop
ARM GAS  C:\Users\javier\AppData\Local\Temp\ccC9pX9j.s 			page 10


 333              	.L14:
 133:.\main.c      ****         fetchPSoC4Msg();
 334              		.loc 1 133 0
 335 00f4 FFF7FEFF 		bl	fetchPSoC4Msg
 135:.\main.c      ****         inChar = GPS_GetChar();
 336              		.loc 1 135 0
 337 00f8 FFF7FEFF 		bl	GPS_GetChar
 338 00fc 0346     		mov	r3, r0
 339 00fe FB74     		strb	r3, [r7, #19]
 136:.\main.c      ****         if( inChar == START ){
 340              		.loc 1 136 0
 341 0100 40F20003 		movw	r3, #:lower16:START
 342 0104 C0F20003 		movt	r3, #:upper16:START
 343 0108 1B78     		ldrb	r3, [r3, #0]	@ zero_extendqisi2
 344 010a FA7C     		ldrb	r2, [r7, #19]	@ zero_extendqisi2
 345 010c 9A42     		cmp	r2, r3
 346 010e 05D1     		bne	.L6
 137:.\main.c      ****             started = 1;
 347              		.loc 1 137 0
 348 0110 4FF00103 		mov	r3, #1
 349 0114 3B62     		str	r3, [r7, #32]
 138:.\main.c      ****             pos=0;
 350              		.loc 1 138 0
 351 0116 4FF00003 		mov	r3, #0
 352 011a 7B62     		str	r3, [r7, #36]
 353              	.L6:
 142:.\main.c      ****         if( pos >=MAX_STR ){
 354              		.loc 1 142 0
 355 011c 40F20003 		movw	r3, #:lower16:MAX_STR
 356 0120 C0F20003 		movt	r3, #:upper16:MAX_STR
 357 0124 1B68     		ldr	r3, [r3, #0]
 358 0126 7A6A     		ldr	r2, [r7, #36]
 359 0128 9A42     		cmp	r2, r3
 360 012a 03DB     		blt	.L7
 144:.\main.c      ****             pos=0;
 361              		.loc 1 144 0
 362 012c 4FF00003 		mov	r3, #0
 363 0130 7B62     		str	r3, [r7, #36]
 364              		.loc 1 178 0
 365 0132 DEE7     		b	.L15
 366              	.L7:
 146:.\main.c      ****         }else if( inChar == 13 ){
 367              		.loc 1 146 0
 368 0134 FB7C     		ldrb	r3, [r7, #19]	@ zero_extendqisi2
 369 0136 0D2B     		cmp	r3, #13
 370 0138 5ED1     		bne	.L9
 149:.\main.c      ****             if( pos >5 ){
 371              		.loc 1 149 0
 372 013a 7B6A     		ldr	r3, [r7, #36]
 373 013c 052B     		cmp	r3, #5
 374 013e 54DD     		ble	.L10
 150:.\main.c      ****                 if( strncmp(inputLine, "$GPRMC", 6 ) == 0 ){                    
 375              		.loc 1 150 0
 376 0140 BB69     		ldr	r3, [r7, #24]
 377 0142 1846     		mov	r0, r3
 378 0144 40F20001 		movw	r1, #:lower16:.LC1
 379 0148 C0F20001 		movt	r1, #:upper16:.LC1
ARM GAS  C:\Users\javier\AppData\Local\Temp\ccC9pX9j.s 			page 11


 380 014c 4FF00602 		mov	r2, #6
 381 0150 FFF7FEFF 		bl	strncmp
 382 0154 0346     		mov	r3, r0
 383 0156 002B     		cmp	r3, #0
 384 0158 47D1     		bne	.L10
 385              	.LBB2:
 152:.\main.c      ****                     input[0] = inputLine[11];
 386              		.loc 1 152 0
 387 015a BB69     		ldr	r3, [r7, #24]
 388 015c DB7A     		ldrb	r3, [r3, #11]	@ zero_extendqisi2
 389 015e 3B71     		strb	r3, [r7, #4]
 153:.\main.c      ****                     input[1] = inputLine[12];
 390              		.loc 1 153 0
 391 0160 BB69     		ldr	r3, [r7, #24]
 392 0162 1B7B     		ldrb	r3, [r3, #12]	@ zero_extendqisi2
 393 0164 7B71     		strb	r3, [r7, #5]
 154:.\main.c      ****                     if( logTime(input ) )
 394              		.loc 1 154 0
 395 0166 07F10403 		add	r3, r7, #4
 396 016a 1846     		mov	r0, r3
 397 016c FFF7FEFF 		bl	logTime
 398 0170 0346     		mov	r3, r0
 399 0172 002B     		cmp	r3, #0
 400 0174 39D0     		beq	.L10
 156:.\main.c      ****                         pos--;
 401              		.loc 1 156 0
 402 0176 7B6A     		ldr	r3, [r7, #36]
 403 0178 03F1FF33 		add	r3, r3, #-1
 404 017c 7B62     		str	r3, [r7, #36]
 157:.\main.c      ****                         FS_Write(pFile, inputLine, pos);
 405              		.loc 1 157 0
 406 017e BA69     		ldr	r2, [r7, #24]
 407 0180 7B6A     		ldr	r3, [r7, #36]
 408 0182 7869     		ldr	r0, [r7, #20]
 409 0184 1146     		mov	r1, r2
 410 0186 1A46     		mov	r2, r3
 411 0188 FFF7FEFF 		bl	FS_Write
 159:.\main.c      ****                         if( psoc4_msg[0] != 0 )
 412              		.loc 1 159 0
 413 018c 40F20003 		movw	r3, #:lower16:psoc4_msg
 414 0190 C0F20003 		movt	r3, #:upper16:psoc4_msg
 415 0194 1B78     		ldrb	r3, [r3, #0]	@ zero_extendqisi2
 416 0196 002B     		cmp	r3, #0
 417 0198 0FD0     		beq	.L12
 161:.\main.c      ****                             FS_Write(pFile, psoc4_msg, strlen(psoc4_msg));                        
 418              		.loc 1 161 0
 419 019a 40F20000 		movw	r0, #:lower16:psoc4_msg
 420 019e C0F20000 		movt	r0, #:upper16:psoc4_msg
 421 01a2 FFF7FEFF 		bl	strlen
 422 01a6 0346     		mov	r3, r0
 423 01a8 7869     		ldr	r0, [r7, #20]
 424 01aa 40F20001 		movw	r1, #:lower16:psoc4_msg
 425 01ae C0F20001 		movt	r1, #:upper16:psoc4_msg
 426 01b2 1A46     		mov	r2, r3
 427 01b4 FFF7FEFF 		bl	FS_Write
 428 01b8 0EE0     		b	.L13
 429              	.L12:
ARM GAS  C:\Users\javier\AppData\Local\Temp\ccC9pX9j.s 			page 12


 163:.\main.c      ****                             FS_Write(pFile, psoc4_buffer,(psoc4MsgPos-1));                         
 430              		.loc 1 163 0
 431 01ba 40F20003 		movw	r3, #:lower16:psoc4MsgPos
 432 01be C0F20003 		movt	r3, #:upper16:psoc4MsgPos
 433 01c2 1B68     		ldr	r3, [r3, #0]
 434 01c4 03F1FF33 		add	r3, r3, #-1
 435 01c8 7869     		ldr	r0, [r7, #20]
 436 01ca 40F20001 		movw	r1, #:lower16:psoc4_buffer
 437 01ce C0F20001 		movt	r1, #:upper16:psoc4_buffer
 438 01d2 1A46     		mov	r2, r3
 439 01d4 FFF7FEFF 		bl	FS_Write
 440              	.L13:
 166:.\main.c      ****                         FS_Write(pFile, "\n", 1);
 441              		.loc 1 166 0
 442 01d8 7869     		ldr	r0, [r7, #20]
 443 01da 40F20001 		movw	r1, #:lower16:.LC2
 444 01de C0F20001 		movt	r1, #:upper16:.LC2
 445 01e2 4FF00102 		mov	r2, #1
 446 01e6 FFF7FEFF 		bl	FS_Write
 447              	.L10:
 448              	.LBE2:
 171:.\main.c      ****             started = 0;
 449              		.loc 1 171 0
 450 01ea 4FF00003 		mov	r3, #0
 451 01ee 3B62     		str	r3, [r7, #32]
 172:.\main.c      ****             pos=0;
 452              		.loc 1 172 0
 453 01f0 4FF00003 		mov	r3, #0
 454 01f4 7B62     		str	r3, [r7, #36]
 455              		.loc 1 178 0
 456 01f6 7CE7     		b	.L15
 457              	.L9:
 174:.\main.c      ****         }else if( started>0 && inChar != 0 && inChar != 10 && inChar != 13 ){
 458              		.loc 1 174 0
 459 01f8 3B6A     		ldr	r3, [r7, #32]
 460 01fa 002B     		cmp	r3, #0
 461 01fc 7FF779AF 		ble	.L15
 174:.\main.c      ****         }else if( started>0 && inChar != 0 && inChar != 10 && inChar != 13 ){
 462              		.loc 1 174 0 is_stmt 0 discriminator 1
 463 0200 FB7C     		ldrb	r3, [r7, #19]	@ zero_extendqisi2
 464 0202 002B     		cmp	r3, #0
 465 0204 3FF475AF 		beq	.L15
 466 0208 FB7C     		ldrb	r3, [r7, #19]	@ zero_extendqisi2
 467 020a 0A2B     		cmp	r3, #10
 468 020c 3FF471AF 		beq	.L15
 469 0210 FB7C     		ldrb	r3, [r7, #19]	@ zero_extendqisi2
 470 0212 0D2B     		cmp	r3, #13
 471 0214 3FF46DAF 		beq	.L15
 175:.\main.c      ****             inputLine[pos] = inChar;
 472              		.loc 1 175 0 is_stmt 1
 473 0218 BA69     		ldr	r2, [r7, #24]
 474 021a 7B6A     		ldr	r3, [r7, #36]
 475 021c D318     		adds	r3, r2, r3
 476 021e FA7C     		ldrb	r2, [r7, #19]
 477 0220 1A70     		strb	r2, [r3, #0]
 176:.\main.c      ****             pos++;
 478              		.loc 1 176 0
ARM GAS  C:\Users\javier\AppData\Local\Temp\ccC9pX9j.s 			page 13


 479 0222 7B6A     		ldr	r3, [r7, #36]
 480 0224 03F10103 		add	r3, r3, #1
 481 0228 7B62     		str	r3, [r7, #36]
 482              		.loc 1 178 0
 483 022a 62E7     		b	.L15
 484              		.cfi_endproc
 485              	.LFE60:
 486              		.size	main, .-main
 487              		.global	iLastSec
 488              		.bss
 489              		.align	2
 490              		.type	iLastSec, %object
 491              		.size	iLastSec, 4
 492              	iLastSec:
 493 0008 00000000 		.space	4
 494              		.section	.text.logTime,"ax",%progbits
 495              		.align	2
 496              		.global	logTime
 497              		.thumb
 498              		.thumb_func
 499              		.type	logTime, %function
 500              	logTime:
 501              	.LFB61:
 179:.\main.c      ****     
 180:.\main.c      ****     return 0;
 181:.\main.c      **** }
 182:.\main.c      **** 
 183:.\main.c      **** 
 184:.\main.c      **** //$GPRMC,020036
 185:.\main.c      **** int iLastSec = 0;
 186:.\main.c      **** int logTime(char input[] )
 187:.\main.c      **** {
 502              		.loc 1 187 0
 503              		.cfi_startproc
 504              		@ args = 0, pretend = 0, frame = 16
 505              		@ frame_needed = 1, uses_anonymous_args = 0
 506              		@ link register save eliminated.
 507 0000 80B4     		push	{r7}
 508              	.LCFI12:
 509              		.cfi_def_cfa_offset 4
 510              		.cfi_offset 7, -4
 511 0002 85B0     		sub	sp, sp, #20
 512              	.LCFI13:
 513              		.cfi_def_cfa_offset 24
 514 0004 00AF     		add	r7, sp, #0
 515              	.LCFI14:
 516              		.cfi_def_cfa_register 7
 517 0006 7860     		str	r0, [r7, #4]
 188:.\main.c      ****   int logMe = 0;
 518              		.loc 1 188 0
 519 0008 4FF00003 		mov	r3, #0
 520 000c FB60     		str	r3, [r7, #12]
 189:.\main.c      ****   int value = (input[0]-48)*10 + (input[1]-48);  
 521              		.loc 1 189 0
 522 000e 7B68     		ldr	r3, [r7, #4]
 523 0010 1B78     		ldrb	r3, [r3, #0]	@ zero_extendqisi2
 524 0012 1A46     		mov	r2, r3
ARM GAS  C:\Users\javier\AppData\Local\Temp\ccC9pX9j.s 			page 14


 525 0014 1346     		mov	r3, r2
 526 0016 4FEA8303 		lsl	r3, r3, #2
 527 001a 9B18     		adds	r3, r3, r2
 528 001c 4FEA4303 		lsl	r3, r3, #1
 529 0020 A3F5F072 		sub	r2, r3, #480
 530 0024 7B68     		ldr	r3, [r7, #4]
 531 0026 03F10103 		add	r3, r3, #1
 532 002a 1B78     		ldrb	r3, [r3, #0]	@ zero_extendqisi2
 533 002c A3F13003 		sub	r3, r3, #48
 534 0030 D318     		adds	r3, r2, r3
 535 0032 BB60     		str	r3, [r7, #8]
 190:.\main.c      ****   if( (iLastSec - value) >= 5 || (iLastSec - value) <= -5 )
 536              		.loc 1 190 0
 537 0034 40F20003 		movw	r3, #:lower16:iLastSec
 538 0038 C0F20003 		movt	r3, #:upper16:iLastSec
 539 003c 1A68     		ldr	r2, [r3, #0]
 540 003e BB68     		ldr	r3, [r7, #8]
 541 0040 D31A     		subs	r3, r2, r3
 542 0042 042B     		cmp	r3, #4
 543 0044 09DC     		bgt	.L17
 544              		.loc 1 190 0 is_stmt 0 discriminator 1
 545 0046 40F20003 		movw	r3, #:lower16:iLastSec
 546 004a C0F20003 		movt	r3, #:upper16:iLastSec
 547 004e 1A68     		ldr	r2, [r3, #0]
 548 0050 BB68     		ldr	r3, [r7, #8]
 549 0052 D31A     		subs	r3, r2, r3
 550 0054 13F1040F 		cmn	r3, #4
 551 0058 08DA     		bge	.L18
 552              	.L17:
 191:.\main.c      ****   {
 192:.\main.c      ****     iLastSec = value;
 553              		.loc 1 192 0 is_stmt 1
 554 005a 40F20003 		movw	r3, #:lower16:iLastSec
 555 005e C0F20003 		movt	r3, #:upper16:iLastSec
 556 0062 BA68     		ldr	r2, [r7, #8]
 557 0064 1A60     		str	r2, [r3, #0]
 193:.\main.c      ****     logMe = 1;
 558              		.loc 1 193 0
 559 0066 4FF00103 		mov	r3, #1
 560 006a FB60     		str	r3, [r7, #12]
 561              	.L18:
 194:.\main.c      ****   }
 195:.\main.c      **** 
 196:.\main.c      ****   return logMe;
 562              		.loc 1 196 0
 563 006c FB68     		ldr	r3, [r7, #12]
 197:.\main.c      **** }
 564              		.loc 1 197 0
 565 006e 1846     		mov	r0, r3
 566 0070 07F11407 		add	r7, r7, #20
 567 0074 BD46     		mov	sp, r7
 568 0076 80BC     		pop	{r7}
 569 0078 7047     		bx	lr
 570              		.cfi_endproc
 571              	.LFE61:
 572              		.size	logTime, .-logTime
 573 007a 00BF     		.section	.rodata
ARM GAS  C:\Users\javier\AppData\Local\Temp\ccC9pX9j.s 			page 15


 574 0012 0000     		.align	2
 575              	.LC3:
 576 0014 3A00     		.ascii	":\000"
 577 0016 0000     		.section	.text.fetchPSoC4Msg,"ax",%progbits
 578              		.align	2
 579              		.global	fetchPSoC4Msg
 580              		.thumb
 581              		.thumb_func
 582              		.type	fetchPSoC4Msg, %function
 583              	fetchPSoC4Msg:
 584              	.LFB62:
 198:.\main.c      **** 
 199:.\main.c      **** 
 200:.\main.c      **** 
 201:.\main.c      **** void fetchPSoC4Msg()
 202:.\main.c      **** {
 585              		.loc 1 202 0
 586              		.cfi_startproc
 587              		@ args = 0, pretend = 0, frame = 0
 588              		@ frame_needed = 1, uses_anonymous_args = 0
 589 0000 80B5     		push	{r7, lr}
 590              	.LCFI15:
 591              		.cfi_def_cfa_offset 8
 592              		.cfi_offset 7, -8
 593              		.cfi_offset 14, -4
 594 0002 00AF     		add	r7, sp, #0
 595              	.LCFI16:
 596              		.cfi_def_cfa_register 7
 203:.\main.c      ****     //handle all PSoc4Msg parsing of mesg
 204:.\main.c      ****     inPSoc4Char = PSOC4_GetChar();
 597              		.loc 1 204 0
 598 0004 FFF7FEFF 		bl	PSOC4_GetChar
 599 0008 0346     		mov	r3, r0
 600 000a 1A46     		mov	r2, r3
 601 000c 40F20003 		movw	r3, #:lower16:inPSoc4Char
 602 0010 C0F20003 		movt	r3, #:upper16:inPSoc4Char
 603 0014 1A70     		strb	r2, [r3, #0]
 205:.\main.c      **** 
 206:.\main.c      ****     if( inPSoc4Char == ':' ){        
 604              		.loc 1 206 0
 605 0016 40F20003 		movw	r3, #:lower16:inPSoc4Char
 606 001a C0F20003 		movt	r3, #:upper16:inPSoc4Char
 607 001e 1B78     		ldrb	r3, [r3, #0]	@ zero_extendqisi2
 608 0020 3A2B     		cmp	r3, #58
 609 0022 0DD1     		bne	.L21
 207:.\main.c      ****         psoc4MsgStarted = 1;
 610              		.loc 1 207 0
 611 0024 40F20003 		movw	r3, #:lower16:psoc4MsgStarted
 612 0028 C0F20003 		movt	r3, #:upper16:psoc4MsgStarted
 613 002c 4FF00102 		mov	r2, #1
 614 0030 1A60     		str	r2, [r3, #0]
 208:.\main.c      ****         psoc4MsgPos=0;
 615              		.loc 1 208 0
 616 0032 40F20003 		movw	r3, #:lower16:psoc4MsgPos
 617 0036 C0F20003 		movt	r3, #:upper16:psoc4MsgPos
 618 003a 4FF00002 		mov	r2, #0
 619 003e 1A60     		str	r2, [r3, #0]
ARM GAS  C:\Users\javier\AppData\Local\Temp\ccC9pX9j.s 			page 16


 620              	.L21:
 209:.\main.c      ****     }
 210:.\main.c      ****     //Check for any overflow
 211:.\main.c      ****     if( psoc4MsgPos >=PSOC4_MSG_MAX ){
 621              		.loc 1 211 0
 622 0040 40F20003 		movw	r3, #:lower16:psoc4MsgPos
 623 0044 C0F20003 		movt	r3, #:upper16:psoc4MsgPos
 624 0048 1B68     		ldr	r3, [r3, #0]
 625 004a 4F2B     		cmp	r3, #79
 626 004c 09DD     		ble	.L22
 212:.\main.c      ****         //Avoid overflow - clear buffer
 213:.\main.c      ****         psoc4MsgPos=0;            
 627              		.loc 1 213 0
 628 004e 40F20003 		movw	r3, #:lower16:psoc4MsgPos
 629 0052 C0F20003 		movt	r3, #:upper16:psoc4MsgPos
 630 0056 4FF00002 		mov	r2, #0
 631 005a 1A60     		str	r2, [r3, #0]
 214:.\main.c      ****         clearPSoC4Buffer();
 632              		.loc 1 214 0
 633 005c FFF7FEFF 		bl	clearPSoC4Buffer
 634 0060 61E0     		b	.L20
 635              	.L22:
 215:.\main.c      ****     }else if( inPSoc4Char == 10 || inPSoc4Char == 13 ){
 636              		.loc 1 215 0
 637 0062 40F20003 		movw	r3, #:lower16:inPSoc4Char
 638 0066 C0F20003 		movt	r3, #:upper16:inPSoc4Char
 639 006a 1B78     		ldrb	r3, [r3, #0]	@ zero_extendqisi2
 640 006c 0A2B     		cmp	r3, #10
 641 006e 06D0     		beq	.L24
 642              		.loc 1 215 0 is_stmt 0 discriminator 1
 643 0070 40F20003 		movw	r3, #:lower16:inPSoc4Char
 644 0074 C0F20003 		movt	r3, #:upper16:inPSoc4Char
 645 0078 1B78     		ldrb	r3, [r3, #0]	@ zero_extendqisi2
 646 007a 0D2B     		cmp	r3, #13
 647 007c 1CD1     		bne	.L25
 648              	.L24:
 216:.\main.c      ****         //Line Feed - Time to break into new line!!
 217:.\main.c      ****         //store in mesg for latter storage
 218:.\main.c      ****         if( strncmp(psoc4_buffer, ":", 1 ) == 0 ){                    
 649              		.loc 1 218 0 is_stmt 1
 650 007e 40F20003 		movw	r3, #:lower16:psoc4_buffer
 651 0082 C0F20003 		movt	r3, #:upper16:psoc4_buffer
 652 0086 1A78     		ldrb	r2, [r3, #0]	@ zero_extendqisi2
 653 0088 40F20003 		movw	r3, #:lower16:.LC3
 654 008c C0F20003 		movt	r3, #:upper16:.LC3
 655 0090 1B78     		ldrb	r3, [r3, #0]	@ zero_extendqisi2
 656 0092 9A42     		cmp	r2, r3
 657 0094 01D1     		bne	.L26
 219:.\main.c      ****             movePSoC4Buffer2Msg();                    
 658              		.loc 1 219 0
 659 0096 FFF7FEFF 		bl	movePSoC4Buffer2Msg
 660              	.L26:
 220:.\main.c      ****         }          
 221:.\main.c      ****         psoc4MsgStarted = 0;
 661              		.loc 1 221 0
 662 009a 40F20003 		movw	r3, #:lower16:psoc4MsgStarted
 663 009e C0F20003 		movt	r3, #:upper16:psoc4MsgStarted
ARM GAS  C:\Users\javier\AppData\Local\Temp\ccC9pX9j.s 			page 17


 664 00a2 4FF00002 		mov	r2, #0
 665 00a6 1A60     		str	r2, [r3, #0]
 222:.\main.c      ****         psoc4MsgPos=0;            
 666              		.loc 1 222 0
 667 00a8 40F20003 		movw	r3, #:lower16:psoc4MsgPos
 668 00ac C0F20003 		movt	r3, #:upper16:psoc4MsgPos
 669 00b0 4FF00002 		mov	r2, #0
 670 00b4 1A60     		str	r2, [r3, #0]
 671 00b6 36E0     		b	.L20
 672              	.L25:
 223:.\main.c      ****     }else if( psoc4MsgStarted>0 && inPSoc4Char != 0 
 673              		.loc 1 223 0
 674 00b8 40F20003 		movw	r3, #:lower16:psoc4MsgStarted
 675 00bc C0F20003 		movt	r3, #:upper16:psoc4MsgStarted
 676 00c0 1B68     		ldr	r3, [r3, #0]
 677 00c2 002B     		cmp	r3, #0
 678 00c4 2FDD     		ble	.L20
 679              		.loc 1 223 0 is_stmt 0 discriminator 1
 680 00c6 40F20003 		movw	r3, #:lower16:inPSoc4Char
 681 00ca C0F20003 		movt	r3, #:upper16:inPSoc4Char
 682 00ce 1B78     		ldrb	r3, [r3, #0]	@ zero_extendqisi2
 683 00d0 002B     		cmp	r3, #0
 684 00d2 28D0     		beq	.L20
 224:.\main.c      ****         && inPSoc4Char != 10 && inPSoc4Char != 13 ){
 685              		.loc 1 224 0 is_stmt 1
 686 00d4 40F20003 		movw	r3, #:lower16:inPSoc4Char
 687 00d8 C0F20003 		movt	r3, #:upper16:inPSoc4Char
 688 00dc 1B78     		ldrb	r3, [r3, #0]	@ zero_extendqisi2
 689 00de 0A2B     		cmp	r3, #10
 690 00e0 21D0     		beq	.L20
 691              		.loc 1 224 0 is_stmt 0 discriminator 1
 692 00e2 40F20003 		movw	r3, #:lower16:inPSoc4Char
 693 00e6 C0F20003 		movt	r3, #:upper16:inPSoc4Char
 694 00ea 1B78     		ldrb	r3, [r3, #0]	@ zero_extendqisi2
 695 00ec 0D2B     		cmp	r3, #13
 696 00ee 1AD0     		beq	.L20
 225:.\main.c      ****         psoc4_buffer[psoc4MsgPos] = inPSoc4Char;
 697              		.loc 1 225 0 is_stmt 1
 698 00f0 40F20003 		movw	r3, #:lower16:psoc4MsgPos
 699 00f4 C0F20003 		movt	r3, #:upper16:psoc4MsgPos
 700 00f8 1A68     		ldr	r2, [r3, #0]
 701 00fa 40F20003 		movw	r3, #:lower16:inPSoc4Char
 702 00fe C0F20003 		movt	r3, #:upper16:inPSoc4Char
 703 0102 1978     		ldrb	r1, [r3, #0]	@ zero_extendqisi2
 704 0104 40F20003 		movw	r3, #:lower16:psoc4_buffer
 705 0108 C0F20003 		movt	r3, #:upper16:psoc4_buffer
 706 010c 9954     		strb	r1, [r3, r2]
 226:.\main.c      ****         psoc4MsgPos++;
 707              		.loc 1 226 0
 708 010e 40F20003 		movw	r3, #:lower16:psoc4MsgPos
 709 0112 C0F20003 		movt	r3, #:upper16:psoc4MsgPos
 710 0116 1B68     		ldr	r3, [r3, #0]
 711 0118 03F10102 		add	r2, r3, #1
 712 011c 40F20003 		movw	r3, #:lower16:psoc4MsgPos
 713 0120 C0F20003 		movt	r3, #:upper16:psoc4MsgPos
 714 0124 1A60     		str	r2, [r3, #0]
 715              	.L20:
ARM GAS  C:\Users\javier\AppData\Local\Temp\ccC9pX9j.s 			page 18


 227:.\main.c      ****     }
 228:.\main.c      **** }
 716              		.loc 1 228 0
 717 0126 80BD     		pop	{r7, pc}
 718              		.cfi_endproc
 719              	.LFE62:
 720              		.size	fetchPSoC4Msg, .-fetchPSoC4Msg
 721              		.text
 722              	.Letext0:
 723              		.file 2 "c:\\program files (x86)\\cypress\\psoc creator\\3.0\\psoc creator\\import\\gnu_cs\\arm\\4
 724              		.file 3 "..\\emFile_V322b\\Code\\Include\\PSoC5/FS_Types.h"
 725              		.file 4 "./Generated_Source/PSoC5/core_cm3.h"