ARM GAS  C:\Users\javier\AppData\Local\Temp\ccNg04gY.s 			page 1


   1              		.syntax unified
   2              		.cpu cortex-m3
   3              		.fpu softvfp
   4              		.eabi_attribute 20, 1
   5              		.eabi_attribute 21, 1
   6              		.eabi_attribute 23, 3
   7              		.eabi_attribute 24, 1
   8              		.eabi_attribute 25, 1
   9              		.eabi_attribute 26, 1
  10              		.eabi_attribute 30, 6
  11              		.eabi_attribute 34, 1
  12              		.eabi_attribute 18, 4
  13              		.thumb
  14              		.file	"main.c"
  15              		.text
  16              	.Ltext0:
  17              		.cfi_sections	.debug_frame
  18              		.comm	runMode,1,1
  19              		.global	MAX_STR
  20              		.section	.rodata
  21              		.align	2
  22              		.type	MAX_STR, %object
  23              		.size	MAX_STR, 4
  24              	MAX_STR:
  25 0000 96000000 		.word	150
  26              		.global	sdFile
  27              		.data
  28              		.align	2
  29              		.type	sdFile, %object
  30              		.size	sdFile, 10
  31              	sdFile:
  32 0000 47505344 		.ascii	"GPSDAT.txt"
  32      41542E74 
  32      7874
  33              		.global	CRLF
  34 000a 0000     		.align	2
  35              		.type	CRLF, %object
  36              		.size	CRLF, 2
  37              	CRLF:
  38 000c 0A       		.byte	10
  39 000d 0D       		.byte	13
  40              		.global	START
  41              		.type	START, %object
  42              		.size	START, 1
  43              	START:
  44 000e 24       		.byte	36
  45              		.global	gpsSeconds
  46 000f 00       		.align	2
  47              		.type	gpsSeconds, %object
  48              		.size	gpsSeconds, 2
  49              	gpsSeconds:
  50 0010 30       		.byte	48
  51 0011 30       		.byte	48
  52              		.comm	psoc4_msg,80,4
  53              		.comm	psoc4_buffer,80,4
  54              		.global	psoc4MsgPos
  55 0012 0000     		.bss
ARM GAS  C:\Users\javier\AppData\Local\Temp\ccNg04gY.s 			page 2


  56              		.align	2
  57              		.type	psoc4MsgPos, %object
  58              		.size	psoc4MsgPos, 4
  59              	psoc4MsgPos:
  60 0000 00000000 		.space	4
  61              		.global	psoc4MsgStarted
  62              		.align	2
  63              		.type	psoc4MsgStarted, %object
  64              		.size	psoc4MsgStarted, 4
  65              	psoc4MsgStarted:
  66 0004 00000000 		.space	4
  67              		.comm	inPSoc4Char,1,1
  68              		.section	.text.clearBuffer,"ax",%progbits
  69              		.align	2
  70              		.global	clearBuffer
  71              		.thumb
  72              		.thumb_func
  73              		.type	clearBuffer, %function
  74              	clearBuffer:
  75              	.LFB56:
  76              		.file 1 ".\\main.c"
   1:.\main.c      **** /* ========================================
   2:.\main.c      ****  *
   3:.\main.c      ****  * Copyright Soynerdito, THE YEAR
   4:.\main.c      ****  * All Rights Reserved
   5:.\main.c      ****  * UNPUBLISHED, LICENSED SOFTWARE.
   6:.\main.c      ****  *
   7:.\main.c      ****  * Open source
   8:.\main.c      ****  *
   9:.\main.c      ****  * ========================================
  10:.\main.c      **** */
  11:.\main.c      **** #include <device.h>
  12:.\main.c      **** #include <FS.h>
  13:.\main.c      **** #include <string.h>
  14:.\main.c      **** #include <Global.h>
  15:.\main.c      **** #include <stdlib.h>
  16:.\main.c      **** 
  17:.\main.c      **** int main();
  18:.\main.c      **** int logTime(char input[] );
  19:.\main.c      **** void clearBuffer(char *buff, int len);
  20:.\main.c      **** void clearPSoC4Buffer();
  21:.\main.c      **** void clearPSoC4Msg();
  22:.\main.c      **** void fetchPSoC4Msg();
  23:.\main.c      **** 
  24:.\main.c      **** enum RUN_MODE { RECORDING, EXPORT_BLUE } runMode;
  25:.\main.c      **** 
  26:.\main.c      **** /****************************************
  27:.\main.c      ****     Bluetooth Communication
  28:.\main.c      **** *****************************************/
  29:.\main.c      **** //void initBluetooth();
  30:.\main.c      **** //void clearBlueBuffer();
  31:.\main.c      **** /*enum RUN_MODE fetchPBlueMsg();*/
  32:.\main.c      **** void flushGPSData();
  33:.\main.c      **** 
  34:.\main.c      **** const int MAX_STR = 150;
  35:.\main.c      **** char sdFile[10] = "GPSDAT.txt";
  36:.\main.c      **** char CRLF[2] = { 10, 13 };
ARM GAS  C:\Users\javier\AppData\Local\Temp\ccNg04gY.s 			page 3


  37:.\main.c      **** //Start character for GPS messages
  38:.\main.c      **** char START = '$';
  39:.\main.c      **** 
  40:.\main.c      **** char gpsSeconds[2] = {'0','0'};
  41:.\main.c      **** 
  42:.\main.c      **** 
  43:.\main.c      **** /****************************************
  44:.\main.c      ****     PSoC4 Data Buffers
  45:.\main.c      **** *****************************************/
  46:.\main.c      **** #define PSOC4_MSG_MAX  80
  47:.\main.c      **** char psoc4_msg[PSOC4_MSG_MAX];
  48:.\main.c      **** char psoc4_buffer[PSOC4_MSG_MAX];
  49:.\main.c      **** 
  50:.\main.c      **** int psoc4MsgPos = 0;
  51:.\main.c      **** int psoc4MsgStarted = 0;
  52:.\main.c      **** char inPSoc4Char;
  53:.\main.c      **** 
  54:.\main.c      **** void clearBuffer(char *buff, int len)
  55:.\main.c      **** {
  77              		.loc 1 55 0
  78              		.cfi_startproc
  79              		@ args = 0, pretend = 0, frame = 8
  80              		@ frame_needed = 1, uses_anonymous_args = 0
  81 0000 80B5     		push	{r7, lr}
  82              	.LCFI0:
  83              		.cfi_def_cfa_offset 8
  84              		.cfi_offset 7, -8
  85              		.cfi_offset 14, -4
  86 0002 82B0     		sub	sp, sp, #8
  87              	.LCFI1:
  88              		.cfi_def_cfa_offset 16
  89 0004 00AF     		add	r7, sp, #0
  90              	.LCFI2:
  91              		.cfi_def_cfa_register 7
  92 0006 7860     		str	r0, [r7, #4]
  93 0008 3960     		str	r1, [r7, #0]
  56:.\main.c      ****     memset(buff, 0, (sizeof(char)*len));
  94              		.loc 1 56 0
  95 000a 3B68     		ldr	r3, [r7, #0]
  96 000c 7868     		ldr	r0, [r7, #4]
  97 000e 4FF00001 		mov	r1, #0
  98 0012 1A46     		mov	r2, r3
  99 0014 FFF7FEFF 		bl	memset
  57:.\main.c      **** }
 100              		.loc 1 57 0
 101 0018 07F10807 		add	r7, r7, #8
 102 001c BD46     		mov	sp, r7
 103 001e 80BD     		pop	{r7, pc}
 104              		.cfi_endproc
 105              	.LFE56:
 106              		.size	clearBuffer, .-clearBuffer
 107              		.section	.text.clearPSoC4Buffer,"ax",%progbits
 108              		.align	2
 109              		.global	clearPSoC4Buffer
 110              		.thumb
 111              		.thumb_func
 112              		.type	clearPSoC4Buffer, %function
ARM GAS  C:\Users\javier\AppData\Local\Temp\ccNg04gY.s 			page 4


 113              	clearPSoC4Buffer:
 114              	.LFB57:
  58:.\main.c      **** 
  59:.\main.c      **** void clearPSoC4Buffer()
  60:.\main.c      **** {
 115              		.loc 1 60 0
 116              		.cfi_startproc
 117              		@ args = 0, pretend = 0, frame = 0
 118              		@ frame_needed = 1, uses_anonymous_args = 0
 119 0000 80B5     		push	{r7, lr}
 120              	.LCFI3:
 121              		.cfi_def_cfa_offset 8
 122              		.cfi_offset 7, -8
 123              		.cfi_offset 14, -4
 124 0002 00AF     		add	r7, sp, #0
 125              	.LCFI4:
 126              		.cfi_def_cfa_register 7
  61:.\main.c      ****     clearBuffer(psoc4_buffer, PSOC4_MSG_MAX );
 127              		.loc 1 61 0
 128 0004 40F20000 		movw	r0, #:lower16:psoc4_buffer
 129 0008 C0F20000 		movt	r0, #:upper16:psoc4_buffer
 130 000c 4FF05001 		mov	r1, #80
 131 0010 FFF7FEFF 		bl	clearBuffer
  62:.\main.c      **** }
 132              		.loc 1 62 0
 133 0014 80BD     		pop	{r7, pc}
 134              		.cfi_endproc
 135              	.LFE57:
 136              		.size	clearPSoC4Buffer, .-clearPSoC4Buffer
 137 0016 00BF     		.section	.text.clearPSoC4Msg,"ax",%progbits
 138              		.align	2
 139              		.global	clearPSoC4Msg
 140              		.thumb
 141              		.thumb_func
 142              		.type	clearPSoC4Msg, %function
 143              	clearPSoC4Msg:
 144              	.LFB58:
  63:.\main.c      **** void clearPSoC4Msg()
  64:.\main.c      **** {
 145              		.loc 1 64 0
 146              		.cfi_startproc
 147              		@ args = 0, pretend = 0, frame = 0
 148              		@ frame_needed = 1, uses_anonymous_args = 0
 149 0000 80B5     		push	{r7, lr}
 150              	.LCFI5:
 151              		.cfi_def_cfa_offset 8
 152              		.cfi_offset 7, -8
 153              		.cfi_offset 14, -4
 154 0002 00AF     		add	r7, sp, #0
 155              	.LCFI6:
 156              		.cfi_def_cfa_register 7
  65:.\main.c      ****     clearBuffer(psoc4_msg, PSOC4_MSG_MAX );
 157              		.loc 1 65 0
 158 0004 40F20000 		movw	r0, #:lower16:psoc4_msg
 159 0008 C0F20000 		movt	r0, #:upper16:psoc4_msg
 160 000c 4FF05001 		mov	r1, #80
 161 0010 FFF7FEFF 		bl	clearBuffer
ARM GAS  C:\Users\javier\AppData\Local\Temp\ccNg04gY.s 			page 5


  66:.\main.c      **** }
 162              		.loc 1 66 0
 163 0014 80BD     		pop	{r7, pc}
 164              		.cfi_endproc
 165              	.LFE58:
 166              		.size	clearPSoC4Msg, .-clearPSoC4Msg
 167 0016 00BF     		.section	.text.movePSoC4Buffer2Msg,"ax",%progbits
 168              		.align	2
 169              		.global	movePSoC4Buffer2Msg
 170              		.thumb
 171              		.thumb_func
 172              		.type	movePSoC4Buffer2Msg, %function
 173              	movePSoC4Buffer2Msg:
 174              	.LFB59:
  67:.\main.c      **** 
  68:.\main.c      **** void movePSoC4Buffer2Msg()
  69:.\main.c      **** {
 175              		.loc 1 69 0
 176              		.cfi_startproc
 177              		@ args = 0, pretend = 0, frame = 0
 178              		@ frame_needed = 1, uses_anonymous_args = 0
 179 0000 80B5     		push	{r7, lr}
 180              	.LCFI7:
 181              		.cfi_def_cfa_offset 8
 182              		.cfi_offset 7, -8
 183              		.cfi_offset 14, -4
 184 0002 00AF     		add	r7, sp, #0
 185              	.LCFI8:
 186              		.cfi_def_cfa_register 7
  70:.\main.c      ****     memcpy(psoc4_msg, psoc4_buffer, strlen(psoc4_buffer)+1 );
 187              		.loc 1 70 0
 188 0004 40F20000 		movw	r0, #:lower16:psoc4_buffer
 189 0008 C0F20000 		movt	r0, #:upper16:psoc4_buffer
 190 000c FFF7FEFF 		bl	strlen
 191 0010 0346     		mov	r3, r0
 192 0012 03F10103 		add	r3, r3, #1
 193 0016 40F20000 		movw	r0, #:lower16:psoc4_msg
 194 001a C0F20000 		movt	r0, #:upper16:psoc4_msg
 195 001e 40F20001 		movw	r1, #:lower16:psoc4_buffer
 196 0022 C0F20001 		movt	r1, #:upper16:psoc4_buffer
 197 0026 1A46     		mov	r2, r3
 198 0028 FFF7FEFF 		bl	memcpy
  71:.\main.c      ****     clearPSoC4Buffer();
 199              		.loc 1 71 0
 200 002c FFF7FEFF 		bl	clearPSoC4Buffer
  72:.\main.c      **** }
 201              		.loc 1 72 0
 202 0030 80BD     		pop	{r7, pc}
 203              		.cfi_endproc
 204              	.LFE59:
 205              		.size	movePSoC4Buffer2Msg, .-movePSoC4Buffer2Msg
 206 0032 00BF     		.section	.rodata
 207              		.align	2
 208              	.LC0:
 209 0004 6100     		.ascii	"a\000"
 210 0006 0000     		.align	2
 211              	.LC1:
ARM GAS  C:\Users\javier\AppData\Local\Temp\ccNg04gY.s 			page 6


 212 0008 7200     		.ascii	"r\000"
 213 000a 0000     		.align	2
 214              	.LC2:
 215 000c 24475052 		.ascii	"$GPRMC\000"
 215      4D4300
 216 0013 00       		.align	2
 217              	.LC3:
 218 0014 0A00     		.ascii	"\012\000"
 219              		.section	.text.main,"ax",%progbits
 220              		.align	2
 221              		.global	main
 222              		.thumb
 223              		.thumb_func
 224              		.type	main, %function
 225              	main:
 226              	.LFB60:
  73:.\main.c      **** 
  74:.\main.c      **** 
  75:.\main.c      **** int main()
  76:.\main.c      **** {
 227              		.loc 1 76 0
 228              		.cfi_startproc
 229              		@ args = 0, pretend = 0, frame = 40
 230              		@ frame_needed = 1, uses_anonymous_args = 0
 231 0000 2DE9B043 		push	{r4, r5, r7, r8, r9, lr}
 232              	.LCFI9:
 233              		.cfi_def_cfa_offset 24
 234              		.cfi_offset 4, -24
 235              		.cfi_offset 5, -20
 236              		.cfi_offset 7, -16
 237              		.cfi_offset 8, -12
 238              		.cfi_offset 9, -8
 239              		.cfi_offset 14, -4
 240 0004 8AB0     		sub	sp, sp, #40
 241              	.LCFI10:
 242              		.cfi_def_cfa_offset 64
 243 0006 00AF     		add	r7, sp, #0
 244              	.LCFI11:
 245              		.cfi_def_cfa_register 7
  77:.\main.c      ****     //Set default status as Running
  78:.\main.c      ****     runMode = RECORDING;
 246              		.loc 1 78 0
 247 0008 40F20003 		movw	r3, #:lower16:runMode
 248 000c C0F20003 		movt	r3, #:upper16:runMode
 249 0010 4FF00002 		mov	r2, #0
 250 0014 1A70     		strb	r2, [r3, #0]
  79:.\main.c      ****     /* Place your initialization/startup code here (e.g. MyInst_Start()) */
  80:.\main.c      **** 	PWM_1_Start();
 251              		.loc 1 80 0
 252 0016 FFF7FEFF 		bl	PWM_1_Start
  81:.\main.c      ****     char sdVolName[10];     /* Buffer that will hold SD card Volume name */
  82:.\main.c      ****     //U16 step = 1u;
  83:.\main.c      ****     FS_FILE * pFile;    
  84:.\main.c      ****     char inChar;    
  85:.\main.c      ****     GPS_Init();
 253              		.loc 1 85 0
 254 001a FFF7FEFF 		bl	GPS_Init
ARM GAS  C:\Users\javier\AppData\Local\Temp\ccNg04gY.s 			page 7


  86:.\main.c      ****     GPS_Start();
 255              		.loc 1 86 0
 256 001e FFF7FEFF 		bl	GPS_Start
  87:.\main.c      ****     
  88:.\main.c      ****     PSOC4_Init();
 257              		.loc 1 88 0
 258 0022 FFF7FEFF 		bl	PSOC4_Init
  89:.\main.c      ****     PSOC4_Start();
 259              		.loc 1 89 0
 260 0026 FFF7FEFF 		bl	PSOC4_Start
  90:.\main.c      ****     
  91:.\main.c      ****     /* Initialize file system */
  92:.\main.c      ****     FS_Init();
 261              		.loc 1 92 0
 262 002a FFF7FEFF 		bl	FS_Init
  93:.\main.c      ****         
  94:.\main.c      ****     char inputLine[MAX_STR];
 263              		.loc 1 94 0
 264 002e 40F20003 		movw	r3, #:lower16:MAX_STR
 265 0032 C0F20003 		movt	r3, #:upper16:MAX_STR
 266 0036 1B68     		ldr	r3, [r3, #0]
 267 0038 03F1FF33 		add	r3, r3, #-1
 268 003c BB61     		str	r3, [r7, #24]
 269 003e 40F20003 		movw	r3, #:lower16:MAX_STR
 270 0042 C0F20003 		movt	r3, #:upper16:MAX_STR
 271 0046 1B68     		ldr	r3, [r3, #0]
 272 0048 1946     		mov	r1, r3
 273 004a 0A46     		mov	r2, r1
 274 004c 4FF00003 		mov	r3, #0
 275 0050 4FEA5271 		lsr	r1, r2, #29
 276 0054 4FEAC309 		lsl	r9, r3, #3
 277 0058 41EA0909 		orr	r9, r1, r9
 278 005c 4FEAC208 		lsl	r8, r2, #3
 279 0060 40F20003 		movw	r3, #:lower16:MAX_STR
 280 0064 C0F20003 		movt	r3, #:upper16:MAX_STR
 281 0068 1B68     		ldr	r3, [r3, #0]
 282 006a 1946     		mov	r1, r3
 283 006c 0A46     		mov	r2, r1
 284 006e 4FF00003 		mov	r3, #0
 285 0072 4FEA5271 		lsr	r1, r2, #29
 286 0076 4FEAC305 		lsl	r5, r3, #3
 287 007a 0D43     		orrs	r5, r5, r1
 288 007c 4FEAC204 		lsl	r4, r2, #3
 289 0080 40F20003 		movw	r3, #:lower16:MAX_STR
 290 0084 C0F20003 		movt	r3, #:upper16:MAX_STR
 291 0088 1B68     		ldr	r3, [r3, #0]
 292 008a 03F10703 		add	r3, r3, #7
 293 008e 4FEAD303 		lsr	r3, r3, #3
 294 0092 4FEAC303 		lsl	r3, r3, #3
 295 0096 ADEB030D 		sub	sp, sp, r3
 296 009a 6B46     		mov	r3, sp
 297 009c 03F10003 		add	r3, r3, #0
 298 00a0 7B61     		str	r3, [r7, #20]
  95:.\main.c      ****     int pos=0;
 299              		.loc 1 95 0
 300 00a2 4FF00003 		mov	r3, #0
 301 00a6 3B62     		str	r3, [r7, #32]
ARM GAS  C:\Users\javier\AppData\Local\Temp\ccNg04gY.s 			page 8


  96:.\main.c      ****     //memset(inputLine, sizeof(char)*MAX_STR,0);
  97:.\main.c      ****     memset(inputLine, 0, sizeof(char)*MAX_STR );
 302              		.loc 1 97 0
 303 00a8 7A69     		ldr	r2, [r7, #20]
 304 00aa 40F20003 		movw	r3, #:lower16:MAX_STR
 305 00ae C0F20003 		movt	r3, #:upper16:MAX_STR
 306 00b2 1B68     		ldr	r3, [r3, #0]
 307 00b4 1046     		mov	r0, r2
 308 00b6 4FF00001 		mov	r1, #0
 309 00ba 1A46     		mov	r2, r3
 310 00bc FFF7FEFF 		bl	memset
  98:.\main.c      ****     
  99:.\main.c      ****     /* Get volume name of SD card #0 */
 100:.\main.c      ****     if(0 != FS_GetVolumeName(0u, &sdVolName[0], 9u))
 311              		.loc 1 100 0
 312 00c0 07F10803 		add	r3, r7, #8
 313 00c4 4FF00000 		mov	r0, #0
 314 00c8 1946     		mov	r1, r3
 315 00ca 4FF00902 		mov	r2, #9
 316 00ce FFF7FEFF 		bl	FS_GetVolumeName
 101:.\main.c      ****     {
 102:.\main.c      ****     }
 103:.\main.c      **** 
 104:.\main.c      ****     CyGlobalIntEnable; /* Uncomment this line to enable global interrupts. */
 317              		.loc 1 104 0
 318              	@ 104 ".\main.c" 1
 319 00d2 62B6     		CPSIE   i
 320              	@ 0 "" 2
 105:.\main.c      ****     /* Create specific file for modification */
 106:.\main.c      ****     pFile = FS_FOpen(sdFile, "a");
 321              		.loc 1 106 0
 322              		.thumb
 323 00d4 40F20000 		movw	r0, #:lower16:sdFile
 324 00d8 C0F20000 		movt	r0, #:upper16:sdFile
 325 00dc 40F20001 		movw	r1, #:lower16:.LC0
 326 00e0 C0F20001 		movt	r1, #:upper16:.LC0
 327 00e4 FFF7FEFF 		bl	FS_FOpen
 328 00e8 7862     		str	r0, [r7, #36]
 107:.\main.c      ****     int started = 0;
 329              		.loc 1 107 0
 330 00ea 4FF00003 		mov	r3, #0
 331 00ee FB61     		str	r3, [r7, #28]
 332 00f0 00E0     		b	.L15
 333              	.L16:
 108:.\main.c      ****     //char inPSOC4;
 109:.\main.c      ****     for(;;)
 110:.\main.c      ****     {
 111:.\main.c      ****         //If  Flush to bluetooth then flush via PSOC4 all file
 112:.\main.c      ****         if( runMode ==EXPORT_BLUE )
 113:.\main.c      ****         {
 114:.\main.c      ****             //Close existing file
 115:.\main.c      ****             FS_FClose( pFile );    
 116:.\main.c      ****             //Open file for Reading
 117:.\main.c      ****             pFile = FS_FOpen(sdFile, "r");
 118:.\main.c      ****             //Move to the beginning of the file
 119:.\main.c      ****             FS_FSeek(pFile, 0, 0 );
 120:.\main.c      ****             //Flush SDCard to Bluetooth
ARM GAS  C:\Users\javier\AppData\Local\Temp\ccNg04gY.s 			page 9


 121:.\main.c      ****             flushGPSData( pFile );
 122:.\main.c      ****             FS_FClose( pFile ); 
 123:.\main.c      ****             CyDelay(5);
 124:.\main.c      ****             pFile = FS_FOpen(sdFile, "a");
 125:.\main.c      ****              runMode = RECORDING;
 126:.\main.c      ****         }
 127:.\main.c      **** 
 128:.\main.c      ****         //Fetch data from PSoC4
 129:.\main.c      ****         fetchPSoC4Msg();
 130:.\main.c      ****         
 131:.\main.c      ****         inChar = GPS_GetChar();
 132:.\main.c      ****         if( inChar == START ){
 133:.\main.c      ****             started = 1;
 134:.\main.c      ****             pos=0;
 135:.\main.c      ****         }
 136:.\main.c      **** 
 137:.\main.c      ****         /* Place your application code here. */
 138:.\main.c      ****         if( pos >=MAX_STR ){
 139:.\main.c      ****             //Avoid overflow - clear buffer
 140:.\main.c      ****             pos=0;
 141:.\main.c      ****             memset(inputLine, sizeof(char)*MAX_STR,0);
 142:.\main.c      ****         }else if( inChar == 13 ){
 143:.\main.c      ****             //Line Feed - Time to break into new line!!
 144:.\main.c      ****             //Flush to disk!!            
 145:.\main.c      ****             if( pos >5 ){
 146:.\main.c      ****                 if( strncmp(inputLine, "$GPRMC", 6 ) == 0 ){                    
 147:.\main.c      ****                     char input[2];
 148:.\main.c      ****                     input[0] = inputLine[11];
 149:.\main.c      ****                     input[1] = inputLine[12];
 150:.\main.c      ****                     if( logTime(input ) )
 151:.\main.c      ****                     {
 152:.\main.c      ****                         pos--;
 153:.\main.c      ****                         FS_Write(pFile, inputLine, pos);
 154:.\main.c      ****                         //If Msg is not empty
 155:.\main.c      ****                         if( psoc4_msg[0] != 0 )
 156:.\main.c      ****                         {                                 
 157:.\main.c      ****                             FS_Write(pFile, psoc4_msg, strlen(psoc4_msg));                        
 158:.\main.c      ****                         }else{
 159:.\main.c      ****                             FS_Write(pFile, psoc4_buffer,(psoc4MsgPos-1));                         
 160:.\main.c      ****                         }
 161:.\main.c      ****                         //CyDelay(2);
 162:.\main.c      ****                         FS_Write(pFile, "\n", 1);
 163:.\main.c      ****                         //CyDelay(1);
 164:.\main.c      ****                     }                    
 165:.\main.c      ****                 }                
 166:.\main.c      ****             }
 167:.\main.c      ****             started = 0;
 168:.\main.c      ****             pos=0;
 169:.\main.c      ****             memset(inputLine, sizeof(char)*MAX_STR,0);
 170:.\main.c      ****         }else if( started>0 && inChar != 0 && inChar != 10 && inChar != 13 ){
 171:.\main.c      ****             inputLine[pos] = inChar;
 172:.\main.c      ****             pos++;
 173:.\main.c      ****         }
 174:.\main.c      ****     }
 334              		.loc 1 174 0
 335 00f2 00BF     		nop
 336              	.L15:
ARM GAS  C:\Users\javier\AppData\Local\Temp\ccNg04gY.s 			page 10


 112:.\main.c      ****         if( runMode ==EXPORT_BLUE )
 337              		.loc 1 112 0
 338 00f4 40F20003 		movw	r3, #:lower16:runMode
 339 00f8 C0F20003 		movt	r3, #:upper16:runMode
 340 00fc 1B78     		ldrb	r3, [r3, #0]	@ zero_extendqisi2
 341 00fe 012B     		cmp	r3, #1
 342 0100 30D1     		bne	.L6
 115:.\main.c      ****             FS_FClose( pFile );    
 343              		.loc 1 115 0
 344 0102 786A     		ldr	r0, [r7, #36]
 345 0104 FFF7FEFF 		bl	FS_FClose
 117:.\main.c      ****             pFile = FS_FOpen(sdFile, "r");
 346              		.loc 1 117 0
 347 0108 40F20000 		movw	r0, #:lower16:sdFile
 348 010c C0F20000 		movt	r0, #:upper16:sdFile
 349 0110 40F20001 		movw	r1, #:lower16:.LC1
 350 0114 C0F20001 		movt	r1, #:upper16:.LC1
 351 0118 FFF7FEFF 		bl	FS_FOpen
 352 011c 7862     		str	r0, [r7, #36]
 119:.\main.c      ****             FS_FSeek(pFile, 0, 0 );
 353              		.loc 1 119 0
 354 011e 786A     		ldr	r0, [r7, #36]
 355 0120 4FF00001 		mov	r1, #0
 356 0124 4FF00002 		mov	r2, #0
 357 0128 FFF7FEFF 		bl	FS_FSeek
 121:.\main.c      ****             flushGPSData( pFile );
 358              		.loc 1 121 0
 359 012c 786A     		ldr	r0, [r7, #36]
 360 012e FFF7FEFF 		bl	flushGPSData
 122:.\main.c      ****             FS_FClose( pFile ); 
 361              		.loc 1 122 0
 362 0132 786A     		ldr	r0, [r7, #36]
 363 0134 FFF7FEFF 		bl	FS_FClose
 123:.\main.c      ****             CyDelay(5);
 364              		.loc 1 123 0
 365 0138 4FF00500 		mov	r0, #5
 366 013c FFF7FEFF 		bl	CyDelay
 124:.\main.c      ****             pFile = FS_FOpen(sdFile, "a");
 367              		.loc 1 124 0
 368 0140 40F20000 		movw	r0, #:lower16:sdFile
 369 0144 C0F20000 		movt	r0, #:upper16:sdFile
 370 0148 40F20001 		movw	r1, #:lower16:.LC0
 371 014c C0F20001 		movt	r1, #:upper16:.LC0
 372 0150 FFF7FEFF 		bl	FS_FOpen
 373 0154 7862     		str	r0, [r7, #36]
 125:.\main.c      ****              runMode = RECORDING;
 374              		.loc 1 125 0
 375 0156 40F20003 		movw	r3, #:lower16:runMode
 376 015a C0F20003 		movt	r3, #:upper16:runMode
 377 015e 4FF00002 		mov	r2, #0
 378 0162 1A70     		strb	r2, [r3, #0]
 379              	.L6:
 129:.\main.c      ****         fetchPSoC4Msg();
 380              		.loc 1 129 0
 381 0164 FFF7FEFF 		bl	fetchPSoC4Msg
 131:.\main.c      ****         inChar = GPS_GetChar();
 382              		.loc 1 131 0
ARM GAS  C:\Users\javier\AppData\Local\Temp\ccNg04gY.s 			page 11


 383 0168 FFF7FEFF 		bl	GPS_GetChar
 384 016c 0346     		mov	r3, r0
 385 016e FB74     		strb	r3, [r7, #19]
 132:.\main.c      ****         if( inChar == START ){
 386              		.loc 1 132 0
 387 0170 40F20003 		movw	r3, #:lower16:START
 388 0174 C0F20003 		movt	r3, #:upper16:START
 389 0178 1B78     		ldrb	r3, [r3, #0]	@ zero_extendqisi2
 390 017a FA7C     		ldrb	r2, [r7, #19]	@ zero_extendqisi2
 391 017c 9A42     		cmp	r2, r3
 392 017e 05D1     		bne	.L7
 133:.\main.c      ****             started = 1;
 393              		.loc 1 133 0
 394 0180 4FF00103 		mov	r3, #1
 395 0184 FB61     		str	r3, [r7, #28]
 134:.\main.c      ****             pos=0;
 396              		.loc 1 134 0
 397 0186 4FF00003 		mov	r3, #0
 398 018a 3B62     		str	r3, [r7, #32]
 399              	.L7:
 138:.\main.c      ****         if( pos >=MAX_STR ){
 400              		.loc 1 138 0
 401 018c 40F20003 		movw	r3, #:lower16:MAX_STR
 402 0190 C0F20003 		movt	r3, #:upper16:MAX_STR
 403 0194 1B68     		ldr	r3, [r3, #0]
 404 0196 3A6A     		ldr	r2, [r7, #32]
 405 0198 9A42     		cmp	r2, r3
 406 019a 03DB     		blt	.L8
 140:.\main.c      ****             pos=0;
 407              		.loc 1 140 0
 408 019c 4FF00003 		mov	r3, #0
 409 01a0 3B62     		str	r3, [r7, #32]
 410              		.loc 1 174 0
 411 01a2 A6E7     		b	.L16
 412              	.L8:
 142:.\main.c      ****         }else if( inChar == 13 ){
 413              		.loc 1 142 0
 414 01a4 FB7C     		ldrb	r3, [r7, #19]	@ zero_extendqisi2
 415 01a6 0D2B     		cmp	r3, #13
 416 01a8 5ED1     		bne	.L10
 145:.\main.c      ****             if( pos >5 ){
 417              		.loc 1 145 0
 418 01aa 3B6A     		ldr	r3, [r7, #32]
 419 01ac 052B     		cmp	r3, #5
 420 01ae 54DD     		ble	.L11
 146:.\main.c      ****                 if( strncmp(inputLine, "$GPRMC", 6 ) == 0 ){                    
 421              		.loc 1 146 0
 422 01b0 7B69     		ldr	r3, [r7, #20]
 423 01b2 1846     		mov	r0, r3
 424 01b4 40F20001 		movw	r1, #:lower16:.LC2
 425 01b8 C0F20001 		movt	r1, #:upper16:.LC2
 426 01bc 4FF00602 		mov	r2, #6
 427 01c0 FFF7FEFF 		bl	strncmp
 428 01c4 0346     		mov	r3, r0
 429 01c6 002B     		cmp	r3, #0
 430 01c8 47D1     		bne	.L11
 431              	.LBB2:
ARM GAS  C:\Users\javier\AppData\Local\Temp\ccNg04gY.s 			page 12


 148:.\main.c      ****                     input[0] = inputLine[11];
 432              		.loc 1 148 0
 433 01ca 7B69     		ldr	r3, [r7, #20]
 434 01cc DB7A     		ldrb	r3, [r3, #11]	@ zero_extendqisi2
 435 01ce 3B71     		strb	r3, [r7, #4]
 149:.\main.c      ****                     input[1] = inputLine[12];
 436              		.loc 1 149 0
 437 01d0 7B69     		ldr	r3, [r7, #20]
 438 01d2 1B7B     		ldrb	r3, [r3, #12]	@ zero_extendqisi2
 439 01d4 7B71     		strb	r3, [r7, #5]
 150:.\main.c      ****                     if( logTime(input ) )
 440              		.loc 1 150 0
 441 01d6 07F10403 		add	r3, r7, #4
 442 01da 1846     		mov	r0, r3
 443 01dc FFF7FEFF 		bl	logTime
 444 01e0 0346     		mov	r3, r0
 445 01e2 002B     		cmp	r3, #0
 446 01e4 39D0     		beq	.L11
 152:.\main.c      ****                         pos--;
 447              		.loc 1 152 0
 448 01e6 3B6A     		ldr	r3, [r7, #32]
 449 01e8 03F1FF33 		add	r3, r3, #-1
 450 01ec 3B62     		str	r3, [r7, #32]
 153:.\main.c      ****                         FS_Write(pFile, inputLine, pos);
 451              		.loc 1 153 0
 452 01ee 7A69     		ldr	r2, [r7, #20]
 453 01f0 3B6A     		ldr	r3, [r7, #32]
 454 01f2 786A     		ldr	r0, [r7, #36]
 455 01f4 1146     		mov	r1, r2
 456 01f6 1A46     		mov	r2, r3
 457 01f8 FFF7FEFF 		bl	FS_Write
 155:.\main.c      ****                         if( psoc4_msg[0] != 0 )
 458              		.loc 1 155 0
 459 01fc 40F20003 		movw	r3, #:lower16:psoc4_msg
 460 0200 C0F20003 		movt	r3, #:upper16:psoc4_msg
 461 0204 1B78     		ldrb	r3, [r3, #0]	@ zero_extendqisi2
 462 0206 002B     		cmp	r3, #0
 463 0208 0FD0     		beq	.L13
 157:.\main.c      ****                             FS_Write(pFile, psoc4_msg, strlen(psoc4_msg));                        
 464              		.loc 1 157 0
 465 020a 40F20000 		movw	r0, #:lower16:psoc4_msg
 466 020e C0F20000 		movt	r0, #:upper16:psoc4_msg
 467 0212 FFF7FEFF 		bl	strlen
 468 0216 0346     		mov	r3, r0
 469 0218 786A     		ldr	r0, [r7, #36]
 470 021a 40F20001 		movw	r1, #:lower16:psoc4_msg
 471 021e C0F20001 		movt	r1, #:upper16:psoc4_msg
 472 0222 1A46     		mov	r2, r3
 473 0224 FFF7FEFF 		bl	FS_Write
 474 0228 0EE0     		b	.L14
 475              	.L13:
 159:.\main.c      ****                             FS_Write(pFile, psoc4_buffer,(psoc4MsgPos-1));                         
 476              		.loc 1 159 0
 477 022a 40F20003 		movw	r3, #:lower16:psoc4MsgPos
 478 022e C0F20003 		movt	r3, #:upper16:psoc4MsgPos
 479 0232 1B68     		ldr	r3, [r3, #0]
 480 0234 03F1FF33 		add	r3, r3, #-1
ARM GAS  C:\Users\javier\AppData\Local\Temp\ccNg04gY.s 			page 13


 481 0238 786A     		ldr	r0, [r7, #36]
 482 023a 40F20001 		movw	r1, #:lower16:psoc4_buffer
 483 023e C0F20001 		movt	r1, #:upper16:psoc4_buffer
 484 0242 1A46     		mov	r2, r3
 485 0244 FFF7FEFF 		bl	FS_Write
 486              	.L14:
 162:.\main.c      ****                         FS_Write(pFile, "\n", 1);
 487              		.loc 1 162 0
 488 0248 786A     		ldr	r0, [r7, #36]
 489 024a 40F20001 		movw	r1, #:lower16:.LC3
 490 024e C0F20001 		movt	r1, #:upper16:.LC3
 491 0252 4FF00102 		mov	r2, #1
 492 0256 FFF7FEFF 		bl	FS_Write
 493              	.L11:
 494              	.LBE2:
 167:.\main.c      ****             started = 0;
 495              		.loc 1 167 0
 496 025a 4FF00003 		mov	r3, #0
 497 025e FB61     		str	r3, [r7, #28]
 168:.\main.c      ****             pos=0;
 498              		.loc 1 168 0
 499 0260 4FF00003 		mov	r3, #0
 500 0264 3B62     		str	r3, [r7, #32]
 501              		.loc 1 174 0
 502 0266 44E7     		b	.L16
 503              	.L10:
 170:.\main.c      ****         }else if( started>0 && inChar != 0 && inChar != 10 && inChar != 13 ){
 504              		.loc 1 170 0
 505 0268 FB69     		ldr	r3, [r7, #28]
 506 026a 002B     		cmp	r3, #0
 507 026c 7FF741AF 		ble	.L16
 170:.\main.c      ****         }else if( started>0 && inChar != 0 && inChar != 10 && inChar != 13 ){
 508              		.loc 1 170 0 is_stmt 0 discriminator 1
 509 0270 FB7C     		ldrb	r3, [r7, #19]	@ zero_extendqisi2
 510 0272 002B     		cmp	r3, #0
 511 0274 3FF43DAF 		beq	.L16
 512 0278 FB7C     		ldrb	r3, [r7, #19]	@ zero_extendqisi2
 513 027a 0A2B     		cmp	r3, #10
 514 027c 3FF439AF 		beq	.L16
 515 0280 FB7C     		ldrb	r3, [r7, #19]	@ zero_extendqisi2
 516 0282 0D2B     		cmp	r3, #13
 517 0284 3FF435AF 		beq	.L16
 171:.\main.c      ****             inputLine[pos] = inChar;
 518              		.loc 1 171 0 is_stmt 1
 519 0288 7A69     		ldr	r2, [r7, #20]
 520 028a 3B6A     		ldr	r3, [r7, #32]
 521 028c D318     		adds	r3, r2, r3
 522 028e FA7C     		ldrb	r2, [r7, #19]
 523 0290 1A70     		strb	r2, [r3, #0]
 172:.\main.c      ****             pos++;
 524              		.loc 1 172 0
 525 0292 3B6A     		ldr	r3, [r7, #32]
 526 0294 03F10103 		add	r3, r3, #1
 527 0298 3B62     		str	r3, [r7, #32]
 528              		.loc 1 174 0
 529 029a 2AE7     		b	.L16
 530              		.cfi_endproc
ARM GAS  C:\Users\javier\AppData\Local\Temp\ccNg04gY.s 			page 14


 531              	.LFE60:
 532              		.size	main, .-main
 533              		.global	iLastSec
 534              		.bss
 535              		.align	2
 536              		.type	iLastSec, %object
 537              		.size	iLastSec, 4
 538              	iLastSec:
 539 0008 00000000 		.space	4
 540              		.section	.text.logTime,"ax",%progbits
 541              		.align	2
 542              		.global	logTime
 543              		.thumb
 544              		.thumb_func
 545              		.type	logTime, %function
 546              	logTime:
 547              	.LFB61:
 175:.\main.c      ****     
 176:.\main.c      ****     return 0;
 177:.\main.c      **** }
 178:.\main.c      **** 
 179:.\main.c      **** 
 180:.\main.c      **** //$GPRMC,020036
 181:.\main.c      **** int iLastSec = 0;
 182:.\main.c      **** int logTime(char input[] )
 183:.\main.c      **** {
 548              		.loc 1 183 0
 549              		.cfi_startproc
 550              		@ args = 0, pretend = 0, frame = 16
 551              		@ frame_needed = 1, uses_anonymous_args = 0
 552              		@ link register save eliminated.
 553 0000 80B4     		push	{r7}
 554              	.LCFI12:
 555              		.cfi_def_cfa_offset 4
 556              		.cfi_offset 7, -4
 557 0002 85B0     		sub	sp, sp, #20
 558              	.LCFI13:
 559              		.cfi_def_cfa_offset 24
 560 0004 00AF     		add	r7, sp, #0
 561              	.LCFI14:
 562              		.cfi_def_cfa_register 7
 563 0006 7860     		str	r0, [r7, #4]
 184:.\main.c      ****   int logMe = 0;
 564              		.loc 1 184 0
 565 0008 4FF00003 		mov	r3, #0
 566 000c FB60     		str	r3, [r7, #12]
 185:.\main.c      ****   int value = (input[0]-48)*10 + (input[1]-48);  
 567              		.loc 1 185 0
 568 000e 7B68     		ldr	r3, [r7, #4]
 569 0010 1B78     		ldrb	r3, [r3, #0]	@ zero_extendqisi2
 570 0012 1A46     		mov	r2, r3
 571 0014 1346     		mov	r3, r2
 572 0016 4FEA8303 		lsl	r3, r3, #2
 573 001a 9B18     		adds	r3, r3, r2
 574 001c 4FEA4303 		lsl	r3, r3, #1
 575 0020 A3F5F072 		sub	r2, r3, #480
 576 0024 7B68     		ldr	r3, [r7, #4]
ARM GAS  C:\Users\javier\AppData\Local\Temp\ccNg04gY.s 			page 15


 577 0026 03F10103 		add	r3, r3, #1
 578 002a 1B78     		ldrb	r3, [r3, #0]	@ zero_extendqisi2
 579 002c A3F13003 		sub	r3, r3, #48
 580 0030 D318     		adds	r3, r2, r3
 581 0032 BB60     		str	r3, [r7, #8]
 186:.\main.c      ****   if( (iLastSec - value) >= 5 || (iLastSec - value) <= -5 )
 582              		.loc 1 186 0
 583 0034 40F20003 		movw	r3, #:lower16:iLastSec
 584 0038 C0F20003 		movt	r3, #:upper16:iLastSec
 585 003c 1A68     		ldr	r2, [r3, #0]
 586 003e BB68     		ldr	r3, [r7, #8]
 587 0040 D31A     		subs	r3, r2, r3
 588 0042 042B     		cmp	r3, #4
 589 0044 09DC     		bgt	.L18
 590              		.loc 1 186 0 is_stmt 0 discriminator 1
 591 0046 40F20003 		movw	r3, #:lower16:iLastSec
 592 004a C0F20003 		movt	r3, #:upper16:iLastSec
 593 004e 1A68     		ldr	r2, [r3, #0]
 594 0050 BB68     		ldr	r3, [r7, #8]
 595 0052 D31A     		subs	r3, r2, r3
 596 0054 13F1040F 		cmn	r3, #4
 597 0058 08DA     		bge	.L19
 598              	.L18:
 187:.\main.c      ****   {
 188:.\main.c      ****     iLastSec = value;
 599              		.loc 1 188 0 is_stmt 1
 600 005a 40F20003 		movw	r3, #:lower16:iLastSec
 601 005e C0F20003 		movt	r3, #:upper16:iLastSec
 602 0062 BA68     		ldr	r2, [r7, #8]
 603 0064 1A60     		str	r2, [r3, #0]
 189:.\main.c      ****     logMe = 1;
 604              		.loc 1 189 0
 605 0066 4FF00103 		mov	r3, #1
 606 006a FB60     		str	r3, [r7, #12]
 607              	.L19:
 190:.\main.c      ****   }
 191:.\main.c      **** 
 192:.\main.c      ****   return logMe;
 608              		.loc 1 192 0
 609 006c FB68     		ldr	r3, [r7, #12]
 193:.\main.c      **** }
 610              		.loc 1 193 0
 611 006e 1846     		mov	r0, r3
 612 0070 07F11407 		add	r7, r7, #20
 613 0074 BD46     		mov	sp, r7
 614 0076 80BC     		pop	{r7}
 615 0078 7047     		bx	lr
 616              		.cfi_endproc
 617              	.LFE61:
 618              		.size	logTime, .-logTime
 619 007a 00BF     		.section	.rodata
 620 0016 0000     		.align	2
 621              	.LC4:
 622 0018 3A00     		.ascii	":\000"
 623 001a 0000     		.section	.text.readPSoC4AgregateData,"ax",%progbits
 624              		.align	2
 625              		.global	readPSoC4AgregateData
ARM GAS  C:\Users\javier\AppData\Local\Temp\ccNg04gY.s 			page 16


 626              		.thumb
 627              		.thumb_func
 628              		.type	readPSoC4AgregateData, %function
 629              	readPSoC4AgregateData:
 630              	.LFB62:
 194:.\main.c      **** 
 195:.\main.c      **** 
 196:.\main.c      **** void readPSoC4AgregateData()
 197:.\main.c      **** {
 631              		.loc 1 197 0
 632              		.cfi_startproc
 633              		@ args = 0, pretend = 0, frame = 0
 634              		@ frame_needed = 1, uses_anonymous_args = 0
 635 0000 80B5     		push	{r7, lr}
 636              	.LCFI15:
 637              		.cfi_def_cfa_offset 8
 638              		.cfi_offset 7, -8
 639              		.cfi_offset 14, -4
 640 0002 00AF     		add	r7, sp, #0
 641              	.LCFI16:
 642              		.cfi_def_cfa_register 7
 198:.\main.c      ****     //Check for any overflow
 199:.\main.c      ****     if( psoc4MsgPos >=PSOC4_MSG_MAX ){
 643              		.loc 1 199 0
 644 0004 40F20003 		movw	r3, #:lower16:psoc4MsgPos
 645 0008 C0F20003 		movt	r3, #:upper16:psoc4MsgPos
 646 000c 1B68     		ldr	r3, [r3, #0]
 647 000e 4F2B     		cmp	r3, #79
 648 0010 09DD     		ble	.L22
 200:.\main.c      ****         //Avoid overflow - clear buffer
 201:.\main.c      ****         psoc4MsgPos=0;            
 649              		.loc 1 201 0
 650 0012 40F20003 		movw	r3, #:lower16:psoc4MsgPos
 651 0016 C0F20003 		movt	r3, #:upper16:psoc4MsgPos
 652 001a 4FF00002 		mov	r2, #0
 653 001e 1A60     		str	r2, [r3, #0]
 202:.\main.c      ****         clearPSoC4Buffer();
 654              		.loc 1 202 0
 655 0020 FFF7FEFF 		bl	clearPSoC4Buffer
 656 0024 61E0     		b	.L21
 657              	.L22:
 203:.\main.c      ****     }else if( inPSoc4Char == 10 || inPSoc4Char == 13 ){
 658              		.loc 1 203 0
 659 0026 40F20003 		movw	r3, #:lower16:inPSoc4Char
 660 002a C0F20003 		movt	r3, #:upper16:inPSoc4Char
 661 002e 1B78     		ldrb	r3, [r3, #0]	@ zero_extendqisi2
 662 0030 0A2B     		cmp	r3, #10
 663 0032 06D0     		beq	.L24
 664              		.loc 1 203 0 is_stmt 0 discriminator 1
 665 0034 40F20003 		movw	r3, #:lower16:inPSoc4Char
 666 0038 C0F20003 		movt	r3, #:upper16:inPSoc4Char
 667 003c 1B78     		ldrb	r3, [r3, #0]	@ zero_extendqisi2
 668 003e 0D2B     		cmp	r3, #13
 669 0040 1CD1     		bne	.L25
 670              	.L24:
 204:.\main.c      ****         //Line Feed - Time to break into new line!!
 205:.\main.c      ****         //store in mesg for latter storage
ARM GAS  C:\Users\javier\AppData\Local\Temp\ccNg04gY.s 			page 17


 206:.\main.c      ****         if( strncmp(psoc4_buffer, ":", 1 ) == 0 ){                    
 671              		.loc 1 206 0 is_stmt 1
 672 0042 40F20003 		movw	r3, #:lower16:psoc4_buffer
 673 0046 C0F20003 		movt	r3, #:upper16:psoc4_buffer
 674 004a 1A78     		ldrb	r2, [r3, #0]	@ zero_extendqisi2
 675 004c 40F20003 		movw	r3, #:lower16:.LC4
 676 0050 C0F20003 		movt	r3, #:upper16:.LC4
 677 0054 1B78     		ldrb	r3, [r3, #0]	@ zero_extendqisi2
 678 0056 9A42     		cmp	r2, r3
 679 0058 01D1     		bne	.L26
 207:.\main.c      ****             movePSoC4Buffer2Msg();                    
 680              		.loc 1 207 0
 681 005a FFF7FEFF 		bl	movePSoC4Buffer2Msg
 682              	.L26:
 208:.\main.c      ****         }          
 209:.\main.c      ****         psoc4MsgStarted = 0;
 683              		.loc 1 209 0
 684 005e 40F20003 		movw	r3, #:lower16:psoc4MsgStarted
 685 0062 C0F20003 		movt	r3, #:upper16:psoc4MsgStarted
 686 0066 4FF00002 		mov	r2, #0
 687 006a 1A60     		str	r2, [r3, #0]
 210:.\main.c      ****         psoc4MsgPos=0;            
 688              		.loc 1 210 0
 689 006c 40F20003 		movw	r3, #:lower16:psoc4MsgPos
 690 0070 C0F20003 		movt	r3, #:upper16:psoc4MsgPos
 691 0074 4FF00002 		mov	r2, #0
 692 0078 1A60     		str	r2, [r3, #0]
 693 007a 36E0     		b	.L21
 694              	.L25:
 211:.\main.c      ****     }else if( psoc4MsgStarted>0 && inPSoc4Char != 0 
 695              		.loc 1 211 0
 696 007c 40F20003 		movw	r3, #:lower16:psoc4MsgStarted
 697 0080 C0F20003 		movt	r3, #:upper16:psoc4MsgStarted
 698 0084 1B68     		ldr	r3, [r3, #0]
 699 0086 002B     		cmp	r3, #0
 700 0088 2FDD     		ble	.L21
 701              		.loc 1 211 0 is_stmt 0 discriminator 1
 702 008a 40F20003 		movw	r3, #:lower16:inPSoc4Char
 703 008e C0F20003 		movt	r3, #:upper16:inPSoc4Char
 704 0092 1B78     		ldrb	r3, [r3, #0]	@ zero_extendqisi2
 705 0094 002B     		cmp	r3, #0
 706 0096 28D0     		beq	.L21
 212:.\main.c      ****         && inPSoc4Char != 10 && inPSoc4Char != 13 ){
 707              		.loc 1 212 0 is_stmt 1
 708 0098 40F20003 		movw	r3, #:lower16:inPSoc4Char
 709 009c C0F20003 		movt	r3, #:upper16:inPSoc4Char
 710 00a0 1B78     		ldrb	r3, [r3, #0]	@ zero_extendqisi2
 711 00a2 0A2B     		cmp	r3, #10
 712 00a4 21D0     		beq	.L21
 713              		.loc 1 212 0 is_stmt 0 discriminator 1
 714 00a6 40F20003 		movw	r3, #:lower16:inPSoc4Char
 715 00aa C0F20003 		movt	r3, #:upper16:inPSoc4Char
 716 00ae 1B78     		ldrb	r3, [r3, #0]	@ zero_extendqisi2
 717 00b0 0D2B     		cmp	r3, #13
 718 00b2 1AD0     		beq	.L21
 213:.\main.c      ****         psoc4_buffer[psoc4MsgPos] = inPSoc4Char;
 719              		.loc 1 213 0 is_stmt 1
ARM GAS  C:\Users\javier\AppData\Local\Temp\ccNg04gY.s 			page 18


 720 00b4 40F20003 		movw	r3, #:lower16:psoc4MsgPos
 721 00b8 C0F20003 		movt	r3, #:upper16:psoc4MsgPos
 722 00bc 1A68     		ldr	r2, [r3, #0]
 723 00be 40F20003 		movw	r3, #:lower16:inPSoc4Char
 724 00c2 C0F20003 		movt	r3, #:upper16:inPSoc4Char
 725 00c6 1978     		ldrb	r1, [r3, #0]	@ zero_extendqisi2
 726 00c8 40F20003 		movw	r3, #:lower16:psoc4_buffer
 727 00cc C0F20003 		movt	r3, #:upper16:psoc4_buffer
 728 00d0 9954     		strb	r1, [r3, r2]
 214:.\main.c      ****         psoc4MsgPos++;
 729              		.loc 1 214 0
 730 00d2 40F20003 		movw	r3, #:lower16:psoc4MsgPos
 731 00d6 C0F20003 		movt	r3, #:upper16:psoc4MsgPos
 732 00da 1B68     		ldr	r3, [r3, #0]
 733 00dc 03F10102 		add	r2, r3, #1
 734 00e0 40F20003 		movw	r3, #:lower16:psoc4MsgPos
 735 00e4 C0F20003 		movt	r3, #:upper16:psoc4MsgPos
 736 00e8 1A60     		str	r2, [r3, #0]
 737              	.L21:
 215:.\main.c      ****     }
 216:.\main.c      **** }
 738              		.loc 1 216 0
 739 00ea 80BD     		pop	{r7, pc}
 740              		.cfi_endproc
 741              	.LFE62:
 742              		.size	readPSoC4AgregateData, .-readPSoC4AgregateData
 743              		.section	.text.fetchPSoC4Msg,"ax",%progbits
 744              		.align	2
 745              		.global	fetchPSoC4Msg
 746              		.thumb
 747              		.thumb_func
 748              		.type	fetchPSoC4Msg, %function
 749              	fetchPSoC4Msg:
 750              	.LFB63:
 217:.\main.c      **** 
 218:.\main.c      **** void fetchPSoC4Msg()
 219:.\main.c      **** {
 751              		.loc 1 219 0
 752              		.cfi_startproc
 753              		@ args = 0, pretend = 0, frame = 0
 754              		@ frame_needed = 1, uses_anonymous_args = 0
 755 0000 80B5     		push	{r7, lr}
 756              	.LCFI17:
 757              		.cfi_def_cfa_offset 8
 758              		.cfi_offset 7, -8
 759              		.cfi_offset 14, -4
 760 0002 00AF     		add	r7, sp, #0
 761              	.LCFI18:
 762              		.cfi_def_cfa_register 7
 220:.\main.c      ****     //handle all PSoc4Msg parsing of mesg
 221:.\main.c      ****     inPSoc4Char = PSOC4_GetChar();
 763              		.loc 1 221 0
 764 0004 FFF7FEFF 		bl	PSOC4_GetChar
 765 0008 0346     		mov	r3, r0
 766 000a 1A46     		mov	r2, r3
 767 000c 40F20003 		movw	r3, #:lower16:inPSoc4Char
 768 0010 C0F20003 		movt	r3, #:upper16:inPSoc4Char
ARM GAS  C:\Users\javier\AppData\Local\Temp\ccNg04gY.s 			page 19


 769 0014 1A70     		strb	r2, [r3, #0]
 222:.\main.c      ****  
 223:.\main.c      ****     if( inPSoc4Char == ':' ){        
 770              		.loc 1 223 0
 771 0016 40F20003 		movw	r3, #:lower16:inPSoc4Char
 772 001a C0F20003 		movt	r3, #:upper16:inPSoc4Char
 773 001e 1B78     		ldrb	r3, [r3, #0]	@ zero_extendqisi2
 774 0020 3A2B     		cmp	r3, #58
 775 0022 15D1     		bne	.L28
 224:.\main.c      ****         psoc4MsgStarted = 1;
 776              		.loc 1 224 0
 777 0024 40F20003 		movw	r3, #:lower16:psoc4MsgStarted
 778 0028 C0F20003 		movt	r3, #:upper16:psoc4MsgStarted
 779 002c 4FF00102 		mov	r2, #1
 780 0030 1A60     		str	r2, [r3, #0]
 225:.\main.c      ****         psoc4MsgPos=0;
 781              		.loc 1 225 0
 782 0032 40F20003 		movw	r3, #:lower16:psoc4MsgPos
 783 0036 C0F20003 		movt	r3, #:upper16:psoc4MsgPos
 784 003a 4FF00002 		mov	r2, #0
 785 003e 1A60     		str	r2, [r3, #0]
 226:.\main.c      ****         runMode = RECORDING;
 786              		.loc 1 226 0
 787 0040 40F20003 		movw	r3, #:lower16:runMode
 788 0044 C0F20003 		movt	r3, #:upper16:runMode
 789 0048 4FF00002 		mov	r2, #0
 790 004c 1A70     		strb	r2, [r3, #0]
 791 004e 1BE0     		b	.L29
 792              	.L28:
 227:.\main.c      ****     }else if( inPSoc4Char == 'B' ){        
 793              		.loc 1 227 0
 794 0050 40F20003 		movw	r3, #:lower16:inPSoc4Char
 795 0054 C0F20003 		movt	r3, #:upper16:inPSoc4Char
 796 0058 1B78     		ldrb	r3, [r3, #0]	@ zero_extendqisi2
 797 005a 422B     		cmp	r3, #66
 798 005c 14D1     		bne	.L29
 228:.\main.c      ****         psoc4MsgStarted = 1;
 799              		.loc 1 228 0
 800 005e 40F20003 		movw	r3, #:lower16:psoc4MsgStarted
 801 0062 C0F20003 		movt	r3, #:upper16:psoc4MsgStarted
 802 0066 4FF00102 		mov	r2, #1
 803 006a 1A60     		str	r2, [r3, #0]
 229:.\main.c      ****         psoc4MsgPos=0;
 804              		.loc 1 229 0
 805 006c 40F20003 		movw	r3, #:lower16:psoc4MsgPos
 806 0070 C0F20003 		movt	r3, #:upper16:psoc4MsgPos
 807 0074 4FF00002 		mov	r2, #0
 808 0078 1A60     		str	r2, [r3, #0]
 230:.\main.c      ****         runMode = EXPORT_BLUE;
 809              		.loc 1 230 0
 810 007a 40F20003 		movw	r3, #:lower16:runMode
 811 007e C0F20003 		movt	r3, #:upper16:runMode
 812 0082 4FF00102 		mov	r2, #1
 813 0086 1A70     		strb	r2, [r3, #0]
 814              	.L29:
 231:.\main.c      ****     }
 232:.\main.c      ****     if( runMode == RECORDING )
ARM GAS  C:\Users\javier\AppData\Local\Temp\ccNg04gY.s 			page 20


 815              		.loc 1 232 0
 816 0088 40F20003 		movw	r3, #:lower16:runMode
 817 008c C0F20003 		movt	r3, #:upper16:runMode
 818 0090 1B78     		ldrb	r3, [r3, #0]	@ zero_extendqisi2
 819 0092 002B     		cmp	r3, #0
 820 0094 01D1     		bne	.L27
 233:.\main.c      ****     {
 234:.\main.c      ****         readPSoC4AgregateData();
 821              		.loc 1 234 0
 822 0096 FFF7FEFF 		bl	readPSoC4AgregateData
 823              	.L27:
 235:.\main.c      ****     }else if( runMode == EXPORT_BLUE )
 236:.\main.c      ****     {
 237:.\main.c      ****         //Export data to Bluetooth via PSoC4
 238:.\main.c      ****     }
 239:.\main.c      ****     
 240:.\main.c      **** }
 824              		.loc 1 240 0
 825 009a 80BD     		pop	{r7, pc}
 826              		.cfi_endproc
 827              	.LFE63:
 828              		.size	fetchPSoC4Msg, .-fetchPSoC4Msg
 829              		.section	.text.flushGPSData,"ax",%progbits
 830              		.align	2
 831              		.global	flushGPSData
 832              		.thumb
 833              		.thumb_func
 834              		.type	flushGPSData, %function
 835              	flushGPSData:
 836              	.LFB64:
 241:.\main.c      **** 
 242:.\main.c      **** 
 243:.\main.c      **** /*
 244:.\main.c      **** void initBluetooth()
 245:.\main.c      **** {    
 246:.\main.c      ****     BLUE_Init();
 247:.\main.c      ****     BLUE_Start();
 248:.\main.c      **** }
 249:.\main.c      **** 
 250:.\main.c      **** char inBlueChar;
 251:.\main.c      **** int blueMsgStarted = 0;
 252:.\main.c      **** #define BLUE_MSG_MAX 10
 253:.\main.c      **** char blue_buffer[BLUE_MSG_MAX];
 254:.\main.c      **** int blueMsgPos = 0;
 255:.\main.c      **** 
 256:.\main.c      **** void clearBlueBuffer()
 257:.\main.c      **** {
 258:.\main.c      ****     clearBuffer(blue_buffer, BLUE_MSG_MAX );
 259:.\main.c      **** }
 260:.\main.c      **** */
 261:.\main.c      **** /*enum RUN_MODE fetchPBlueMsg()
 262:.\main.c      **** {
 263:.\main.c      ****     //handle all PSoc4Msg parsing of mesg
 264:.\main.c      ****     inBlueChar = BLUE_GetChar();
 265:.\main.c      **** 
 266:.\main.c      ****     if( inBlueChar == 'B' ){        
 267:.\main.c      ****         blueMsgStarted = 1;
ARM GAS  C:\Users\javier\AppData\Local\Temp\ccNg04gY.s 			page 21


 268:.\main.c      ****         blueMsgPos=0;
 269:.\main.c      ****     }
 270:.\main.c      ****     //Check for any overflow
 271:.\main.c      ****     if( blueMsgPos >= BLUE_MSG_MAX ){
 272:.\main.c      ****         //Avoid overflow - clear buffer
 273:.\main.c      ****         blueMsgPos=0;            
 274:.\main.c      ****         clearBlueBuffer();
 275:.\main.c      ****     }else if( inBlueChar == 10 || inBlueChar == 13 ){
 276:.\main.c      ****         //Line Feed - Time to break into new line!!
 277:.\main.c      ****         //store in mesg for latter storage
 278:.\main.c      ****         if( strncmp(blue_buffer, "BGET", 4 ) == 0 ){                    
 279:.\main.c      ****             //Set Mode to flush data via bluetooth
 280:.\main.c      ****             BLUE_PutString( "OK CONNECTED" );
 281:.\main.c      ****             runMode = SEND_BLUETOOTH;
 282:.\main.c      ****         }else{ 
 283:.\main.c      ****             runMode = RECORDING;
 284:.\main.c      ****         }
 285:.\main.c      ****         blueMsgStarted = 0;
 286:.\main.c      ****         blueMsgPos=0;            
 287:.\main.c      ****     }else if( blueMsgStarted>0 && inBlueChar != 0 
 288:.\main.c      ****         && inBlueChar != 10 && inBlueChar != 13 ){
 289:.\main.c      ****         blue_buffer[blueMsgPos] = inBlueChar;
 290:.\main.c      ****         blueMsgPos++;
 291:.\main.c      ****         BLUE_PutChar( inBlueChar );
 292:.\main.c      ****     }
 293:.\main.c      **** 
 294:.\main.c      ****     return runMode;
 295:.\main.c      **** }*/
 296:.\main.c      **** 
 297:.\main.c      **** void flushGPSData(FS_FILE *pFile)
 298:.\main.c      **** {    
 837              		.loc 1 298 0
 838              		.cfi_startproc
 839              		@ args = 0, pretend = 0, frame = 16
 840              		@ frame_needed = 1, uses_anonymous_args = 0
 841 0000 80B5     		push	{r7, lr}
 842              	.LCFI19:
 843              		.cfi_def_cfa_offset 8
 844              		.cfi_offset 7, -8
 845              		.cfi_offset 14, -4
 846 0002 84B0     		sub	sp, sp, #16
 847              	.LCFI20:
 848              		.cfi_def_cfa_offset 24
 849 0004 00AF     		add	r7, sp, #0
 850              	.LCFI21:
 851              		.cfi_def_cfa_register 7
 852 0006 7860     		str	r0, [r7, #4]
 299:.\main.c      ****     int readLen;    
 300:.\main.c      ****     int pos;
 301:.\main.c      ****     clearPSoC4Buffer();
 853              		.loc 1 301 0
 854 0008 FFF7FEFF 		bl	clearPSoC4Buffer
 302:.\main.c      ****     while ( !FS_FEof( pFile ) )
 855              		.loc 1 302 0
 856 000c 2DE0     		b	.L33
 857              	.L36:
 303:.\main.c      ****     {
ARM GAS  C:\Users\javier\AppData\Local\Temp\ccNg04gY.s 			page 22


 304:.\main.c      ****         readLen = FS_Read( pFile,  psoc4_buffer, PSOC4_MSG_MAX );
 858              		.loc 1 304 0
 859 000e 7868     		ldr	r0, [r7, #4]
 860 0010 40F20001 		movw	r1, #:lower16:psoc4_buffer
 861 0014 C0F20001 		movt	r1, #:upper16:psoc4_buffer
 862 0018 4FF05002 		mov	r2, #80
 863 001c FFF7FEFF 		bl	FS_Read
 864 0020 0346     		mov	r3, r0
 865 0022 BB60     		str	r3, [r7, #8]
 305:.\main.c      ****         if( readLen >0 )
 866              		.loc 1 305 0
 867 0024 BB68     		ldr	r3, [r7, #8]
 868 0026 002B     		cmp	r3, #0
 869 0028 1FDD     		ble	.L33
 306:.\main.c      ****         {
 307:.\main.c      ****             for( pos = 0; pos < readLen; pos++ ){
 870              		.loc 1 307 0
 871 002a 4FF00003 		mov	r3, #0
 872 002e FB60     		str	r3, [r7, #12]
 873 0030 11E0     		b	.L34
 874              	.L35:
 308:.\main.c      ****                 PSOC4_PutChar( psoc4_buffer[pos] );
 875              		.loc 1 308 0 discriminator 2
 876 0032 40F20003 		movw	r3, #:lower16:psoc4_buffer
 877 0036 C0F20003 		movt	r3, #:upper16:psoc4_buffer
 878 003a FA68     		ldr	r2, [r7, #12]
 879 003c 9B18     		adds	r3, r3, r2
 880 003e 1B78     		ldrb	r3, [r3, #0]	@ zero_extendqisi2
 881 0040 1846     		mov	r0, r3
 882 0042 FFF7FEFF 		bl	PSOC4_PutChar
 309:.\main.c      ****                 CyDelay(2);
 883              		.loc 1 309 0 discriminator 2
 884 0046 4FF00200 		mov	r0, #2
 885 004a FFF7FEFF 		bl	CyDelay
 307:.\main.c      ****             for( pos = 0; pos < readLen; pos++ ){
 886              		.loc 1 307 0 discriminator 2
 887 004e FB68     		ldr	r3, [r7, #12]
 888 0050 03F10103 		add	r3, r3, #1
 889 0054 FB60     		str	r3, [r7, #12]
 890              	.L34:
 307:.\main.c      ****             for( pos = 0; pos < readLen; pos++ ){
 891              		.loc 1 307 0 is_stmt 0 discriminator 1
 892 0056 FA68     		ldr	r2, [r7, #12]
 893 0058 BB68     		ldr	r3, [r7, #8]
 894 005a 9A42     		cmp	r2, r3
 895 005c E9DB     		blt	.L35
 310:.\main.c      ****             }
 311:.\main.c      ****             //Flush to Bluetooth            
 312:.\main.c      ****             //PSOC4_PutString( psoc4_buffer );            
 313:.\main.c      ****             clearPSoC4Buffer();
 896              		.loc 1 313 0 is_stmt 1
 897 005e FFF7FEFF 		bl	clearPSoC4Buffer
 314:.\main.c      ****             CyDelay(20);
 898              		.loc 1 314 0
 899 0062 4FF01400 		mov	r0, #20
 900 0066 FFF7FEFF 		bl	CyDelay
 901              	.L33:
ARM GAS  C:\Users\javier\AppData\Local\Temp\ccNg04gY.s 			page 23


 302:.\main.c      ****     while ( !FS_FEof( pFile ) )
 902              		.loc 1 302 0 discriminator 1
 903 006a 7868     		ldr	r0, [r7, #4]
 904 006c FFF7FEFF 		bl	FS_FEof
 905 0070 0346     		mov	r3, r0
 906 0072 002B     		cmp	r3, #0
 907 0074 CBD0     		beq	.L36
 315:.\main.c      ****         }        
 316:.\main.c      ****     }
 317:.\main.c      ****     PSOC4_PutChar('>');
 908              		.loc 1 317 0
 909 0076 4FF03E00 		mov	r0, #62
 910 007a FFF7FEFF 		bl	PSOC4_PutChar
 318:.\main.c      **** }
 911              		.loc 1 318 0
 912 007e 07F11007 		add	r7, r7, #16
 913 0082 BD46     		mov	sp, r7
 914 0084 80BD     		pop	{r7, pc}
 915              		.cfi_endproc
 916              	.LFE64:
 917              		.size	flushGPSData, .-flushGPSData
 918 0086 00BF     		.text
 919              	.Letext0:
 920              		.file 2 "c:\\program files (x86)\\cypress\\psoc creator\\3.0\\psoc creator\\import\\gnu_cs\\arm\\4
 921              		.file 3 "..\\emFile_V322b\\Code\\Include\\PSoC5/FS_Types.h"
 922              		.file 4 "./Generated_Source/PSoC5/core_cm3.h"
 923              		.section	.debug_info,"",%progbits
 924              	.Ldebug_info0:
 925 0000 B9030000 		.4byte	0x3b9
 926 0004 0200     		.2byte	0x2
 927 0006 00000000 		.4byte	.Ldebug_abbrev0
 928 000a 04       		.byte	0x4
 929 000b 01       		.uleb128 0x1
 930 000c C4010000 		.4byte	.LASF48
 931 0010 01       		.byte	0x1
 932 0011 B7000000 		.4byte	.LASF49
 933 0015 4B020000 		.4byte	.LASF50
 934 0019 00000000 		.4byte	.Ldebug_ranges0+0
 935 001d 00000000 		.4byte	0
 936 0021 00000000 		.4byte	0
 937 0025 00000000 		.4byte	.Ldebug_line0
 938 0029 02       		.uleb128 0x2
 939 002a 01       		.byte	0x1
 940 002b 06       		.byte	0x6
 941 002c 39020000 		.4byte	.LASF0
 942 0030 02       		.uleb128 0x2
 943 0031 01       		.byte	0x1
 944 0032 08       		.byte	0x8
 945 0033 A3000000 		.4byte	.LASF1
 946 0037 02       		.uleb128 0x2
 947 0038 02       		.byte	0x2
 948 0039 05       		.byte	0x5
 949 003a BA010000 		.4byte	.LASF2
 950 003e 02       		.uleb128 0x2
 951 003f 02       		.byte	0x2
 952 0040 07       		.byte	0x7
 953 0041 35000000 		.4byte	.LASF3
ARM GAS  C:\Users\javier\AppData\Local\Temp\ccNg04gY.s 			page 24


 954 0045 03       		.uleb128 0x3
 955 0046 B2010000 		.4byte	.LASF13
 956 004a 02       		.byte	0x2
 957 004b 4F       		.byte	0x4f
 958 004c 50000000 		.4byte	0x50
 959 0050 02       		.uleb128 0x2
 960 0051 04       		.byte	0x4
 961 0052 05       		.byte	0x5
 962 0053 2C000000 		.4byte	.LASF4
 963 0057 02       		.uleb128 0x2
 964 0058 04       		.byte	0x4
 965 0059 07       		.byte	0x7
 966 005a FE000000 		.4byte	.LASF5
 967 005e 02       		.uleb128 0x2
 968 005f 08       		.byte	0x8
 969 0060 05       		.byte	0x5
 970 0061 9A010000 		.4byte	.LASF6
 971 0065 02       		.uleb128 0x2
 972 0066 08       		.byte	0x8
 973 0067 07       		.byte	0x7
 974 0068 45010000 		.4byte	.LASF7
 975 006c 04       		.uleb128 0x4
 976 006d 04       		.byte	0x4
 977 006e 05       		.byte	0x5
 978 006f 696E7400 		.ascii	"int\000"
 979 0073 02       		.uleb128 0x2
 980 0074 04       		.byte	0x4
 981 0075 07       		.byte	0x7
 982 0076 2D010000 		.4byte	.LASF8
 983 007a 02       		.uleb128 0x2
 984 007b 04       		.byte	0x4
 985 007c 04       		.byte	0x4
 986 007d 9D000000 		.4byte	.LASF9
 987 0081 02       		.uleb128 0x2
 988 0082 08       		.byte	0x8
 989 0083 04       		.byte	0x4
 990 0084 6A000000 		.4byte	.LASF10
 991 0088 02       		.uleb128 0x2
 992 0089 01       		.byte	0x1
 993 008a 08       		.byte	0x8
 994 008b A8010000 		.4byte	.LASF11
 995 008f 02       		.uleb128 0x2
 996 0090 04       		.byte	0x4
 997 0091 07       		.byte	0x7
 998 0092 91010000 		.4byte	.LASF12
 999 0096 05       		.uleb128 0x5
 1000 0097 04       		.byte	0x4
 1001 0098 88000000 		.4byte	0x88
 1002 009c 03       		.uleb128 0x3
 1003 009d 89010000 		.4byte	.LASF14
 1004 00a1 03       		.byte	0x3
 1005 00a2 7E       		.byte	0x7e
 1006 00a3 A7000000 		.4byte	0xa7
 1007 00a7 06       		.uleb128 0x6
 1008 00a8 89010000 		.4byte	.LASF14
 1009 00ac 01       		.byte	0x1
 1010 00ad 05       		.uleb128 0x5
ARM GAS  C:\Users\javier\AppData\Local\Temp\ccNg04gY.s 			page 25


 1011 00ae 04       		.byte	0x4
 1012 00af 9C000000 		.4byte	0x9c
 1013 00b3 07       		.uleb128 0x7
 1014 00b4 24010000 		.4byte	.LASF51
 1015 00b8 01       		.byte	0x1
 1016 00b9 01       		.byte	0x1
 1017 00ba 18       		.byte	0x18
 1018 00bb CC000000 		.4byte	0xcc
 1019 00bf 08       		.uleb128 0x8
 1020 00c0 17020000 		.4byte	.LASF15
 1021 00c4 00       		.sleb128 0
 1022 00c5 08       		.uleb128 0x8
 1023 00c6 1A000000 		.4byte	.LASF16
 1024 00ca 01       		.sleb128 1
 1025 00cb 00       		.byte	0
 1026 00cc 09       		.uleb128 0x9
 1027 00cd 01       		.byte	0x1
 1028 00ce 7F000000 		.4byte	.LASF21
 1029 00d2 01       		.byte	0x1
 1030 00d3 36       		.byte	0x36
 1031 00d4 01       		.byte	0x1
 1032 00d5 00000000 		.4byte	.LFB56
 1033 00d9 20000000 		.4byte	.LFE56
 1034 00dd 00000000 		.4byte	.LLST0
 1035 00e1 01       		.byte	0x1
 1036 00e2 03010000 		.4byte	0x103
 1037 00e6 0A       		.uleb128 0xa
 1038 00e7 F9000000 		.4byte	.LASF17
 1039 00eb 01       		.byte	0x1
 1040 00ec 36       		.byte	0x36
 1041 00ed 96000000 		.4byte	0x96
 1042 00f1 02       		.byte	0x2
 1043 00f2 91       		.byte	0x91
 1044 00f3 74       		.sleb128 -12
 1045 00f4 0B       		.uleb128 0xb
 1046 00f5 6C656E00 		.ascii	"len\000"
 1047 00f9 01       		.byte	0x1
 1048 00fa 36       		.byte	0x36
 1049 00fb 6C000000 		.4byte	0x6c
 1050 00ff 02       		.byte	0x2
 1051 0100 91       		.byte	0x91
 1052 0101 70       		.sleb128 -16
 1053 0102 00       		.byte	0
 1054 0103 0C       		.uleb128 0xc
 1055 0104 01       		.byte	0x1
 1056 0105 21020000 		.4byte	.LASF18
 1057 0109 01       		.byte	0x1
 1058 010a 3B       		.byte	0x3b
 1059 010b 00000000 		.4byte	.LFB57
 1060 010f 16000000 		.4byte	.LFE57
 1061 0113 38000000 		.4byte	.LLST1
 1062 0117 01       		.byte	0x1
 1063 0118 0C       		.uleb128 0xc
 1064 0119 01       		.byte	0x1
 1065 011a 71000000 		.4byte	.LASF19
 1066 011e 01       		.byte	0x1
 1067 011f 3F       		.byte	0x3f
ARM GAS  C:\Users\javier\AppData\Local\Temp\ccNg04gY.s 			page 26


 1068 0120 00000000 		.4byte	.LFB58
 1069 0124 16000000 		.4byte	.LFE58
 1070 0128 64000000 		.4byte	.LLST2
 1071 012c 01       		.byte	0x1
 1072 012d 0C       		.uleb128 0xc
 1073 012e 01       		.byte	0x1
 1074 012f 8C020000 		.4byte	.LASF20
 1075 0133 01       		.byte	0x1
 1076 0134 44       		.byte	0x44
 1077 0135 00000000 		.4byte	.LFB59
 1078 0139 32000000 		.4byte	.LFE59
 1079 013d 90000000 		.4byte	.LLST3
 1080 0141 01       		.byte	0x1
 1081 0142 0D       		.uleb128 0xd
 1082 0143 01       		.byte	0x1
 1083 0144 17010000 		.4byte	.LASF22
 1084 0148 01       		.byte	0x1
 1085 0149 4B       		.byte	0x4b
 1086 014a 6C000000 		.4byte	0x6c
 1087 014e 00000000 		.4byte	.LFB60
 1088 0152 9C020000 		.4byte	.LFE60
 1089 0156 BC000000 		.4byte	.LLST4
 1090 015a 01       		.byte	0x1
 1091 015b CD010000 		.4byte	0x1cd
 1092 015f 0E       		.uleb128 0xe
 1093 0160 0D020000 		.4byte	.LASF23
 1094 0164 01       		.byte	0x1
 1095 0165 51       		.byte	0x51
 1096 0166 CD010000 		.4byte	0x1cd
 1097 016a 02       		.byte	0x2
 1098 016b 91       		.byte	0x91
 1099 016c 48       		.sleb128 -56
 1100 016d 0E       		.uleb128 0xe
 1101 016e 8B000000 		.4byte	.LASF24
 1102 0172 01       		.byte	0x1
 1103 0173 53       		.byte	0x53
 1104 0174 AD000000 		.4byte	0xad
 1105 0178 02       		.byte	0x2
 1106 0179 91       		.byte	0x91
 1107 017a 64       		.sleb128 -28
 1108 017b 0E       		.uleb128 0xe
 1109 017c 10010000 		.4byte	.LASF25
 1110 0180 01       		.byte	0x1
 1111 0181 54       		.byte	0x54
 1112 0182 88000000 		.4byte	0x88
 1113 0186 02       		.byte	0x2
 1114 0187 91       		.byte	0x91
 1115 0188 53       		.sleb128 -45
 1116 0189 0E       		.uleb128 0xe
 1117 018a 50000000 		.4byte	.LASF26
 1118 018e 01       		.byte	0x1
 1119 018f 5E       		.byte	0x5e
 1120 0190 DD010000 		.4byte	0x1dd
 1121 0194 03       		.byte	0x3
 1122 0195 91       		.byte	0x91
 1123 0196 54       		.sleb128 -44
 1124 0197 06       		.byte	0x6
ARM GAS  C:\Users\javier\AppData\Local\Temp\ccNg04gY.s 			page 27


 1125 0198 0F       		.uleb128 0xf
 1126 0199 706F7300 		.ascii	"pos\000"
 1127 019d 01       		.byte	0x1
 1128 019e 5F       		.byte	0x5f
 1129 019f 6C000000 		.4byte	0x6c
 1130 01a3 02       		.byte	0x2
 1131 01a4 91       		.byte	0x91
 1132 01a5 60       		.sleb128 -32
 1133 01a6 0E       		.uleb128 0xe
 1134 01a7 48000000 		.4byte	.LASF27
 1135 01ab 01       		.byte	0x1
 1136 01ac 6B       		.byte	0x6b
 1137 01ad 6C000000 		.4byte	0x6c
 1138 01b1 02       		.byte	0x2
 1139 01b2 91       		.byte	0x91
 1140 01b3 5C       		.sleb128 -36
 1141 01b4 10       		.uleb128 0x10
 1142 01b5 CA010000 		.4byte	.LBB2
 1143 01b9 5A020000 		.4byte	.LBE2
 1144 01bd 0E       		.uleb128 0xe
 1145 01be B1000000 		.4byte	.LASF28
 1146 01c2 01       		.byte	0x1
 1147 01c3 93       		.byte	0x93
 1148 01c4 F0010000 		.4byte	0x1f0
 1149 01c8 02       		.byte	0x2
 1150 01c9 91       		.byte	0x91
 1151 01ca 44       		.sleb128 -60
 1152 01cb 00       		.byte	0
 1153 01cc 00       		.byte	0
 1154 01cd 11       		.uleb128 0x11
 1155 01ce 88000000 		.4byte	0x88
 1156 01d2 DD010000 		.4byte	0x1dd
 1157 01d6 12       		.uleb128 0x12
 1158 01d7 8F000000 		.4byte	0x8f
 1159 01db 09       		.byte	0x9
 1160 01dc 00       		.byte	0
 1161 01dd 11       		.uleb128 0x11
 1162 01de 88000000 		.4byte	0x88
 1163 01e2 F0010000 		.4byte	0x1f0
 1164 01e6 13       		.uleb128 0x13
 1165 01e7 8F000000 		.4byte	0x8f
 1166 01eb 03       		.byte	0x3
 1167 01ec 91       		.byte	0x91
 1168 01ed 58       		.sleb128 -40
 1169 01ee 06       		.byte	0x6
 1170 01ef 00       		.byte	0
 1171 01f0 11       		.uleb128 0x11
 1172 01f1 88000000 		.4byte	0x88
 1173 01f5 00020000 		.4byte	0x200
 1174 01f9 12       		.uleb128 0x12
 1175 01fa 8F000000 		.4byte	0x8f
 1176 01fe 01       		.byte	0x1
 1177 01ff 00       		.byte	0
 1178 0200 14       		.uleb128 0x14
 1179 0201 01       		.byte	0x1
 1180 0202 C8000000 		.4byte	.LASF52
 1181 0206 01       		.byte	0x1
ARM GAS  C:\Users\javier\AppData\Local\Temp\ccNg04gY.s 			page 28


 1182 0207 B6       		.byte	0xb6
 1183 0208 01       		.byte	0x1
 1184 0209 6C000000 		.4byte	0x6c
 1185 020d 00000000 		.4byte	.LFB61
 1186 0211 7A000000 		.4byte	.LFE61
 1187 0215 F6000000 		.4byte	.LLST5
 1188 0219 01       		.byte	0x1
 1189 021a 49020000 		.4byte	0x249
 1190 021e 0A       		.uleb128 0xa
 1191 021f B1000000 		.4byte	.LASF28
 1192 0223 01       		.byte	0x1
 1193 0224 B6       		.byte	0xb6
 1194 0225 96000000 		.4byte	0x96
 1195 0229 02       		.byte	0x2
 1196 022a 91       		.byte	0x91
 1197 022b 6C       		.sleb128 -20
 1198 022c 0E       		.uleb128 0xe
 1199 022d 45020000 		.4byte	.LASF29
 1200 0231 01       		.byte	0x1
 1201 0232 B8       		.byte	0xb8
 1202 0233 6C000000 		.4byte	0x6c
 1203 0237 02       		.byte	0x2
 1204 0238 91       		.byte	0x91
 1205 0239 74       		.sleb128 -12
 1206 023a 0E       		.uleb128 0xe
 1207 023b 26000000 		.4byte	.LASF30
 1208 023f 01       		.byte	0x1
 1209 0240 B9       		.byte	0xb9
 1210 0241 6C000000 		.4byte	0x6c
 1211 0245 02       		.byte	0x2
 1212 0246 91       		.byte	0x91
 1213 0247 70       		.sleb128 -16
 1214 0248 00       		.byte	0
 1215 0249 0C       		.uleb128 0xc
 1216 024a 01       		.byte	0x1
 1217 024b D0000000 		.4byte	.LASF31
 1218 024f 01       		.byte	0x1
 1219 0250 C4       		.byte	0xc4
 1220 0251 00000000 		.4byte	.LFB62
 1221 0255 EC000000 		.4byte	.LFE62
 1222 0259 2E010000 		.4byte	.LLST6
 1223 025d 01       		.byte	0x1
 1224 025e 0C       		.uleb128 0xc
 1225 025f 01       		.byte	0x1
 1226 0260 0C000000 		.4byte	.LASF32
 1227 0264 01       		.byte	0x1
 1228 0265 DA       		.byte	0xda
 1229 0266 00000000 		.4byte	.LFB63
 1230 026a 9C000000 		.4byte	.LFE63
 1231 026e 5A010000 		.4byte	.LLST7
 1232 0272 01       		.byte	0x1
 1233 0273 15       		.uleb128 0x15
 1234 0274 01       		.byte	0x1
 1235 0275 5C010000 		.4byte	.LASF33
 1236 0279 01       		.byte	0x1
 1237 027a 2901     		.2byte	0x129
 1238 027c 01       		.byte	0x1
ARM GAS  C:\Users\javier\AppData\Local\Temp\ccNg04gY.s 			page 29


 1239 027d 00000000 		.4byte	.LFB64
 1240 0281 86000000 		.4byte	.LFE64
 1241 0285 86010000 		.4byte	.LLST8
 1242 0289 01       		.byte	0x1
 1243 028a BC020000 		.4byte	0x2bc
 1244 028e 16       		.uleb128 0x16
 1245 028f 8B000000 		.4byte	.LASF24
 1246 0293 01       		.byte	0x1
 1247 0294 2901     		.2byte	0x129
 1248 0296 AD000000 		.4byte	0xad
 1249 029a 02       		.byte	0x2
 1250 029b 91       		.byte	0x91
 1251 029c 6C       		.sleb128 -20
 1252 029d 17       		.uleb128 0x17
 1253 029e 1C010000 		.4byte	.LASF34
 1254 02a2 01       		.byte	0x1
 1255 02a3 2B01     		.2byte	0x12b
 1256 02a5 6C000000 		.4byte	0x6c
 1257 02a9 02       		.byte	0x2
 1258 02aa 91       		.byte	0x91
 1259 02ab 70       		.sleb128 -16
 1260 02ac 18       		.uleb128 0x18
 1261 02ad 706F7300 		.ascii	"pos\000"
 1262 02b1 01       		.byte	0x1
 1263 02b2 2C01     		.2byte	0x12c
 1264 02b4 6C000000 		.4byte	0x6c
 1265 02b8 02       		.byte	0x2
 1266 02b9 91       		.byte	0x91
 1267 02ba 74       		.sleb128 -12
 1268 02bb 00       		.byte	0
 1269 02bc 19       		.uleb128 0x19
 1270 02bd E6000000 		.4byte	.LASF35
 1271 02c1 04       		.byte	0x4
 1272 02c2 1606     		.2byte	0x616
 1273 02c4 CA020000 		.4byte	0x2ca
 1274 02c8 01       		.byte	0x1
 1275 02c9 01       		.byte	0x1
 1276 02ca 1A       		.uleb128 0x1a
 1277 02cb 45000000 		.4byte	0x45
 1278 02cf 1B       		.uleb128 0x1b
 1279 02d0 C0000000 		.4byte	.LASF36
 1280 02d4 01       		.byte	0x1
 1281 02d5 18       		.byte	0x18
 1282 02d6 B3000000 		.4byte	0xb3
 1283 02da 01       		.byte	0x1
 1284 02db 05       		.byte	0x5
 1285 02dc 03       		.byte	0x3
 1286 02dd 00000000 		.4byte	runMode
 1287 02e1 1B       		.uleb128 0x1b
 1288 02e2 A0020000 		.4byte	.LASF37
 1289 02e6 01       		.byte	0x1
 1290 02e7 22       		.byte	0x22
 1291 02e8 F3020000 		.4byte	0x2f3
 1292 02ec 01       		.byte	0x1
 1293 02ed 05       		.byte	0x5
 1294 02ee 03       		.byte	0x3
 1295 02ef 00000000 		.4byte	MAX_STR
ARM GAS  C:\Users\javier\AppData\Local\Temp\ccNg04gY.s 			page 30


 1296 02f3 1C       		.uleb128 0x1c
 1297 02f4 6C000000 		.4byte	0x6c
 1298 02f8 1B       		.uleb128 0x1b
 1299 02f9 32020000 		.4byte	.LASF38
 1300 02fd 01       		.byte	0x1
 1301 02fe 23       		.byte	0x23
 1302 02ff CD010000 		.4byte	0x1cd
 1303 0303 01       		.byte	0x1
 1304 0304 05       		.byte	0x5
 1305 0305 03       		.byte	0x3
 1306 0306 00000000 		.4byte	sdFile
 1307 030a 1B       		.uleb128 0x1b
 1308 030b AD010000 		.4byte	.LASF39
 1309 030f 01       		.byte	0x1
 1310 0310 24       		.byte	0x24
 1311 0311 F0010000 		.4byte	0x1f0
 1312 0315 01       		.byte	0x1
 1313 0316 05       		.byte	0x5
 1314 0317 03       		.byte	0x3
 1315 0318 00000000 		.4byte	CRLF
 1316 031c 1B       		.uleb128 0x1b
 1317 031d F3000000 		.4byte	.LASF40
 1318 0321 01       		.byte	0x1
 1319 0322 26       		.byte	0x26
 1320 0323 88000000 		.4byte	0x88
 1321 0327 01       		.byte	0x1
 1322 0328 05       		.byte	0x5
 1323 0329 03       		.byte	0x3
 1324 032a 00000000 		.4byte	START
 1325 032e 1B       		.uleb128 0x1b
 1326 032f 3A010000 		.4byte	.LASF41
 1327 0333 01       		.byte	0x1
 1328 0334 28       		.byte	0x28
 1329 0335 F0010000 		.4byte	0x1f0
 1330 0339 01       		.byte	0x1
 1331 033a 05       		.byte	0x5
 1332 033b 03       		.byte	0x3
 1333 033c 00000000 		.4byte	gpsSeconds
 1334 0340 11       		.uleb128 0x11
 1335 0341 88000000 		.4byte	0x88
 1336 0345 50030000 		.4byte	0x350
 1337 0349 12       		.uleb128 0x12
 1338 034a 8F000000 		.4byte	0x8f
 1339 034e 4F       		.byte	0x4f
 1340 034f 00       		.byte	0
 1341 0350 1B       		.uleb128 0x1b
 1342 0351 69010000 		.4byte	.LASF42
 1343 0355 01       		.byte	0x1
 1344 0356 2F       		.byte	0x2f
 1345 0357 40030000 		.4byte	0x340
 1346 035b 01       		.byte	0x1
 1347 035c 05       		.byte	0x5
 1348 035d 03       		.byte	0x3
 1349 035e 00000000 		.4byte	psoc4_msg
 1350 0362 1B       		.uleb128 0x1b
 1351 0363 73010000 		.4byte	.LASF43
 1352 0367 01       		.byte	0x1
ARM GAS  C:\Users\javier\AppData\Local\Temp\ccNg04gY.s 			page 31


 1353 0368 30       		.byte	0x30
 1354 0369 40030000 		.4byte	0x340
 1355 036d 01       		.byte	0x1
 1356 036e 05       		.byte	0x5
 1357 036f 03       		.byte	0x3
 1358 0370 00000000 		.4byte	psoc4_buffer
 1359 0374 1B       		.uleb128 0x1b
 1360 0375 91000000 		.4byte	.LASF44
 1361 0379 01       		.byte	0x1
 1362 037a 32       		.byte	0x32
 1363 037b 6C000000 		.4byte	0x6c
 1364 037f 01       		.byte	0x1
 1365 0380 05       		.byte	0x5
 1366 0381 03       		.byte	0x3
 1367 0382 00000000 		.4byte	psoc4MsgPos
 1368 0386 1B       		.uleb128 0x1b
 1369 0387 5A000000 		.4byte	.LASF45
 1370 038b 01       		.byte	0x1
 1371 038c 33       		.byte	0x33
 1372 038d 6C000000 		.4byte	0x6c
 1373 0391 01       		.byte	0x1
 1374 0392 05       		.byte	0x5
 1375 0393 03       		.byte	0x3
 1376 0394 00000000 		.4byte	psoc4MsgStarted
 1377 0398 1B       		.uleb128 0x1b
 1378 0399 00000000 		.4byte	.LASF46
 1379 039d 01       		.byte	0x1
 1380 039e 34       		.byte	0x34
 1381 039f 88000000 		.4byte	0x88
 1382 03a3 01       		.byte	0x1
 1383 03a4 05       		.byte	0x5
 1384 03a5 03       		.byte	0x3
 1385 03a6 00000000 		.4byte	inPSoc4Char
 1386 03aa 1B       		.uleb128 0x1b
 1387 03ab 80010000 		.4byte	.LASF47
 1388 03af 01       		.byte	0x1
 1389 03b0 B5       		.byte	0xb5
 1390 03b1 6C000000 		.4byte	0x6c
 1391 03b5 01       		.byte	0x1
 1392 03b6 05       		.byte	0x5
 1393 03b7 03       		.byte	0x3
 1394 03b8 00000000 		.4byte	iLastSec
 1395 03bc 00       		.byte	0
 1396              		.section	.debug_abbrev,"",%progbits
 1397              	.Ldebug_abbrev0:
 1398 0000 01       		.uleb128 0x1
 1399 0001 11       		.uleb128 0x11
 1400 0002 01       		.byte	0x1
 1401 0003 25       		.uleb128 0x25
 1402 0004 0E       		.uleb128 0xe
 1403 0005 13       		.uleb128 0x13
 1404 0006 0B       		.uleb128 0xb
 1405 0007 03       		.uleb128 0x3
 1406 0008 0E       		.uleb128 0xe
 1407 0009 1B       		.uleb128 0x1b
 1408 000a 0E       		.uleb128 0xe
 1409 000b 55       		.uleb128 0x55
ARM GAS  C:\Users\javier\AppData\Local\Temp\ccNg04gY.s 			page 32


 1410 000c 06       		.uleb128 0x6
 1411 000d 11       		.uleb128 0x11
 1412 000e 01       		.uleb128 0x1
 1413 000f 52       		.uleb128 0x52
 1414 0010 01       		.uleb128 0x1
 1415 0011 10       		.uleb128 0x10
 1416 0012 06       		.uleb128 0x6
 1417 0013 00       		.byte	0
 1418 0014 00       		.byte	0
 1419 0015 02       		.uleb128 0x2
 1420 0016 24       		.uleb128 0x24
 1421 0017 00       		.byte	0
 1422 0018 0B       		.uleb128 0xb
 1423 0019 0B       		.uleb128 0xb
 1424 001a 3E       		.uleb128 0x3e
 1425 001b 0B       		.uleb128 0xb
 1426 001c 03       		.uleb128 0x3
 1427 001d 0E       		.uleb128 0xe
 1428 001e 00       		.byte	0
 1429 001f 00       		.byte	0
 1430 0020 03       		.uleb128 0x3
 1431 0021 16       		.uleb128 0x16
 1432 0022 00       		.byte	0
 1433 0023 03       		.uleb128 0x3
 1434 0024 0E       		.uleb128 0xe
 1435 0025 3A       		.uleb128 0x3a
 1436 0026 0B       		.uleb128 0xb
 1437 0027 3B       		.uleb128 0x3b
 1438 0028 0B       		.uleb128 0xb
 1439 0029 49       		.uleb128 0x49
 1440 002a 13       		.uleb128 0x13
 1441 002b 00       		.byte	0
 1442 002c 00       		.byte	0
 1443 002d 04       		.uleb128 0x4
 1444 002e 24       		.uleb128 0x24
 1445 002f 00       		.byte	0
 1446 0030 0B       		.uleb128 0xb
 1447 0031 0B       		.uleb128 0xb
 1448 0032 3E       		.uleb128 0x3e
 1449 0033 0B       		.uleb128 0xb
 1450 0034 03       		.uleb128 0x3
 1451 0035 08       		.uleb128 0x8
 1452 0036 00       		.byte	0
 1453 0037 00       		.byte	0
 1454 0038 05       		.uleb128 0x5
 1455 0039 0F       		.uleb128 0xf
 1456 003a 00       		.byte	0
 1457 003b 0B       		.uleb128 0xb
 1458 003c 0B       		.uleb128 0xb
 1459 003d 49       		.uleb128 0x49
 1460 003e 13       		.uleb128 0x13
 1461 003f 00       		.byte	0
 1462 0040 00       		.byte	0
 1463 0041 06       		.uleb128 0x6
 1464 0042 13       		.uleb128 0x13
 1465 0043 00       		.byte	0
 1466 0044 03       		.uleb128 0x3
ARM GAS  C:\Users\javier\AppData\Local\Temp\ccNg04gY.s 			page 33


 1467 0045 0E       		.uleb128 0xe
 1468 0046 3C       		.uleb128 0x3c
 1469 0047 0C       		.uleb128 0xc
 1470 0048 00       		.byte	0
 1471 0049 00       		.byte	0
 1472 004a 07       		.uleb128 0x7
 1473 004b 04       		.uleb128 0x4
 1474 004c 01       		.byte	0x1
 1475 004d 03       		.uleb128 0x3
 1476 004e 0E       		.uleb128 0xe
 1477 004f 0B       		.uleb128 0xb
 1478 0050 0B       		.uleb128 0xb
 1479 0051 3A       		.uleb128 0x3a
 1480 0052 0B       		.uleb128 0xb
 1481 0053 3B       		.uleb128 0x3b
 1482 0054 0B       		.uleb128 0xb
 1483 0055 01       		.uleb128 0x1
 1484 0056 13       		.uleb128 0x13
 1485 0057 00       		.byte	0
 1486 0058 00       		.byte	0
 1487 0059 08       		.uleb128 0x8
 1488 005a 28       		.uleb128 0x28
 1489 005b 00       		.byte	0
 1490 005c 03       		.uleb128 0x3
 1491 005d 0E       		.uleb128 0xe
 1492 005e 1C       		.uleb128 0x1c
 1493 005f 0D       		.uleb128 0xd
 1494 0060 00       		.byte	0
 1495 0061 00       		.byte	0
 1496 0062 09       		.uleb128 0x9
 1497 0063 2E       		.uleb128 0x2e
 1498 0064 01       		.byte	0x1
 1499 0065 3F       		.uleb128 0x3f
 1500 0066 0C       		.uleb128 0xc
 1501 0067 03       		.uleb128 0x3
 1502 0068 0E       		.uleb128 0xe
 1503 0069 3A       		.uleb128 0x3a
 1504 006a 0B       		.uleb128 0xb
 1505 006b 3B       		.uleb128 0x3b
 1506 006c 0B       		.uleb128 0xb
 1507 006d 27       		.uleb128 0x27
 1508 006e 0C       		.uleb128 0xc
 1509 006f 11       		.uleb128 0x11
 1510 0070 01       		.uleb128 0x1
 1511 0071 12       		.uleb128 0x12
 1512 0072 01       		.uleb128 0x1
 1513 0073 40       		.uleb128 0x40
 1514 0074 06       		.uleb128 0x6
 1515 0075 9642     		.uleb128 0x2116
 1516 0077 0C       		.uleb128 0xc
 1517 0078 01       		.uleb128 0x1
 1518 0079 13       		.uleb128 0x13
 1519 007a 00       		.byte	0
 1520 007b 00       		.byte	0
 1521 007c 0A       		.uleb128 0xa
 1522 007d 05       		.uleb128 0x5
 1523 007e 00       		.byte	0
ARM GAS  C:\Users\javier\AppData\Local\Temp\ccNg04gY.s 			page 34


 1524 007f 03       		.uleb128 0x3
 1525 0080 0E       		.uleb128 0xe
 1526 0081 3A       		.uleb128 0x3a
 1527 0082 0B       		.uleb128 0xb
 1528 0083 3B       		.uleb128 0x3b
 1529 0084 0B       		.uleb128 0xb
 1530 0085 49       		.uleb128 0x49
 1531 0086 13       		.uleb128 0x13
 1532 0087 02       		.uleb128 0x2
 1533 0088 0A       		.uleb128 0xa
 1534 0089 00       		.byte	0
 1535 008a 00       		.byte	0
 1536 008b 0B       		.uleb128 0xb
 1537 008c 05       		.uleb128 0x5
 1538 008d 00       		.byte	0
 1539 008e 03       		.uleb128 0x3
 1540 008f 08       		.uleb128 0x8
 1541 0090 3A       		.uleb128 0x3a
 1542 0091 0B       		.uleb128 0xb
 1543 0092 3B       		.uleb128 0x3b
 1544 0093 0B       		.uleb128 0xb
 1545 0094 49       		.uleb128 0x49
 1546 0095 13       		.uleb128 0x13
 1547 0096 02       		.uleb128 0x2
 1548 0097 0A       		.uleb128 0xa
 1549 0098 00       		.byte	0
 1550 0099 00       		.byte	0
 1551 009a 0C       		.uleb128 0xc
 1552 009b 2E       		.uleb128 0x2e
 1553 009c 00       		.byte	0
 1554 009d 3F       		.uleb128 0x3f
 1555 009e 0C       		.uleb128 0xc
 1556 009f 03       		.uleb128 0x3
 1557 00a0 0E       		.uleb128 0xe
 1558 00a1 3A       		.uleb128 0x3a
 1559 00a2 0B       		.uleb128 0xb
 1560 00a3 3B       		.uleb128 0x3b
 1561 00a4 0B       		.uleb128 0xb
 1562 00a5 11       		.uleb128 0x11
 1563 00a6 01       		.uleb128 0x1
 1564 00a7 12       		.uleb128 0x12
 1565 00a8 01       		.uleb128 0x1
 1566 00a9 40       		.uleb128 0x40
 1567 00aa 06       		.uleb128 0x6
 1568 00ab 9642     		.uleb128 0x2116
 1569 00ad 0C       		.uleb128 0xc
 1570 00ae 00       		.byte	0
 1571 00af 00       		.byte	0
 1572 00b0 0D       		.uleb128 0xd
 1573 00b1 2E       		.uleb128 0x2e
 1574 00b2 01       		.byte	0x1
 1575 00b3 3F       		.uleb128 0x3f
 1576 00b4 0C       		.uleb128 0xc
 1577 00b5 03       		.uleb128 0x3
 1578 00b6 0E       		.uleb128 0xe
 1579 00b7 3A       		.uleb128 0x3a
 1580 00b8 0B       		.uleb128 0xb
ARM GAS  C:\Users\javier\AppData\Local\Temp\ccNg04gY.s 			page 35


 1581 00b9 3B       		.uleb128 0x3b
 1582 00ba 0B       		.uleb128 0xb
 1583 00bb 49       		.uleb128 0x49
 1584 00bc 13       		.uleb128 0x13
 1585 00bd 11       		.uleb128 0x11
 1586 00be 01       		.uleb128 0x1
 1587 00bf 12       		.uleb128 0x12
 1588 00c0 01       		.uleb128 0x1
 1589 00c1 40       		.uleb128 0x40
 1590 00c2 06       		.uleb128 0x6
 1591 00c3 9642     		.uleb128 0x2116
 1592 00c5 0C       		.uleb128 0xc
 1593 00c6 01       		.uleb128 0x1
 1594 00c7 13       		.uleb128 0x13
 1595 00c8 00       		.byte	0
 1596 00c9 00       		.byte	0
 1597 00ca 0E       		.uleb128 0xe
 1598 00cb 34       		.uleb128 0x34
 1599 00cc 00       		.byte	0
 1600 00cd 03       		.uleb128 0x3
 1601 00ce 0E       		.uleb128 0xe
 1602 00cf 3A       		.uleb128 0x3a
 1603 00d0 0B       		.uleb128 0xb
 1604 00d1 3B       		.uleb128 0x3b
 1605 00d2 0B       		.uleb128 0xb
 1606 00d3 49       		.uleb128 0x49
 1607 00d4 13       		.uleb128 0x13
 1608 00d5 02       		.uleb128 0x2
 1609 00d6 0A       		.uleb128 0xa
 1610 00d7 00       		.byte	0
 1611 00d8 00       		.byte	0
 1612 00d9 0F       		.uleb128 0xf
 1613 00da 34       		.uleb128 0x34
 1614 00db 00       		.byte	0
 1615 00dc 03       		.uleb128 0x3
 1616 00dd 08       		.uleb128 0x8
 1617 00de 3A       		.uleb128 0x3a
 1618 00df 0B       		.uleb128 0xb
 1619 00e0 3B       		.uleb128 0x3b
 1620 00e1 0B       		.uleb128 0xb
 1621 00e2 49       		.uleb128 0x49
 1622 00e3 13       		.uleb128 0x13
 1623 00e4 02       		.uleb128 0x2
 1624 00e5 0A       		.uleb128 0xa
 1625 00e6 00       		.byte	0
 1626 00e7 00       		.byte	0
 1627 00e8 10       		.uleb128 0x10
 1628 00e9 0B       		.uleb128 0xb
 1629 00ea 01       		.byte	0x1
 1630 00eb 11       		.uleb128 0x11
 1631 00ec 01       		.uleb128 0x1
 1632 00ed 12       		.uleb128 0x12
 1633 00ee 01       		.uleb128 0x1
 1634 00ef 00       		.byte	0
 1635 00f0 00       		.byte	0
 1636 00f1 11       		.uleb128 0x11
 1637 00f2 01       		.uleb128 0x1
ARM GAS  C:\Users\javier\AppData\Local\Temp\ccNg04gY.s 			page 36


 1638 00f3 01       		.byte	0x1
 1639 00f4 49       		.uleb128 0x49
 1640 00f5 13       		.uleb128 0x13
 1641 00f6 01       		.uleb128 0x1
 1642 00f7 13       		.uleb128 0x13
 1643 00f8 00       		.byte	0
 1644 00f9 00       		.byte	0
 1645 00fa 12       		.uleb128 0x12
 1646 00fb 21       		.uleb128 0x21
 1647 00fc 00       		.byte	0
 1648 00fd 49       		.uleb128 0x49
 1649 00fe 13       		.uleb128 0x13
 1650 00ff 2F       		.uleb128 0x2f
 1651 0100 0B       		.uleb128 0xb
 1652 0101 00       		.byte	0
 1653 0102 00       		.byte	0
 1654 0103 13       		.uleb128 0x13
 1655 0104 21       		.uleb128 0x21
 1656 0105 00       		.byte	0
 1657 0106 49       		.uleb128 0x49
 1658 0107 13       		.uleb128 0x13
 1659 0108 2F       		.uleb128 0x2f
 1660 0109 0A       		.uleb128 0xa
 1661 010a 00       		.byte	0
 1662 010b 00       		.byte	0
 1663 010c 14       		.uleb128 0x14
 1664 010d 2E       		.uleb128 0x2e
 1665 010e 01       		.byte	0x1
 1666 010f 3F       		.uleb128 0x3f
 1667 0110 0C       		.uleb128 0xc
 1668 0111 03       		.uleb128 0x3
 1669 0112 0E       		.uleb128 0xe
 1670 0113 3A       		.uleb128 0x3a
 1671 0114 0B       		.uleb128 0xb
 1672 0115 3B       		.uleb128 0x3b
 1673 0116 0B       		.uleb128 0xb
 1674 0117 27       		.uleb128 0x27
 1675 0118 0C       		.uleb128 0xc
 1676 0119 49       		.uleb128 0x49
 1677 011a 13       		.uleb128 0x13
 1678 011b 11       		.uleb128 0x11
 1679 011c 01       		.uleb128 0x1
 1680 011d 12       		.uleb128 0x12
 1681 011e 01       		.uleb128 0x1
 1682 011f 40       		.uleb128 0x40
 1683 0120 06       		.uleb128 0x6
 1684 0121 9742     		.uleb128 0x2117
 1685 0123 0C       		.uleb128 0xc
 1686 0124 01       		.uleb128 0x1
 1687 0125 13       		.uleb128 0x13
 1688 0126 00       		.byte	0
 1689 0127 00       		.byte	0
 1690 0128 15       		.uleb128 0x15
 1691 0129 2E       		.uleb128 0x2e
 1692 012a 01       		.byte	0x1
 1693 012b 3F       		.uleb128 0x3f
 1694 012c 0C       		.uleb128 0xc
ARM GAS  C:\Users\javier\AppData\Local\Temp\ccNg04gY.s 			page 37


 1695 012d 03       		.uleb128 0x3
 1696 012e 0E       		.uleb128 0xe
 1697 012f 3A       		.uleb128 0x3a
 1698 0130 0B       		.uleb128 0xb
 1699 0131 3B       		.uleb128 0x3b
 1700 0132 05       		.uleb128 0x5
 1701 0133 27       		.uleb128 0x27
 1702 0134 0C       		.uleb128 0xc
 1703 0135 11       		.uleb128 0x11
 1704 0136 01       		.uleb128 0x1
 1705 0137 12       		.uleb128 0x12
 1706 0138 01       		.uleb128 0x1
 1707 0139 40       		.uleb128 0x40
 1708 013a 06       		.uleb128 0x6
 1709 013b 9642     		.uleb128 0x2116
 1710 013d 0C       		.uleb128 0xc
 1711 013e 01       		.uleb128 0x1
 1712 013f 13       		.uleb128 0x13
 1713 0140 00       		.byte	0
 1714 0141 00       		.byte	0
 1715 0142 16       		.uleb128 0x16
 1716 0143 05       		.uleb128 0x5
 1717 0144 00       		.byte	0
 1718 0145 03       		.uleb128 0x3
 1719 0146 0E       		.uleb128 0xe
 1720 0147 3A       		.uleb128 0x3a
 1721 0148 0B       		.uleb128 0xb
 1722 0149 3B       		.uleb128 0x3b
 1723 014a 05       		.uleb128 0x5
 1724 014b 49       		.uleb128 0x49
 1725 014c 13       		.uleb128 0x13
 1726 014d 02       		.uleb128 0x2
 1727 014e 0A       		.uleb128 0xa
 1728 014f 00       		.byte	0
 1729 0150 00       		.byte	0
 1730 0151 17       		.uleb128 0x17
 1731 0152 34       		.uleb128 0x34
 1732 0153 00       		.byte	0
 1733 0154 03       		.uleb128 0x3
 1734 0155 0E       		.uleb128 0xe
 1735 0156 3A       		.uleb128 0x3a
 1736 0157 0B       		.uleb128 0xb
 1737 0158 3B       		.uleb128 0x3b
 1738 0159 05       		.uleb128 0x5
 1739 015a 49       		.uleb128 0x49
 1740 015b 13       		.uleb128 0x13
 1741 015c 02       		.uleb128 0x2
 1742 015d 0A       		.uleb128 0xa
 1743 015e 00       		.byte	0
 1744 015f 00       		.byte	0
 1745 0160 18       		.uleb128 0x18
 1746 0161 34       		.uleb128 0x34
 1747 0162 00       		.byte	0
 1748 0163 03       		.uleb128 0x3
 1749 0164 08       		.uleb128 0x8
 1750 0165 3A       		.uleb128 0x3a
 1751 0166 0B       		.uleb128 0xb
ARM GAS  C:\Users\javier\AppData\Local\Temp\ccNg04gY.s 			page 38


 1752 0167 3B       		.uleb128 0x3b
 1753 0168 05       		.uleb128 0x5
 1754 0169 49       		.uleb128 0x49
 1755 016a 13       		.uleb128 0x13
 1756 016b 02       		.uleb128 0x2
 1757 016c 0A       		.uleb128 0xa
 1758 016d 00       		.byte	0
 1759 016e 00       		.byte	0
 1760 016f 19       		.uleb128 0x19
 1761 0170 34       		.uleb128 0x34
 1762 0171 00       		.byte	0
 1763 0172 03       		.uleb128 0x3
 1764 0173 0E       		.uleb128 0xe
 1765 0174 3A       		.uleb128 0x3a
 1766 0175 0B       		.uleb128 0xb
 1767 0176 3B       		.uleb128 0x3b
 1768 0177 05       		.uleb128 0x5
 1769 0178 49       		.uleb128 0x49
 1770 0179 13       		.uleb128 0x13
 1771 017a 3F       		.uleb128 0x3f
 1772 017b 0C       		.uleb128 0xc
 1773 017c 3C       		.uleb128 0x3c
 1774 017d 0C       		.uleb128 0xc
 1775 017e 00       		.byte	0
 1776 017f 00       		.byte	0
 1777 0180 1A       		.uleb128 0x1a
 1778 0181 35       		.uleb128 0x35
 1779 0182 00       		.byte	0
 1780 0183 49       		.uleb128 0x49
 1781 0184 13       		.uleb128 0x13
 1782 0185 00       		.byte	0
 1783 0186 00       		.byte	0
 1784 0187 1B       		.uleb128 0x1b
 1785 0188 34       		.uleb128 0x34
 1786 0189 00       		.byte	0
 1787 018a 03       		.uleb128 0x3
 1788 018b 0E       		.uleb128 0xe
 1789 018c 3A       		.uleb128 0x3a
 1790 018d 0B       		.uleb128 0xb
 1791 018e 3B       		.uleb128 0x3b
 1792 018f 0B       		.uleb128 0xb
 1793 0190 49       		.uleb128 0x49
 1794 0191 13       		.uleb128 0x13
 1795 0192 3F       		.uleb128 0x3f
 1796 0193 0C       		.uleb128 0xc
 1797 0194 02       		.uleb128 0x2
 1798 0195 0A       		.uleb128 0xa
 1799 0196 00       		.byte	0
 1800 0197 00       		.byte	0
 1801 0198 1C       		.uleb128 0x1c
 1802 0199 26       		.uleb128 0x26
 1803 019a 00       		.byte	0
 1804 019b 49       		.uleb128 0x49
 1805 019c 13       		.uleb128 0x13
 1806 019d 00       		.byte	0
 1807 019e 00       		.byte	0
 1808 019f 00       		.byte	0
ARM GAS  C:\Users\javier\AppData\Local\Temp\ccNg04gY.s 			page 39


 1809              		.section	.debug_loc,"",%progbits
 1810              	.Ldebug_loc0:
 1811              	.LLST0:
 1812 0000 00000000 		.4byte	.LFB56
 1813 0004 02000000 		.4byte	.LCFI0
 1814 0008 0200     		.2byte	0x2
 1815 000a 7D       		.byte	0x7d
 1816 000b 00       		.sleb128 0
 1817 000c 02000000 		.4byte	.LCFI0
 1818 0010 04000000 		.4byte	.LCFI1
 1819 0014 0200     		.2byte	0x2
 1820 0016 7D       		.byte	0x7d
 1821 0017 08       		.sleb128 8
 1822 0018 04000000 		.4byte	.LCFI1
 1823 001c 06000000 		.4byte	.LCFI2
 1824 0020 0200     		.2byte	0x2
 1825 0022 7D       		.byte	0x7d
 1826 0023 10       		.sleb128 16
 1827 0024 06000000 		.4byte	.LCFI2
 1828 0028 20000000 		.4byte	.LFE56
 1829 002c 0200     		.2byte	0x2
 1830 002e 77       		.byte	0x77
 1831 002f 10       		.sleb128 16
 1832 0030 00000000 		.4byte	0
 1833 0034 00000000 		.4byte	0
 1834              	.LLST1:
 1835 0038 00000000 		.4byte	.LFB57
 1836 003c 02000000 		.4byte	.LCFI3
 1837 0040 0200     		.2byte	0x2
 1838 0042 7D       		.byte	0x7d
 1839 0043 00       		.sleb128 0
 1840 0044 02000000 		.4byte	.LCFI3
 1841 0048 04000000 		.4byte	.LCFI4
 1842 004c 0200     		.2byte	0x2
 1843 004e 7D       		.byte	0x7d
 1844 004f 08       		.sleb128 8
 1845 0050 04000000 		.4byte	.LCFI4
 1846 0054 16000000 		.4byte	.LFE57
 1847 0058 0200     		.2byte	0x2
 1848 005a 77       		.byte	0x77
 1849 005b 08       		.sleb128 8
 1850 005c 00000000 		.4byte	0
 1851 0060 00000000 		.4byte	0
 1852              	.LLST2:
 1853 0064 00000000 		.4byte	.LFB58
 1854 0068 02000000 		.4byte	.LCFI5
 1855 006c 0200     		.2byte	0x2
 1856 006e 7D       		.byte	0x7d
 1857 006f 00       		.sleb128 0
 1858 0070 02000000 		.4byte	.LCFI5
 1859 0074 04000000 		.4byte	.LCFI6
 1860 0078 0200     		.2byte	0x2
 1861 007a 7D       		.byte	0x7d
 1862 007b 08       		.sleb128 8
 1863 007c 04000000 		.4byte	.LCFI6
 1864 0080 16000000 		.4byte	.LFE58
 1865 0084 0200     		.2byte	0x2
ARM GAS  C:\Users\javier\AppData\Local\Temp\ccNg04gY.s 			page 40


 1866 0086 77       		.byte	0x77
 1867 0087 08       		.sleb128 8
 1868 0088 00000000 		.4byte	0
 1869 008c 00000000 		.4byte	0
 1870              	.LLST3:
 1871 0090 00000000 		.4byte	.LFB59
 1872 0094 02000000 		.4byte	.LCFI7
 1873 0098 0200     		.2byte	0x2
 1874 009a 7D       		.byte	0x7d
 1875 009b 00       		.sleb128 0
 1876 009c 02000000 		.4byte	.LCFI7
 1877 00a0 04000000 		.4byte	.LCFI8
 1878 00a4 0200     		.2byte	0x2
 1879 00a6 7D       		.byte	0x7d
 1880 00a7 08       		.sleb128 8
 1881 00a8 04000000 		.4byte	.LCFI8
 1882 00ac 32000000 		.4byte	.LFE59
 1883 00b0 0200     		.2byte	0x2
 1884 00b2 77       		.byte	0x77
 1885 00b3 08       		.sleb128 8
 1886 00b4 00000000 		.4byte	0
 1887 00b8 00000000 		.4byte	0
 1888              	.LLST4:
 1889 00bc 00000000 		.4byte	.LFB60
 1890 00c0 04000000 		.4byte	.LCFI9
 1891 00c4 0200     		.2byte	0x2
 1892 00c6 7D       		.byte	0x7d
 1893 00c7 00       		.sleb128 0
 1894 00c8 04000000 		.4byte	.LCFI9
 1895 00cc 06000000 		.4byte	.LCFI10
 1896 00d0 0200     		.2byte	0x2
 1897 00d2 7D       		.byte	0x7d
 1898 00d3 18       		.sleb128 24
 1899 00d4 06000000 		.4byte	.LCFI10
 1900 00d8 08000000 		.4byte	.LCFI11
 1901 00dc 0300     		.2byte	0x3
 1902 00de 7D       		.byte	0x7d
 1903 00df C000     		.sleb128 64
 1904 00e1 08000000 		.4byte	.LCFI11
 1905 00e5 9C020000 		.4byte	.LFE60
 1906 00e9 0300     		.2byte	0x3
 1907 00eb 77       		.byte	0x77
 1908 00ec C000     		.sleb128 64
 1909 00ee 00000000 		.4byte	0
 1910 00f2 00000000 		.4byte	0
 1911              	.LLST5:
 1912 00f6 00000000 		.4byte	.LFB61
 1913 00fa 02000000 		.4byte	.LCFI12
 1914 00fe 0200     		.2byte	0x2
 1915 0100 7D       		.byte	0x7d
 1916 0101 00       		.sleb128 0
 1917 0102 02000000 		.4byte	.LCFI12
 1918 0106 04000000 		.4byte	.LCFI13
 1919 010a 0200     		.2byte	0x2
 1920 010c 7D       		.byte	0x7d
 1921 010d 04       		.sleb128 4
 1922 010e 04000000 		.4byte	.LCFI13
ARM GAS  C:\Users\javier\AppData\Local\Temp\ccNg04gY.s 			page 41


 1923 0112 06000000 		.4byte	.LCFI14
 1924 0116 0200     		.2byte	0x2
 1925 0118 7D       		.byte	0x7d
 1926 0119 18       		.sleb128 24
 1927 011a 06000000 		.4byte	.LCFI14
 1928 011e 7A000000 		.4byte	.LFE61
 1929 0122 0200     		.2byte	0x2
 1930 0124 77       		.byte	0x77
 1931 0125 18       		.sleb128 24
 1932 0126 00000000 		.4byte	0
 1933 012a 00000000 		.4byte	0
 1934              	.LLST6:
 1935 012e 00000000 		.4byte	.LFB62
 1936 0132 02000000 		.4byte	.LCFI15
 1937 0136 0200     		.2byte	0x2
 1938 0138 7D       		.byte	0x7d
 1939 0139 00       		.sleb128 0
 1940 013a 02000000 		.4byte	.LCFI15
 1941 013e 04000000 		.4byte	.LCFI16
 1942 0142 0200     		.2byte	0x2
 1943 0144 7D       		.byte	0x7d
 1944 0145 08       		.sleb128 8
 1945 0146 04000000 		.4byte	.LCFI16
 1946 014a EC000000 		.4byte	.LFE62
 1947 014e 0200     		.2byte	0x2
 1948 0150 77       		.byte	0x77
 1949 0151 08       		.sleb128 8
 1950 0152 00000000 		.4byte	0
 1951 0156 00000000 		.4byte	0
 1952              	.LLST7:
 1953 015a 00000000 		.4byte	.LFB63
 1954 015e 02000000 		.4byte	.LCFI17
 1955 0162 0200     		.2byte	0x2
 1956 0164 7D       		.byte	0x7d
 1957 0165 00       		.sleb128 0
 1958 0166 02000000 		.4byte	.LCFI17
 1959 016a 04000000 		.4byte	.LCFI18
 1960 016e 0200     		.2byte	0x2
 1961 0170 7D       		.byte	0x7d
 1962 0171 08       		.sleb128 8
 1963 0172 04000000 		.4byte	.LCFI18
 1964 0176 9C000000 		.4byte	.LFE63
 1965 017a 0200     		.2byte	0x2
 1966 017c 77       		.byte	0x77
 1967 017d 08       		.sleb128 8
 1968 017e 00000000 		.4byte	0
 1969 0182 00000000 		.4byte	0
 1970              	.LLST8:
 1971 0186 00000000 		.4byte	.LFB64
 1972 018a 02000000 		.4byte	.LCFI19
 1973 018e 0200     		.2byte	0x2
 1974 0190 7D       		.byte	0x7d
 1975 0191 00       		.sleb128 0
 1976 0192 02000000 		.4byte	.LCFI19
 1977 0196 04000000 		.4byte	.LCFI20
 1978 019a 0200     		.2byte	0x2
 1979 019c 7D       		.byte	0x7d
ARM GAS  C:\Users\javier\AppData\Local\Temp\ccNg04gY.s 			page 42


 1980 019d 08       		.sleb128 8
 1981 019e 04000000 		.4byte	.LCFI20
 1982 01a2 06000000 		.4byte	.LCFI21
 1983 01a6 0200     		.2byte	0x2
 1984 01a8 7D       		.byte	0x7d
 1985 01a9 18       		.sleb128 24
 1986 01aa 06000000 		.4byte	.LCFI21
 1987 01ae 86000000 		.4byte	.LFE64
 1988 01b2 0200     		.2byte	0x2
 1989 01b4 77       		.byte	0x77
 1990 01b5 18       		.sleb128 24
 1991 01b6 00000000 		.4byte	0
 1992 01ba 00000000 		.4byte	0
 1993              		.section	.debug_aranges,"",%progbits
 1994 0000 5C000000 		.4byte	0x5c
 1995 0004 0200     		.2byte	0x2
 1996 0006 00000000 		.4byte	.Ldebug_info0
 1997 000a 04       		.byte	0x4
 1998 000b 00       		.byte	0
 1999 000c 0000     		.2byte	0
 2000 000e 0000     		.2byte	0
 2001 0010 00000000 		.4byte	.LFB56
 2002 0014 20000000 		.4byte	.LFE56-.LFB56
 2003 0018 00000000 		.4byte	.LFB57
 2004 001c 16000000 		.4byte	.LFE57-.LFB57
 2005 0020 00000000 		.4byte	.LFB58
 2006 0024 16000000 		.4byte	.LFE58-.LFB58
 2007 0028 00000000 		.4byte	.LFB59
 2008 002c 32000000 		.4byte	.LFE59-.LFB59
 2009 0030 00000000 		.4byte	.LFB60
 2010 0034 9C020000 		.4byte	.LFE60-.LFB60
 2011 0038 00000000 		.4byte	.LFB61
 2012 003c 7A000000 		.4byte	.LFE61-.LFB61
 2013 0040 00000000 		.4byte	.LFB62
 2014 0044 EC000000 		.4byte	.LFE62-.LFB62
 2015 0048 00000000 		.4byte	.LFB63
 2016 004c 9C000000 		.4byte	.LFE63-.LFB63
 2017 0050 00000000 		.4byte	.LFB64
 2018 0054 86000000 		.4byte	.LFE64-.LFB64
 2019 0058 00000000 		.4byte	0
 2020 005c 00000000 		.4byte	0
 2021              		.section	.debug_ranges,"",%progbits
 2022              	.Ldebug_ranges0:
 2023 0000 00000000 		.4byte	.LFB56
 2024 0004 20000000 		.4byte	.LFE56
 2025 0008 00000000 		.4byte	.LFB57
 2026 000c 16000000 		.4byte	.LFE57
 2027 0010 00000000 		.4byte	.LFB58
 2028 0014 16000000 		.4byte	.LFE58
 2029 0018 00000000 		.4byte	.LFB59
 2030 001c 32000000 		.4byte	.LFE59
 2031 0020 00000000 		.4byte	.LFB60
 2032 0024 9C020000 		.4byte	.LFE60
 2033 0028 00000000 		.4byte	.LFB61
 2034 002c 7A000000 		.4byte	.LFE61
 2035 0030 00000000 		.4byte	.LFB62
 2036 0034 EC000000 		.4byte	.LFE62
ARM GAS  C:\Users\javier\AppData\Local\Temp\ccNg04gY.s 			page 43


 2037 0038 00000000 		.4byte	.LFB63
 2038 003c 9C000000 		.4byte	.LFE63
 2039 0040 00000000 		.4byte	.LFB64
 2040 0044 86000000 		.4byte	.LFE64
 2041 0048 00000000 		.4byte	0
 2042 004c 00000000 		.4byte	0
 2043              		.section	.debug_line,"",%progbits
 2044              	.Ldebug_line0:
 2045 0000 64020000 		.section	.debug_str,"MS",%progbits,1
 2045      02001D01 
 2045      00000201 
 2045      FB0E0D00 
 2045      01010101 
 2046              	.LASF46:
 2047 0000 696E5053 		.ascii	"inPSoc4Char\000"
 2047      6F633443 
 2047      68617200 
 2048              	.LASF32:
 2049 000c 66657463 		.ascii	"fetchPSoC4Msg\000"
 2049      6850536F 
 2049      43344D73 
 2049      6700
 2050              	.LASF16:
 2051 001a 4558504F 		.ascii	"EXPORT_BLUE\000"
 2051      52545F42 
 2051      4C554500 
 2052              	.LASF30:
 2053 0026 76616C75 		.ascii	"value\000"
 2053      6500
 2054              	.LASF4:
 2055 002c 6C6F6E67 		.ascii	"long int\000"
 2055      20696E74 
 2055      00
 2056              	.LASF3:
 2057 0035 73686F72 		.ascii	"short unsigned int\000"
 2057      7420756E 
 2057      7369676E 
 2057      65642069 
 2057      6E7400
 2058              	.LASF27:
 2059 0048 73746172 		.ascii	"started\000"
 2059      74656400 
 2060              	.LASF26:
 2061 0050 696E7075 		.ascii	"inputLine\000"
 2061      744C696E 
 2061      6500
 2062              	.LASF45:
 2063 005a 70736F63 		.ascii	"psoc4MsgStarted\000"
 2063      344D7367 
 2063      53746172 
 2063      74656400 
 2064              	.LASF10:
 2065 006a 646F7562 		.ascii	"double\000"
 2065      6C6500
 2066              	.LASF19:
 2067 0071 636C6561 		.ascii	"clearPSoC4Msg\000"
 2067      7250536F 
ARM GAS  C:\Users\javier\AppData\Local\Temp\ccNg04gY.s 			page 44


 2067      43344D73 
 2067      6700
 2068              	.LASF21:
 2069 007f 636C6561 		.ascii	"clearBuffer\000"
 2069      72427566 
 2069      66657200 
 2070              	.LASF24:
 2071 008b 7046696C 		.ascii	"pFile\000"
 2071      6500
 2072              	.LASF44:
 2073 0091 70736F63 		.ascii	"psoc4MsgPos\000"
 2073      344D7367 
 2073      506F7300 
 2074              	.LASF9:
 2075 009d 666C6F61 		.ascii	"float\000"
 2075      7400
 2076              	.LASF1:
 2077 00a3 756E7369 		.ascii	"unsigned char\000"
 2077      676E6564 
 2077      20636861 
 2077      7200
 2078              	.LASF28:
 2079 00b1 696E7075 		.ascii	"input\000"
 2079      7400
 2080              	.LASF49:
 2081 00b7 2E5C6D61 		.ascii	".\\main.c\000"
 2081      696E2E63 
 2081      00
 2082              	.LASF36:
 2083 00c0 72756E4D 		.ascii	"runMode\000"
 2083      6F646500 
 2084              	.LASF52:
 2085 00c8 6C6F6754 		.ascii	"logTime\000"
 2085      696D6500 
 2086              	.LASF31:
 2087 00d0 72656164 		.ascii	"readPSoC4AgregateData\000"
 2087      50536F43 
 2087      34416772 
 2087      65676174 
 2087      65446174 
 2088              	.LASF35:
 2089 00e6 49544D5F 		.ascii	"ITM_RxBuffer\000"
 2089      52784275 
 2089      66666572 
 2089      00
 2090              	.LASF40:
 2091 00f3 53544152 		.ascii	"START\000"
 2091      5400
 2092              	.LASF17:
 2093 00f9 62756666 		.ascii	"buff\000"
 2093      00
 2094              	.LASF5:
 2095 00fe 6C6F6E67 		.ascii	"long unsigned int\000"
 2095      20756E73 
 2095      69676E65 
 2095      6420696E 
 2095      7400
ARM GAS  C:\Users\javier\AppData\Local\Temp\ccNg04gY.s 			page 45


 2096              	.LASF25:
 2097 0110 696E4368 		.ascii	"inChar\000"
 2097      617200
 2098              	.LASF22:
 2099 0117 6D61696E 		.ascii	"main\000"
 2099      00
 2100              	.LASF34:
 2101 011c 72656164 		.ascii	"readLen\000"
 2101      4C656E00 
 2102              	.LASF51:
 2103 0124 52554E5F 		.ascii	"RUN_MODE\000"
 2103      4D4F4445 
 2103      00
 2104              	.LASF8:
 2105 012d 756E7369 		.ascii	"unsigned int\000"
 2105      676E6564 
 2105      20696E74 
 2105      00
 2106              	.LASF41:
 2107 013a 67707353 		.ascii	"gpsSeconds\000"
 2107      65636F6E 
 2107      647300
 2108              	.LASF7:
 2109 0145 6C6F6E67 		.ascii	"long long unsigned int\000"
 2109      206C6F6E 
 2109      6720756E 
 2109      7369676E 
 2109      65642069 
 2110              	.LASF33:
 2111 015c 666C7573 		.ascii	"flushGPSData\000"
 2111      68475053 
 2111      44617461 
 2111      00
 2112              	.LASF42:
 2113 0169 70736F63 		.ascii	"psoc4_msg\000"
 2113      345F6D73 
 2113      6700
 2114              	.LASF43:
 2115 0173 70736F63 		.ascii	"psoc4_buffer\000"
 2115      345F6275 
 2115      66666572 
 2115      00
 2116              	.LASF47:
 2117 0180 694C6173 		.ascii	"iLastSec\000"
 2117      74536563 
 2117      00
 2118              	.LASF14:
 2119 0189 46535F46 		.ascii	"FS_FILE\000"
 2119      494C4500 
 2120              	.LASF12:
 2121 0191 73697A65 		.ascii	"sizetype\000"
 2121      74797065 
 2121      00
 2122              	.LASF6:
 2123 019a 6C6F6E67 		.ascii	"long long int\000"
 2123      206C6F6E 
 2123      6720696E 
ARM GAS  C:\Users\javier\AppData\Local\Temp\ccNg04gY.s 			page 46


 2123      7400
 2124              	.LASF11:
 2125 01a8 63686172 		.ascii	"char\000"
 2125      00
 2126              	.LASF39:
 2127 01ad 43524C46 		.ascii	"CRLF\000"
 2127      00
 2128              	.LASF13:
 2129 01b2 696E7433 		.ascii	"int32_t\000"
 2129      325F7400 
 2130              	.LASF2:
 2131 01ba 73686F72 		.ascii	"short int\000"
 2131      7420696E 
 2131      7400
 2132              	.LASF48:
 2133 01c4 474E5520 		.ascii	"GNU C 4.7.3 20130312 (release) [ARM/embedded-4_7-br"
 2133      4320342E 
 2133      372E3320 
 2133      32303133 
 2133      30333132 
 2134 01f7 616E6368 		.ascii	"anch revision 196615]\000"
 2134      20726576 
 2134      6973696F 
 2134      6E203139 
 2134      36363135 
 2135              	.LASF23:
 2136 020d 7364566F 		.ascii	"sdVolName\000"
 2136      6C4E616D 
 2136      6500
 2137              	.LASF15:
 2138 0217 5245434F 		.ascii	"RECORDING\000"
 2138      5244494E 
 2138      4700
 2139              	.LASF18:
 2140 0221 636C6561 		.ascii	"clearPSoC4Buffer\000"
 2140      7250536F 
 2140      43344275 
 2140      66666572 
 2140      00
 2141              	.LASF38:
 2142 0232 73644669 		.ascii	"sdFile\000"
 2142      6C6500
 2143              	.LASF0:
 2144 0239 7369676E 		.ascii	"signed char\000"
 2144      65642063 
 2144      68617200 
 2145              	.LASF29:
 2146 0245 6C6F674D 		.ascii	"logMe\000"
 2146      6500
 2147              	.LASF50:
 2148 024b 433A5C50 		.ascii	"C:\\Projects\\PSoC\\Bootloading_PSoC5_LP\\Bootloadi"
 2148      726F6A65 
 2148      6374735C 
 2148      50536F43 
 2148      5C426F6F 
 2149 027a 6E675F50 		.ascii	"ng_PSoC5_LP.cydsn\000"
 2149      536F4335 
ARM GAS  C:\Users\javier\AppData\Local\Temp\ccNg04gY.s 			page 47


 2149      5F4C502E 
 2149      63796473 
 2149      6E00
 2150              	.LASF20:
 2151 028c 6D6F7665 		.ascii	"movePSoC4Buffer2Msg\000"
 2151      50536F43 
 2151      34427566 
 2151      66657232 
 2151      4D736700 
 2152              	.LASF37:
 2153 02a0 4D41585F 		.ascii	"MAX_STR\000"
 2153      53545200 
 2154              		.ident	"GCC: (GNU Tools for ARM Embedded Processors) 4.7.3 20130312 (release) [ARM/embedded-4_7-br
