ARM GAS  C:\Users\javier\AppData\Local\Temp\ccuiDKAi.s 			page 1


   1              		.syntax unified
   2              		.cpu cortex-m3
   3              		.fpu softvfp
   4              		.eabi_attribute 20, 1
   5              		.eabi_attribute 21, 1
   6              		.eabi_attribute 23, 3
   7              		.eabi_attribute 24, 1
   8              		.eabi_attribute 25, 1
   9              		.eabi_attribute 26, 1
  10              		.eabi_attribute 30, 6
  11              		.eabi_attribute 34, 1
  12              		.eabi_attribute 18, 4
  13              		.thumb
  14              		.file	"PSOC4.c"
  15              		.text
  16              	.Ltext0:
  17              		.cfi_sections	.debug_frame
  18              		.global	PSOC4_initVar
  19              		.bss
  20              		.type	PSOC4_initVar, %object
  21              		.size	PSOC4_initVar, 1
  22              	PSOC4_initVar:
  23 0000 00       		.space	1
  24              		.comm	PSOC4_rxBuffer,50,4
  25              		.global	PSOC4_rxBufferRead
  26              		.type	PSOC4_rxBufferRead, %object
  27              		.size	PSOC4_rxBufferRead, 1
  28              	PSOC4_rxBufferRead:
  29 0001 00       		.space	1
  30              		.global	PSOC4_rxBufferWrite
  31              		.type	PSOC4_rxBufferWrite, %object
  32              		.size	PSOC4_rxBufferWrite, 1
  33              	PSOC4_rxBufferWrite:
  34 0002 00       		.space	1
  35              		.global	PSOC4_rxBufferLoopDetect
  36              		.type	PSOC4_rxBufferLoopDetect, %object
  37              		.size	PSOC4_rxBufferLoopDetect, 1
  38              	PSOC4_rxBufferLoopDetect:
  39 0003 00       		.space	1
  40              		.global	PSOC4_rxBufferOverflow
  41              		.type	PSOC4_rxBufferOverflow, %object
  42              		.size	PSOC4_rxBufferOverflow, 1
  43              	PSOC4_rxBufferOverflow:
  44 0004 00       		.space	1
  45              		.section	.text.PSOC4_Start,"ax",%progbits
  46              		.align	2
  47              		.global	PSOC4_Start
  48              		.thumb
  49              		.thumb_func
  50              		.type	PSOC4_Start, %function
  51              	PSOC4_Start:
  52              	.LFB0:
  53              		.file 1 ".\\Generated_Source\\PSoC5\\PSOC4.c"
   1:.\Generated_Source\PSoC5/PSOC4.c **** /*******************************************************************************
   2:.\Generated_Source\PSoC5/PSOC4.c **** * File Name: PSOC4.c
   3:.\Generated_Source\PSoC5/PSOC4.c **** * Version 2.30
   4:.\Generated_Source\PSoC5/PSOC4.c **** *
ARM GAS  C:\Users\javier\AppData\Local\Temp\ccuiDKAi.s 			page 2


   5:.\Generated_Source\PSoC5/PSOC4.c **** * Description:
   6:.\Generated_Source\PSoC5/PSOC4.c **** *  This file provides all API functionality of the UART component
   7:.\Generated_Source\PSoC5/PSOC4.c **** *
   8:.\Generated_Source\PSoC5/PSOC4.c **** * Note:
   9:.\Generated_Source\PSoC5/PSOC4.c **** *
  10:.\Generated_Source\PSoC5/PSOC4.c **** ********************************************************************************
  11:.\Generated_Source\PSoC5/PSOC4.c **** * Copyright 2008-2012, Cypress Semiconductor Corporation.  All rights reserved.
  12:.\Generated_Source\PSoC5/PSOC4.c **** * You may use this file only in accordance with the license, terms, conditions,
  13:.\Generated_Source\PSoC5/PSOC4.c **** * disclaimers, and limitations in the end user license agreement accompanying
  14:.\Generated_Source\PSoC5/PSOC4.c **** * the software package with which this file was provided.
  15:.\Generated_Source\PSoC5/PSOC4.c **** *******************************************************************************/
  16:.\Generated_Source\PSoC5/PSOC4.c **** 
  17:.\Generated_Source\PSoC5/PSOC4.c **** #include "PSOC4.h"
  18:.\Generated_Source\PSoC5/PSOC4.c **** #include "CyLib.h"
  19:.\Generated_Source\PSoC5/PSOC4.c **** #if(PSOC4_INTERNAL_CLOCK_USED)
  20:.\Generated_Source\PSoC5/PSOC4.c ****     #include "PSOC4_IntClock.h"
  21:.\Generated_Source\PSoC5/PSOC4.c **** #endif /* End PSOC4_INTERNAL_CLOCK_USED */
  22:.\Generated_Source\PSoC5/PSOC4.c **** 
  23:.\Generated_Source\PSoC5/PSOC4.c **** 
  24:.\Generated_Source\PSoC5/PSOC4.c **** /***************************************
  25:.\Generated_Source\PSoC5/PSOC4.c **** * Global data allocation
  26:.\Generated_Source\PSoC5/PSOC4.c **** ***************************************/
  27:.\Generated_Source\PSoC5/PSOC4.c **** 
  28:.\Generated_Source\PSoC5/PSOC4.c **** uint8 PSOC4_initVar = 0u;
  29:.\Generated_Source\PSoC5/PSOC4.c **** #if( PSOC4_TX_ENABLED && (PSOC4_TXBUFFERSIZE > PSOC4_FIFO_LENGTH))
  30:.\Generated_Source\PSoC5/PSOC4.c ****     volatile uint8 PSOC4_txBuffer[PSOC4_TXBUFFERSIZE];
  31:.\Generated_Source\PSoC5/PSOC4.c ****     volatile uint8 PSOC4_txBufferRead = 0u;
  32:.\Generated_Source\PSoC5/PSOC4.c ****     uint8 PSOC4_txBufferWrite = 0u;
  33:.\Generated_Source\PSoC5/PSOC4.c **** #endif /* End PSOC4_TX_ENABLED */
  34:.\Generated_Source\PSoC5/PSOC4.c **** #if( ( PSOC4_RX_ENABLED || PSOC4_HD_ENABLED ) && \
  35:.\Generated_Source\PSoC5/PSOC4.c ****      (PSOC4_RXBUFFERSIZE > PSOC4_FIFO_LENGTH) )
  36:.\Generated_Source\PSoC5/PSOC4.c ****     volatile uint8 PSOC4_rxBuffer[PSOC4_RXBUFFERSIZE];
  37:.\Generated_Source\PSoC5/PSOC4.c ****     volatile uint8 PSOC4_rxBufferRead = 0u;
  38:.\Generated_Source\PSoC5/PSOC4.c ****     volatile uint8 PSOC4_rxBufferWrite = 0u;
  39:.\Generated_Source\PSoC5/PSOC4.c ****     volatile uint8 PSOC4_rxBufferLoopDetect = 0u;
  40:.\Generated_Source\PSoC5/PSOC4.c ****     volatile uint8 PSOC4_rxBufferOverflow = 0u;
  41:.\Generated_Source\PSoC5/PSOC4.c ****     #if (PSOC4_RXHW_ADDRESS_ENABLED)
  42:.\Generated_Source\PSoC5/PSOC4.c ****         volatile uint8 PSOC4_rxAddressMode = PSOC4_RXADDRESSMODE;
  43:.\Generated_Source\PSoC5/PSOC4.c ****         volatile uint8 PSOC4_rxAddressDetected = 0u;
  44:.\Generated_Source\PSoC5/PSOC4.c ****     #endif /* End EnableHWAddress */
  45:.\Generated_Source\PSoC5/PSOC4.c **** #endif /* End PSOC4_RX_ENABLED */
  46:.\Generated_Source\PSoC5/PSOC4.c **** 
  47:.\Generated_Source\PSoC5/PSOC4.c **** 
  48:.\Generated_Source\PSoC5/PSOC4.c **** /*******************************************************************************
  49:.\Generated_Source\PSoC5/PSOC4.c **** * Function Name: PSOC4_Start
  50:.\Generated_Source\PSoC5/PSOC4.c **** ********************************************************************************
  51:.\Generated_Source\PSoC5/PSOC4.c **** *
  52:.\Generated_Source\PSoC5/PSOC4.c **** * Summary:
  53:.\Generated_Source\PSoC5/PSOC4.c **** *  Initialize and Enable the UART component.
  54:.\Generated_Source\PSoC5/PSOC4.c **** *  Enable the clock input to enable operation.
  55:.\Generated_Source\PSoC5/PSOC4.c **** *
  56:.\Generated_Source\PSoC5/PSOC4.c **** * Parameters:
  57:.\Generated_Source\PSoC5/PSOC4.c **** *  None.
  58:.\Generated_Source\PSoC5/PSOC4.c **** *
  59:.\Generated_Source\PSoC5/PSOC4.c **** * Return:
  60:.\Generated_Source\PSoC5/PSOC4.c **** *  None.
  61:.\Generated_Source\PSoC5/PSOC4.c **** *
ARM GAS  C:\Users\javier\AppData\Local\Temp\ccuiDKAi.s 			page 3


  62:.\Generated_Source\PSoC5/PSOC4.c **** * Global variables:
  63:.\Generated_Source\PSoC5/PSOC4.c **** *  The PSOC4_intiVar variable is used to indicate initial
  64:.\Generated_Source\PSoC5/PSOC4.c **** *  configuration of this component. The variable is initialized to zero (0u)
  65:.\Generated_Source\PSoC5/PSOC4.c **** *  and set to one (1u) the first time UART_Start() is called. This allows for
  66:.\Generated_Source\PSoC5/PSOC4.c **** *  component initialization without re-initialization in all subsequent calls
  67:.\Generated_Source\PSoC5/PSOC4.c **** *  to the PSOC4_Start() routine.
  68:.\Generated_Source\PSoC5/PSOC4.c **** *
  69:.\Generated_Source\PSoC5/PSOC4.c **** * Reentrant:
  70:.\Generated_Source\PSoC5/PSOC4.c **** *  No.
  71:.\Generated_Source\PSoC5/PSOC4.c **** *
  72:.\Generated_Source\PSoC5/PSOC4.c **** *******************************************************************************/
  73:.\Generated_Source\PSoC5/PSOC4.c **** void PSOC4_Start(void) 
  74:.\Generated_Source\PSoC5/PSOC4.c **** {
  54              		.loc 1 74 0
  55              		.cfi_startproc
  56              		@ args = 0, pretend = 0, frame = 0
  57              		@ frame_needed = 1, uses_anonymous_args = 0
  58 0000 80B5     		push	{r7, lr}
  59              	.LCFI0:
  60              		.cfi_def_cfa_offset 8
  61              		.cfi_offset 7, -8
  62              		.cfi_offset 14, -4
  63 0002 00AF     		add	r7, sp, #0
  64              	.LCFI1:
  65              		.cfi_def_cfa_register 7
  75:.\Generated_Source\PSoC5/PSOC4.c ****     /* If not Initialized then initialize all required hardware and software */
  76:.\Generated_Source\PSoC5/PSOC4.c ****     if(PSOC4_initVar == 0u)
  66              		.loc 1 76 0
  67 0004 40F20003 		movw	r3, #:lower16:PSOC4_initVar
  68 0008 C0F20003 		movt	r3, #:upper16:PSOC4_initVar
  69 000c 1B78     		ldrb	r3, [r3, #0]	@ zero_extendqisi2
  70 000e 002B     		cmp	r3, #0
  71 0010 08D1     		bne	.L2
  77:.\Generated_Source\PSoC5/PSOC4.c ****     {
  78:.\Generated_Source\PSoC5/PSOC4.c ****         PSOC4_Init();
  72              		.loc 1 78 0
  73 0012 FFF7FEFF 		bl	PSOC4_Init
  79:.\Generated_Source\PSoC5/PSOC4.c ****         PSOC4_initVar = 1u;
  74              		.loc 1 79 0
  75 0016 40F20003 		movw	r3, #:lower16:PSOC4_initVar
  76 001a C0F20003 		movt	r3, #:upper16:PSOC4_initVar
  77 001e 4FF00102 		mov	r2, #1
  78 0022 1A70     		strb	r2, [r3, #0]
  79              	.L2:
  80:.\Generated_Source\PSoC5/PSOC4.c ****     }
  81:.\Generated_Source\PSoC5/PSOC4.c ****     PSOC4_Enable();
  80              		.loc 1 81 0
  81 0024 FFF7FEFF 		bl	PSOC4_Enable
  82:.\Generated_Source\PSoC5/PSOC4.c **** }
  82              		.loc 1 82 0
  83 0028 80BD     		pop	{r7, pc}
  84              		.cfi_endproc
  85              	.LFE0:
  86              		.size	PSOC4_Start, .-PSOC4_Start
  87 002a 00BF     		.section	.text.PSOC4_Init,"ax",%progbits
  88              		.align	2
  89              		.global	PSOC4_Init
ARM GAS  C:\Users\javier\AppData\Local\Temp\ccuiDKAi.s 			page 4


  90              		.thumb
  91              		.thumb_func
  92              		.type	PSOC4_Init, %function
  93              	PSOC4_Init:
  94              	.LFB1:
  83:.\Generated_Source\PSoC5/PSOC4.c **** 
  84:.\Generated_Source\PSoC5/PSOC4.c **** 
  85:.\Generated_Source\PSoC5/PSOC4.c **** /*******************************************************************************
  86:.\Generated_Source\PSoC5/PSOC4.c **** * Function Name: PSOC4_Init
  87:.\Generated_Source\PSoC5/PSOC4.c **** ********************************************************************************
  88:.\Generated_Source\PSoC5/PSOC4.c **** *
  89:.\Generated_Source\PSoC5/PSOC4.c **** * Summary:
  90:.\Generated_Source\PSoC5/PSOC4.c **** *  Initialize component's parameters to the parameters set by user in the
  91:.\Generated_Source\PSoC5/PSOC4.c **** *  customizer of the component placed onto schematic. Usually called in
  92:.\Generated_Source\PSoC5/PSOC4.c **** *  PSOC4_Start().
  93:.\Generated_Source\PSoC5/PSOC4.c **** *
  94:.\Generated_Source\PSoC5/PSOC4.c **** * Parameters:
  95:.\Generated_Source\PSoC5/PSOC4.c **** *  None.
  96:.\Generated_Source\PSoC5/PSOC4.c **** *
  97:.\Generated_Source\PSoC5/PSOC4.c **** * Return:
  98:.\Generated_Source\PSoC5/PSOC4.c **** *  None.
  99:.\Generated_Source\PSoC5/PSOC4.c **** *
 100:.\Generated_Source\PSoC5/PSOC4.c **** *******************************************************************************/
 101:.\Generated_Source\PSoC5/PSOC4.c **** void PSOC4_Init(void) 
 102:.\Generated_Source\PSoC5/PSOC4.c **** {
  95              		.loc 1 102 0
  96              		.cfi_startproc
  97              		@ args = 0, pretend = 0, frame = 0
  98              		@ frame_needed = 1, uses_anonymous_args = 0
  99 0000 80B5     		push	{r7, lr}
 100              	.LCFI2:
 101              		.cfi_def_cfa_offset 8
 102              		.cfi_offset 7, -8
 103              		.cfi_offset 14, -4
 104 0002 00AF     		add	r7, sp, #0
 105              	.LCFI3:
 106              		.cfi_def_cfa_register 7
 103:.\Generated_Source\PSoC5/PSOC4.c ****     #if(PSOC4_RX_ENABLED || PSOC4_HD_ENABLED)
 104:.\Generated_Source\PSoC5/PSOC4.c **** 
 105:.\Generated_Source\PSoC5/PSOC4.c ****         #if(PSOC4_RX_INTERRUPT_ENABLED && (PSOC4_RXBUFFERSIZE > PSOC4_FIFO_LENGTH))
 106:.\Generated_Source\PSoC5/PSOC4.c ****             /* Set the RX Interrupt. */
 107:.\Generated_Source\PSoC5/PSOC4.c ****             (void)CyIntSetVector(PSOC4_RX_VECT_NUM, &PSOC4_RXISR);
 107              		.loc 1 107 0
 108 0004 4FF00100 		mov	r0, #1
 109 0008 40F20001 		movw	r1, #:lower16:PSOC4_RXISR
 110 000c C0F20001 		movt	r1, #:upper16:PSOC4_RXISR
 111 0010 FFF7FEFF 		bl	CyIntSetVector
 108:.\Generated_Source\PSoC5/PSOC4.c ****             CyIntSetPriority(PSOC4_RX_VECT_NUM, PSOC4_RX_PRIOR_NUM);
 112              		.loc 1 108 0
 113 0014 4FF00100 		mov	r0, #1
 114 0018 4FF00701 		mov	r1, #7
 115 001c FFF7FEFF 		bl	CyIntSetPriority
 109:.\Generated_Source\PSoC5/PSOC4.c ****         #endif /* End PSOC4_RX_INTERRUPT_ENABLED */
 110:.\Generated_Source\PSoC5/PSOC4.c **** 
 111:.\Generated_Source\PSoC5/PSOC4.c ****         #if (PSOC4_RXHW_ADDRESS_ENABLED)
 112:.\Generated_Source\PSoC5/PSOC4.c ****             PSOC4_SetRxAddressMode(PSOC4_RXAddressMode);
 113:.\Generated_Source\PSoC5/PSOC4.c ****             PSOC4_SetRxAddress1(PSOC4_RXHWADDRESS1);
ARM GAS  C:\Users\javier\AppData\Local\Temp\ccuiDKAi.s 			page 5


 114:.\Generated_Source\PSoC5/PSOC4.c ****             PSOC4_SetRxAddress2(PSOC4_RXHWADDRESS2);
 115:.\Generated_Source\PSoC5/PSOC4.c ****         #endif /* End PSOC4_RXHW_ADDRESS_ENABLED */
 116:.\Generated_Source\PSoC5/PSOC4.c **** 
 117:.\Generated_Source\PSoC5/PSOC4.c ****         /* Init Count7 period */
 118:.\Generated_Source\PSoC5/PSOC4.c ****         PSOC4_RXBITCTR_PERIOD_REG = PSOC4_RXBITCTR_INIT;
 116              		.loc 1 118 0
 117 0020 46F28453 		movw	r3, #25988
 118 0024 C4F20003 		movt	r3, 16384
 119 0028 4FF07202 		mov	r2, #114
 120 002c 1A70     		strb	r2, [r3, #0]
 119:.\Generated_Source\PSoC5/PSOC4.c ****         /* Configure the Initial RX interrupt mask */
 120:.\Generated_Source\PSoC5/PSOC4.c ****         PSOC4_RXSTATUS_MASK_REG  = PSOC4_INIT_RX_INTERRUPTS_MASK;
 121              		.loc 1 120 0
 122 002e 46F28753 		movw	r3, #25991
 123 0032 C4F20003 		movt	r3, 16384
 124 0036 4FF02002 		mov	r2, #32
 125 003a 1A70     		strb	r2, [r3, #0]
 121:.\Generated_Source\PSoC5/PSOC4.c ****     #endif /* End PSOC4_RX_ENABLED || PSOC4_HD_ENABLED*/
 122:.\Generated_Source\PSoC5/PSOC4.c **** 
 123:.\Generated_Source\PSoC5/PSOC4.c ****     #if(PSOC4_TX_ENABLED)
 124:.\Generated_Source\PSoC5/PSOC4.c ****         #if(PSOC4_TX_INTERRUPT_ENABLED && (PSOC4_TXBUFFERSIZE > PSOC4_FIFO_LENGTH))
 125:.\Generated_Source\PSoC5/PSOC4.c ****             /* Set the TX Interrupt. */
 126:.\Generated_Source\PSoC5/PSOC4.c ****             (void)CyIntSetVector(PSOC4_TX_VECT_NUM, &PSOC4_TXISR);
 127:.\Generated_Source\PSoC5/PSOC4.c ****             CyIntSetPriority(PSOC4_TX_VECT_NUM, PSOC4_TX_PRIOR_NUM);
 128:.\Generated_Source\PSoC5/PSOC4.c ****         #endif /* End PSOC4_TX_INTERRUPT_ENABLED */
 129:.\Generated_Source\PSoC5/PSOC4.c **** 
 130:.\Generated_Source\PSoC5/PSOC4.c ****         /* Write Counter Value for TX Bit Clk Generator*/
 131:.\Generated_Source\PSoC5/PSOC4.c ****         #if(PSOC4_TXCLKGEN_DP)
 132:.\Generated_Source\PSoC5/PSOC4.c ****             PSOC4_TXBITCLKGEN_CTR_REG = PSOC4_BIT_CENTER;
 126              		.loc 1 132 0
 127 003c 46F22543 		movw	r3, #25637
 128 0040 C4F20003 		movt	r3, 16384
 129 0044 4FF00702 		mov	r2, #7
 130 0048 1A70     		strb	r2, [r3, #0]
 133:.\Generated_Source\PSoC5/PSOC4.c ****             PSOC4_TXBITCLKTX_COMPLETE_REG = (PSOC4_NUMBER_OF_DATA_BITS +
 131              		.loc 1 133 0
 132 004a 46F23543 		movw	r3, #25653
 133 004e C4F20003 		movt	r3, 16384
 134 0052 4FF04802 		mov	r2, #72
 135 0056 1A70     		strb	r2, [r3, #0]
 134:.\Generated_Source\PSoC5/PSOC4.c ****                         PSOC4_NUMBER_OF_START_BIT) * PSOC4_OVER_SAMPLE_COUNT;
 135:.\Generated_Source\PSoC5/PSOC4.c ****         #else
 136:.\Generated_Source\PSoC5/PSOC4.c ****             PSOC4_TXBITCTR_PERIOD_REG = ((PSOC4_NUMBER_OF_DATA_BITS +
 137:.\Generated_Source\PSoC5/PSOC4.c ****                         PSOC4_NUMBER_OF_START_BIT) * PSOC4_OVER_SAMPLE_8) - 1u;
 138:.\Generated_Source\PSoC5/PSOC4.c ****         #endif /* End PSOC4_TXCLKGEN_DP */
 139:.\Generated_Source\PSoC5/PSOC4.c **** 
 140:.\Generated_Source\PSoC5/PSOC4.c ****         /* Configure the Initial TX interrupt mask */
 141:.\Generated_Source\PSoC5/PSOC4.c ****         #if(PSOC4_TX_INTERRUPT_ENABLED && (PSOC4_TXBUFFERSIZE > PSOC4_FIFO_LENGTH))
 142:.\Generated_Source\PSoC5/PSOC4.c ****             PSOC4_TXSTATUS_MASK_REG = PSOC4_TX_STS_FIFO_EMPTY;
 143:.\Generated_Source\PSoC5/PSOC4.c ****         #else
 144:.\Generated_Source\PSoC5/PSOC4.c ****             PSOC4_TXSTATUS_MASK_REG = PSOC4_INIT_TX_INTERRUPTS_MASK;
 136              		.loc 1 144 0
 137 0058 46F28443 		movw	r3, #25732
 138 005c C4F20003 		movt	r3, 16384
 139 0060 4FF00002 		mov	r2, #0
 140 0064 1A70     		strb	r2, [r3, #0]
 145:.\Generated_Source\PSoC5/PSOC4.c ****         #endif /*End PSOC4_TX_INTERRUPT_ENABLED*/
ARM GAS  C:\Users\javier\AppData\Local\Temp\ccuiDKAi.s 			page 6


 146:.\Generated_Source\PSoC5/PSOC4.c **** 
 147:.\Generated_Source\PSoC5/PSOC4.c ****     #endif /* End PSOC4_TX_ENABLED */
 148:.\Generated_Source\PSoC5/PSOC4.c **** 
 149:.\Generated_Source\PSoC5/PSOC4.c ****     #if(PSOC4_PARITY_TYPE_SW)  /* Write Parity to Control Register */
 150:.\Generated_Source\PSoC5/PSOC4.c ****         PSOC4_WriteControlRegister( \
 151:.\Generated_Source\PSoC5/PSOC4.c ****             (PSOC4_ReadControlRegister() & (uint8)~PSOC4_CTRL_PARITY_TYPE_MASK) | \
 152:.\Generated_Source\PSoC5/PSOC4.c ****             (uint8)(PSOC4_PARITY_TYPE << PSOC4_CTRL_PARITY_TYPE0_SHIFT) );
 153:.\Generated_Source\PSoC5/PSOC4.c ****     #endif /* End PSOC4_PARITY_TYPE_SW */
 154:.\Generated_Source\PSoC5/PSOC4.c **** }
 141              		.loc 1 154 0
 142 0066 80BD     		pop	{r7, pc}
 143              		.cfi_endproc
 144              	.LFE1:
 145              		.size	PSOC4_Init, .-PSOC4_Init
 146              		.section	.text.PSOC4_Enable,"ax",%progbits
 147              		.align	2
 148              		.global	PSOC4_Enable
 149              		.thumb
 150              		.thumb_func
 151              		.type	PSOC4_Enable, %function
 152              	PSOC4_Enable:
 153              	.LFB2:
 155:.\Generated_Source\PSoC5/PSOC4.c **** 
 156:.\Generated_Source\PSoC5/PSOC4.c **** 
 157:.\Generated_Source\PSoC5/PSOC4.c **** /*******************************************************************************
 158:.\Generated_Source\PSoC5/PSOC4.c **** * Function Name: PSOC4_Enable
 159:.\Generated_Source\PSoC5/PSOC4.c **** ********************************************************************************
 160:.\Generated_Source\PSoC5/PSOC4.c **** *
 161:.\Generated_Source\PSoC5/PSOC4.c **** * Summary:
 162:.\Generated_Source\PSoC5/PSOC4.c **** *  Enables the UART block operation
 163:.\Generated_Source\PSoC5/PSOC4.c **** *
 164:.\Generated_Source\PSoC5/PSOC4.c **** * Parameters:
 165:.\Generated_Source\PSoC5/PSOC4.c **** *  None.
 166:.\Generated_Source\PSoC5/PSOC4.c **** *
 167:.\Generated_Source\PSoC5/PSOC4.c **** * Return:
 168:.\Generated_Source\PSoC5/PSOC4.c **** *  None.
 169:.\Generated_Source\PSoC5/PSOC4.c **** *
 170:.\Generated_Source\PSoC5/PSOC4.c **** * Global Variables:
 171:.\Generated_Source\PSoC5/PSOC4.c **** *  PSOC4_rxAddressDetected - set to initial state (0).
 172:.\Generated_Source\PSoC5/PSOC4.c **** *
 173:.\Generated_Source\PSoC5/PSOC4.c **** *******************************************************************************/
 174:.\Generated_Source\PSoC5/PSOC4.c **** void PSOC4_Enable(void) 
 175:.\Generated_Source\PSoC5/PSOC4.c **** {
 154              		.loc 1 175 0
 155              		.cfi_startproc
 156              		@ args = 0, pretend = 0, frame = 8
 157              		@ frame_needed = 1, uses_anonymous_args = 0
 158 0000 80B5     		push	{r7, lr}
 159              	.LCFI4:
 160              		.cfi_def_cfa_offset 8
 161              		.cfi_offset 7, -8
 162              		.cfi_offset 14, -4
 163 0002 82B0     		sub	sp, sp, #8
 164              	.LCFI5:
 165              		.cfi_def_cfa_offset 16
 166 0004 00AF     		add	r7, sp, #0
 167              	.LCFI6:
ARM GAS  C:\Users\javier\AppData\Local\Temp\ccuiDKAi.s 			page 7


 168              		.cfi_def_cfa_register 7
 176:.\Generated_Source\PSoC5/PSOC4.c ****     uint8 enableInterrupts;
 177:.\Generated_Source\PSoC5/PSOC4.c ****     enableInterrupts = CyEnterCriticalSection();
 169              		.loc 1 177 0
 170 0006 FFF7FEFF 		bl	CyEnterCriticalSection
 171 000a 0346     		mov	r3, r0
 172 000c FB71     		strb	r3, [r7, #7]
 178:.\Generated_Source\PSoC5/PSOC4.c **** 
 179:.\Generated_Source\PSoC5/PSOC4.c ****     #if(PSOC4_RX_ENABLED || PSOC4_HD_ENABLED)
 180:.\Generated_Source\PSoC5/PSOC4.c ****         /*RX Counter (Count7) Enable */
 181:.\Generated_Source\PSoC5/PSOC4.c ****         PSOC4_RXBITCTR_CONTROL_REG |= PSOC4_CNTR_ENABLE;
 173              		.loc 1 181 0
 174 000e 46F29453 		movw	r3, #26004
 175 0012 C4F20003 		movt	r3, 16384
 176 0016 46F29452 		movw	r2, #26004
 177 001a C4F20002 		movt	r2, 16384
 178 001e 1278     		ldrb	r2, [r2, #0]
 179 0020 D2B2     		uxtb	r2, r2
 180 0022 42F02002 		orr	r2, r2, #32
 181 0026 D2B2     		uxtb	r2, r2
 182 0028 1A70     		strb	r2, [r3, #0]
 182:.\Generated_Source\PSoC5/PSOC4.c ****         /* Enable the RX Interrupt. */
 183:.\Generated_Source\PSoC5/PSOC4.c ****         PSOC4_RXSTATUS_ACTL_REG  |= PSOC4_INT_ENABLE;
 183              		.loc 1 183 0
 184 002a 46F29753 		movw	r3, #26007
 185 002e C4F20003 		movt	r3, 16384
 186 0032 46F29752 		movw	r2, #26007
 187 0036 C4F20002 		movt	r2, 16384
 188 003a 1278     		ldrb	r2, [r2, #0]
 189 003c D2B2     		uxtb	r2, r2
 190 003e 42F01002 		orr	r2, r2, #16
 191 0042 D2B2     		uxtb	r2, r2
 192 0044 1A70     		strb	r2, [r3, #0]
 184:.\Generated_Source\PSoC5/PSOC4.c ****         #if(PSOC4_RX_INTERRUPT_ENABLED && (PSOC4_RXBUFFERSIZE > PSOC4_FIFO_LENGTH))
 185:.\Generated_Source\PSoC5/PSOC4.c ****             CyIntEnable(PSOC4_RX_VECT_NUM);
 193              		.loc 1 185 0
 194 0046 4FF46143 		mov	r3, #57600
 195 004a CEF20003 		movt	r3, 57344
 196 004e 4FF00202 		mov	r2, #2
 197 0052 1A60     		str	r2, [r3, #0]
 186:.\Generated_Source\PSoC5/PSOC4.c ****             #if (PSOC4_RXHW_ADDRESS_ENABLED)
 187:.\Generated_Source\PSoC5/PSOC4.c ****                 PSOC4_rxAddressDetected = 0u;
 188:.\Generated_Source\PSoC5/PSOC4.c ****             #endif /* End PSOC4_RXHW_ADDRESS_ENABLED */
 189:.\Generated_Source\PSoC5/PSOC4.c ****         #endif /* End PSOC4_RX_INTERRUPT_ENABLED */
 190:.\Generated_Source\PSoC5/PSOC4.c ****     #endif /* End PSOC4_RX_ENABLED || PSOC4_HD_ENABLED*/
 191:.\Generated_Source\PSoC5/PSOC4.c **** 
 192:.\Generated_Source\PSoC5/PSOC4.c ****     #if(PSOC4_TX_ENABLED)
 193:.\Generated_Source\PSoC5/PSOC4.c ****         /*TX Counter (DP/Count7) Enable */
 194:.\Generated_Source\PSoC5/PSOC4.c ****         #if(!PSOC4_TXCLKGEN_DP)
 195:.\Generated_Source\PSoC5/PSOC4.c ****             PSOC4_TXBITCTR_CONTROL_REG |= PSOC4_CNTR_ENABLE;
 196:.\Generated_Source\PSoC5/PSOC4.c ****         #endif /* End PSOC4_TXCLKGEN_DP */
 197:.\Generated_Source\PSoC5/PSOC4.c ****         /* Enable the TX Interrupt. */
 198:.\Generated_Source\PSoC5/PSOC4.c ****         PSOC4_TXSTATUS_ACTL_REG |= PSOC4_INT_ENABLE;
 198              		.loc 1 198 0
 199 0054 46F29443 		movw	r3, #25748
 200 0058 C4F20003 		movt	r3, 16384
 201 005c 46F29442 		movw	r2, #25748
ARM GAS  C:\Users\javier\AppData\Local\Temp\ccuiDKAi.s 			page 8


 202 0060 C4F20002 		movt	r2, 16384
 203 0064 1278     		ldrb	r2, [r2, #0]
 204 0066 D2B2     		uxtb	r2, r2
 205 0068 42F01002 		orr	r2, r2, #16
 206 006c D2B2     		uxtb	r2, r2
 207 006e 1A70     		strb	r2, [r3, #0]
 199:.\Generated_Source\PSoC5/PSOC4.c ****         #if(PSOC4_TX_INTERRUPT_ENABLED && (PSOC4_TXBUFFERSIZE > PSOC4_FIFO_LENGTH))
 200:.\Generated_Source\PSoC5/PSOC4.c ****             CyIntEnable(PSOC4_TX_VECT_NUM);
 201:.\Generated_Source\PSoC5/PSOC4.c ****         #endif /* End PSOC4_TX_INTERRUPT_ENABLED*/
 202:.\Generated_Source\PSoC5/PSOC4.c ****      #endif /* End PSOC4_TX_ENABLED */
 203:.\Generated_Source\PSoC5/PSOC4.c **** 
 204:.\Generated_Source\PSoC5/PSOC4.c ****     #if(PSOC4_INTERNAL_CLOCK_USED)
 205:.\Generated_Source\PSoC5/PSOC4.c ****         /* Enable the clock. */
 206:.\Generated_Source\PSoC5/PSOC4.c ****         PSOC4_IntClock_Start();
 208              		.loc 1 206 0
 209 0070 FFF7FEFF 		bl	PSOC4_IntClock_Start
 207:.\Generated_Source\PSoC5/PSOC4.c ****     #endif /* End PSOC4_INTERNAL_CLOCK_USED */
 208:.\Generated_Source\PSoC5/PSOC4.c **** 
 209:.\Generated_Source\PSoC5/PSOC4.c ****     CyExitCriticalSection(enableInterrupts);
 210              		.loc 1 209 0
 211 0074 FB79     		ldrb	r3, [r7, #7]	@ zero_extendqisi2
 212 0076 1846     		mov	r0, r3
 213 0078 FFF7FEFF 		bl	CyExitCriticalSection
 210:.\Generated_Source\PSoC5/PSOC4.c **** }
 214              		.loc 1 210 0
 215 007c 07F10807 		add	r7, r7, #8
 216 0080 BD46     		mov	sp, r7
 217 0082 80BD     		pop	{r7, pc}
 218              		.cfi_endproc
 219              	.LFE2:
 220              		.size	PSOC4_Enable, .-PSOC4_Enable
 221              		.section	.text.PSOC4_Stop,"ax",%progbits
 222              		.align	2
 223              		.global	PSOC4_Stop
 224              		.thumb
 225              		.thumb_func
 226              		.type	PSOC4_Stop, %function
 227              	PSOC4_Stop:
 228              	.LFB3:
 211:.\Generated_Source\PSoC5/PSOC4.c **** 
 212:.\Generated_Source\PSoC5/PSOC4.c **** 
 213:.\Generated_Source\PSoC5/PSOC4.c **** /*******************************************************************************
 214:.\Generated_Source\PSoC5/PSOC4.c **** * Function Name: PSOC4_Stop
 215:.\Generated_Source\PSoC5/PSOC4.c **** ********************************************************************************
 216:.\Generated_Source\PSoC5/PSOC4.c **** *
 217:.\Generated_Source\PSoC5/PSOC4.c **** * Summary:
 218:.\Generated_Source\PSoC5/PSOC4.c **** *  Disable the UART component
 219:.\Generated_Source\PSoC5/PSOC4.c **** *
 220:.\Generated_Source\PSoC5/PSOC4.c **** * Parameters:
 221:.\Generated_Source\PSoC5/PSOC4.c **** *  None.
 222:.\Generated_Source\PSoC5/PSOC4.c **** *
 223:.\Generated_Source\PSoC5/PSOC4.c **** * Return:
 224:.\Generated_Source\PSoC5/PSOC4.c **** *  None.
 225:.\Generated_Source\PSoC5/PSOC4.c **** *
 226:.\Generated_Source\PSoC5/PSOC4.c **** *******************************************************************************/
 227:.\Generated_Source\PSoC5/PSOC4.c **** void PSOC4_Stop(void) 
 228:.\Generated_Source\PSoC5/PSOC4.c **** {
ARM GAS  C:\Users\javier\AppData\Local\Temp\ccuiDKAi.s 			page 9


 229              		.loc 1 228 0
 230              		.cfi_startproc
 231              		@ args = 0, pretend = 0, frame = 8
 232              		@ frame_needed = 1, uses_anonymous_args = 0
 233 0000 80B5     		push	{r7, lr}
 234              	.LCFI7:
 235              		.cfi_def_cfa_offset 8
 236              		.cfi_offset 7, -8
 237              		.cfi_offset 14, -4
 238 0002 82B0     		sub	sp, sp, #8
 239              	.LCFI8:
 240              		.cfi_def_cfa_offset 16
 241 0004 00AF     		add	r7, sp, #0
 242              	.LCFI9:
 243              		.cfi_def_cfa_register 7
 229:.\Generated_Source\PSoC5/PSOC4.c ****     uint8 enableInterrupts;
 230:.\Generated_Source\PSoC5/PSOC4.c ****     enableInterrupts = CyEnterCriticalSection();
 244              		.loc 1 230 0
 245 0006 FFF7FEFF 		bl	CyEnterCriticalSection
 246 000a 0346     		mov	r3, r0
 247 000c FB71     		strb	r3, [r7, #7]
 231:.\Generated_Source\PSoC5/PSOC4.c **** 
 232:.\Generated_Source\PSoC5/PSOC4.c ****     /* Write Bit Counter Disable */
 233:.\Generated_Source\PSoC5/PSOC4.c ****     #if(PSOC4_RX_ENABLED || PSOC4_HD_ENABLED)
 234:.\Generated_Source\PSoC5/PSOC4.c ****         PSOC4_RXBITCTR_CONTROL_REG &= (uint8)~PSOC4_CNTR_ENABLE;
 248              		.loc 1 234 0
 249 000e 46F29453 		movw	r3, #26004
 250 0012 C4F20003 		movt	r3, 16384
 251 0016 46F29452 		movw	r2, #26004
 252 001a C4F20002 		movt	r2, 16384
 253 001e 1278     		ldrb	r2, [r2, #0]
 254 0020 D2B2     		uxtb	r2, r2
 255 0022 22F02002 		bic	r2, r2, #32
 256 0026 D2B2     		uxtb	r2, r2
 257 0028 1A70     		strb	r2, [r3, #0]
 235:.\Generated_Source\PSoC5/PSOC4.c ****     #endif /* End PSOC4_RX_ENABLED */
 236:.\Generated_Source\PSoC5/PSOC4.c **** 
 237:.\Generated_Source\PSoC5/PSOC4.c ****     #if(PSOC4_TX_ENABLED)
 238:.\Generated_Source\PSoC5/PSOC4.c ****         #if(!PSOC4_TXCLKGEN_DP)
 239:.\Generated_Source\PSoC5/PSOC4.c ****             PSOC4_TXBITCTR_CONTROL_REG &= (uint8)~PSOC4_CNTR_ENABLE;
 240:.\Generated_Source\PSoC5/PSOC4.c ****         #endif /* End PSOC4_TXCLKGEN_DP */
 241:.\Generated_Source\PSoC5/PSOC4.c ****     #endif /* PSOC4_TX_ENABLED */
 242:.\Generated_Source\PSoC5/PSOC4.c **** 
 243:.\Generated_Source\PSoC5/PSOC4.c ****     #if(PSOC4_INTERNAL_CLOCK_USED)
 244:.\Generated_Source\PSoC5/PSOC4.c ****         /* Disable the clock. */
 245:.\Generated_Source\PSoC5/PSOC4.c ****         PSOC4_IntClock_Stop();
 258              		.loc 1 245 0
 259 002a FFF7FEFF 		bl	PSOC4_IntClock_Stop
 246:.\Generated_Source\PSoC5/PSOC4.c ****     #endif /* End PSOC4_INTERNAL_CLOCK_USED */
 247:.\Generated_Source\PSoC5/PSOC4.c **** 
 248:.\Generated_Source\PSoC5/PSOC4.c ****     /* Disable internal interrupt component */
 249:.\Generated_Source\PSoC5/PSOC4.c ****     #if(PSOC4_RX_ENABLED || PSOC4_HD_ENABLED)
 250:.\Generated_Source\PSoC5/PSOC4.c ****         PSOC4_RXSTATUS_ACTL_REG  &= (uint8)~PSOC4_INT_ENABLE;
 260              		.loc 1 250 0
 261 002e 46F29753 		movw	r3, #26007
 262 0032 C4F20003 		movt	r3, 16384
 263 0036 46F29752 		movw	r2, #26007
ARM GAS  C:\Users\javier\AppData\Local\Temp\ccuiDKAi.s 			page 10


 264 003a C4F20002 		movt	r2, 16384
 265 003e 1278     		ldrb	r2, [r2, #0]
 266 0040 D2B2     		uxtb	r2, r2
 267 0042 22F01002 		bic	r2, r2, #16
 268 0046 D2B2     		uxtb	r2, r2
 269 0048 1A70     		strb	r2, [r3, #0]
 251:.\Generated_Source\PSoC5/PSOC4.c ****         #if(PSOC4_RX_INTERRUPT_ENABLED && (PSOC4_RXBUFFERSIZE > PSOC4_FIFO_LENGTH))
 252:.\Generated_Source\PSoC5/PSOC4.c ****             PSOC4_DisableRxInt();
 270              		.loc 1 252 0
 271 004a FFF7FEFF 		bl	PSOC4_DisableRxInt
 253:.\Generated_Source\PSoC5/PSOC4.c ****         #endif /* End PSOC4_RX_INTERRUPT_ENABLED */
 254:.\Generated_Source\PSoC5/PSOC4.c ****     #endif /* End PSOC4_RX_ENABLED */
 255:.\Generated_Source\PSoC5/PSOC4.c **** 
 256:.\Generated_Source\PSoC5/PSOC4.c ****     #if(PSOC4_TX_ENABLED)
 257:.\Generated_Source\PSoC5/PSOC4.c ****         PSOC4_TXSTATUS_ACTL_REG &= (uint8)~PSOC4_INT_ENABLE;
 272              		.loc 1 257 0
 273 004e 46F29443 		movw	r3, #25748
 274 0052 C4F20003 		movt	r3, 16384
 275 0056 46F29442 		movw	r2, #25748
 276 005a C4F20002 		movt	r2, 16384
 277 005e 1278     		ldrb	r2, [r2, #0]
 278 0060 D2B2     		uxtb	r2, r2
 279 0062 22F01002 		bic	r2, r2, #16
 280 0066 D2B2     		uxtb	r2, r2
 281 0068 1A70     		strb	r2, [r3, #0]
 258:.\Generated_Source\PSoC5/PSOC4.c ****         #if(PSOC4_TX_INTERRUPT_ENABLED && (PSOC4_TXBUFFERSIZE > PSOC4_FIFO_LENGTH))
 259:.\Generated_Source\PSoC5/PSOC4.c ****             PSOC4_DisableTxInt();
 260:.\Generated_Source\PSoC5/PSOC4.c ****         #endif /* End PSOC4_TX_INTERRUPT_ENABLED */
 261:.\Generated_Source\PSoC5/PSOC4.c ****     #endif /* End PSOC4_TX_ENABLED */
 262:.\Generated_Source\PSoC5/PSOC4.c **** 
 263:.\Generated_Source\PSoC5/PSOC4.c ****     CyExitCriticalSection(enableInterrupts);
 282              		.loc 1 263 0
 283 006a FB79     		ldrb	r3, [r7, #7]	@ zero_extendqisi2
 284 006c 1846     		mov	r0, r3
 285 006e FFF7FEFF 		bl	CyExitCriticalSection
 264:.\Generated_Source\PSoC5/PSOC4.c **** }
 286              		.loc 1 264 0
 287 0072 07F10807 		add	r7, r7, #8
 288 0076 BD46     		mov	sp, r7
 289 0078 80BD     		pop	{r7, pc}
 290              		.cfi_endproc
 291              	.LFE3:
 292              		.size	PSOC4_Stop, .-PSOC4_Stop
 293              		.section	.text.PSOC4_ReadControlRegister,"ax",%progbits
 294              		.align	2
 295              		.global	PSOC4_ReadControlRegister
 296              		.thumb
 297              		.thumb_func
 298              		.type	PSOC4_ReadControlRegister, %function
 299              	PSOC4_ReadControlRegister:
 300              	.LFB4:
 265:.\Generated_Source\PSoC5/PSOC4.c **** 
 266:.\Generated_Source\PSoC5/PSOC4.c **** 
 267:.\Generated_Source\PSoC5/PSOC4.c **** /*******************************************************************************
 268:.\Generated_Source\PSoC5/PSOC4.c **** * Function Name: PSOC4_ReadControlRegister
 269:.\Generated_Source\PSoC5/PSOC4.c **** ********************************************************************************
 270:.\Generated_Source\PSoC5/PSOC4.c **** *
ARM GAS  C:\Users\javier\AppData\Local\Temp\ccuiDKAi.s 			page 11


 271:.\Generated_Source\PSoC5/PSOC4.c **** * Summary:
 272:.\Generated_Source\PSoC5/PSOC4.c **** *  Read the current state of the control register
 273:.\Generated_Source\PSoC5/PSOC4.c **** *
 274:.\Generated_Source\PSoC5/PSOC4.c **** * Parameters:
 275:.\Generated_Source\PSoC5/PSOC4.c **** *  None.
 276:.\Generated_Source\PSoC5/PSOC4.c **** *
 277:.\Generated_Source\PSoC5/PSOC4.c **** * Return:
 278:.\Generated_Source\PSoC5/PSOC4.c **** *  Current state of the control register.
 279:.\Generated_Source\PSoC5/PSOC4.c **** *
 280:.\Generated_Source\PSoC5/PSOC4.c **** *******************************************************************************/
 281:.\Generated_Source\PSoC5/PSOC4.c **** uint8 PSOC4_ReadControlRegister(void) 
 282:.\Generated_Source\PSoC5/PSOC4.c **** {
 301              		.loc 1 282 0
 302              		.cfi_startproc
 303              		@ args = 0, pretend = 0, frame = 0
 304              		@ frame_needed = 1, uses_anonymous_args = 0
 305              		@ link register save eliminated.
 306 0000 80B4     		push	{r7}
 307              	.LCFI10:
 308              		.cfi_def_cfa_offset 4
 309              		.cfi_offset 7, -4
 310 0002 00AF     		add	r7, sp, #0
 311              	.LCFI11:
 312              		.cfi_def_cfa_register 7
 283:.\Generated_Source\PSoC5/PSOC4.c ****     #if( PSOC4_CONTROL_REG_REMOVED )
 284:.\Generated_Source\PSoC5/PSOC4.c ****         return(0u);
 313              		.loc 1 284 0
 314 0004 4FF00003 		mov	r3, #0
 285:.\Generated_Source\PSoC5/PSOC4.c ****     #else
 286:.\Generated_Source\PSoC5/PSOC4.c ****         return(PSOC4_CONTROL_REG);
 287:.\Generated_Source\PSoC5/PSOC4.c ****     #endif /* End PSOC4_CONTROL_REG_REMOVED */
 288:.\Generated_Source\PSoC5/PSOC4.c **** }
 315              		.loc 1 288 0
 316 0008 1846     		mov	r0, r3
 317 000a BD46     		mov	sp, r7
 318 000c 80BC     		pop	{r7}
 319 000e 7047     		bx	lr
 320              		.cfi_endproc
 321              	.LFE4:
 322              		.size	PSOC4_ReadControlRegister, .-PSOC4_ReadControlRegister
 323              		.section	.text.PSOC4_WriteControlRegister,"ax",%progbits
 324              		.align	2
 325              		.global	PSOC4_WriteControlRegister
 326              		.thumb
 327              		.thumb_func
 328              		.type	PSOC4_WriteControlRegister, %function
 329              	PSOC4_WriteControlRegister:
 330              	.LFB5:
 289:.\Generated_Source\PSoC5/PSOC4.c **** 
 290:.\Generated_Source\PSoC5/PSOC4.c **** 
 291:.\Generated_Source\PSoC5/PSOC4.c **** /*******************************************************************************
 292:.\Generated_Source\PSoC5/PSOC4.c **** * Function Name: PSOC4_WriteControlRegister
 293:.\Generated_Source\PSoC5/PSOC4.c **** ********************************************************************************
 294:.\Generated_Source\PSoC5/PSOC4.c **** *
 295:.\Generated_Source\PSoC5/PSOC4.c **** * Summary:
 296:.\Generated_Source\PSoC5/PSOC4.c **** *  Writes an 8-bit value into the control register
 297:.\Generated_Source\PSoC5/PSOC4.c **** *
ARM GAS  C:\Users\javier\AppData\Local\Temp\ccuiDKAi.s 			page 12


 298:.\Generated_Source\PSoC5/PSOC4.c **** * Parameters:
 299:.\Generated_Source\PSoC5/PSOC4.c **** *  control:  control register value
 300:.\Generated_Source\PSoC5/PSOC4.c **** *
 301:.\Generated_Source\PSoC5/PSOC4.c **** * Return:
 302:.\Generated_Source\PSoC5/PSOC4.c **** *  None.
 303:.\Generated_Source\PSoC5/PSOC4.c **** *
 304:.\Generated_Source\PSoC5/PSOC4.c **** *******************************************************************************/
 305:.\Generated_Source\PSoC5/PSOC4.c **** void  PSOC4_WriteControlRegister(uint8 control) 
 306:.\Generated_Source\PSoC5/PSOC4.c **** {
 331              		.loc 1 306 0
 332              		.cfi_startproc
 333              		@ args = 0, pretend = 0, frame = 8
 334              		@ frame_needed = 1, uses_anonymous_args = 0
 335              		@ link register save eliminated.
 336 0000 80B4     		push	{r7}
 337              	.LCFI12:
 338              		.cfi_def_cfa_offset 4
 339              		.cfi_offset 7, -4
 340 0002 83B0     		sub	sp, sp, #12
 341              	.LCFI13:
 342              		.cfi_def_cfa_offset 16
 343 0004 00AF     		add	r7, sp, #0
 344              	.LCFI14:
 345              		.cfi_def_cfa_register 7
 346 0006 0346     		mov	r3, r0
 347 0008 FB71     		strb	r3, [r7, #7]
 307:.\Generated_Source\PSoC5/PSOC4.c ****     #if( PSOC4_CONTROL_REG_REMOVED )
 308:.\Generated_Source\PSoC5/PSOC4.c ****         if(control != 0u) { }      /* release compiler warning */
 309:.\Generated_Source\PSoC5/PSOC4.c ****     #else
 310:.\Generated_Source\PSoC5/PSOC4.c ****        PSOC4_CONTROL_REG = control;
 311:.\Generated_Source\PSoC5/PSOC4.c ****     #endif /* End PSOC4_CONTROL_REG_REMOVED */
 312:.\Generated_Source\PSoC5/PSOC4.c **** }
 348              		.loc 1 312 0
 349 000a 07F10C07 		add	r7, r7, #12
 350 000e BD46     		mov	sp, r7
 351 0010 80BC     		pop	{r7}
 352 0012 7047     		bx	lr
 353              		.cfi_endproc
 354              	.LFE5:
 355              		.size	PSOC4_WriteControlRegister, .-PSOC4_WriteControlRegister
 356              		.section	.text.PSOC4_EnableRxInt,"ax",%progbits
 357              		.align	2
 358              		.global	PSOC4_EnableRxInt
 359              		.thumb
 360              		.thumb_func
 361              		.type	PSOC4_EnableRxInt, %function
 362              	PSOC4_EnableRxInt:
 363              	.LFB6:
 313:.\Generated_Source\PSoC5/PSOC4.c **** 
 314:.\Generated_Source\PSoC5/PSOC4.c **** 
 315:.\Generated_Source\PSoC5/PSOC4.c **** #if(PSOC4_RX_ENABLED || PSOC4_HD_ENABLED)
 316:.\Generated_Source\PSoC5/PSOC4.c **** 
 317:.\Generated_Source\PSoC5/PSOC4.c ****     #if(PSOC4_RX_INTERRUPT_ENABLED)
 318:.\Generated_Source\PSoC5/PSOC4.c **** 
 319:.\Generated_Source\PSoC5/PSOC4.c ****         /*******************************************************************************
 320:.\Generated_Source\PSoC5/PSOC4.c ****         * Function Name: PSOC4_EnableRxInt
 321:.\Generated_Source\PSoC5/PSOC4.c ****         ********************************************************************************
ARM GAS  C:\Users\javier\AppData\Local\Temp\ccuiDKAi.s 			page 13


 322:.\Generated_Source\PSoC5/PSOC4.c ****         *
 323:.\Generated_Source\PSoC5/PSOC4.c ****         * Summary:
 324:.\Generated_Source\PSoC5/PSOC4.c ****         *  Enable RX interrupt generation
 325:.\Generated_Source\PSoC5/PSOC4.c ****         *
 326:.\Generated_Source\PSoC5/PSOC4.c ****         * Parameters:
 327:.\Generated_Source\PSoC5/PSOC4.c ****         *  None.
 328:.\Generated_Source\PSoC5/PSOC4.c ****         *
 329:.\Generated_Source\PSoC5/PSOC4.c ****         * Return:
 330:.\Generated_Source\PSoC5/PSOC4.c ****         *  None.
 331:.\Generated_Source\PSoC5/PSOC4.c ****         *
 332:.\Generated_Source\PSoC5/PSOC4.c ****         * Theory:
 333:.\Generated_Source\PSoC5/PSOC4.c ****         *  Enable the interrupt output -or- the interrupt component itself
 334:.\Generated_Source\PSoC5/PSOC4.c ****         *
 335:.\Generated_Source\PSoC5/PSOC4.c ****         *******************************************************************************/
 336:.\Generated_Source\PSoC5/PSOC4.c ****         void PSOC4_EnableRxInt(void) 
 337:.\Generated_Source\PSoC5/PSOC4.c ****         {
 364              		.loc 1 337 0
 365              		.cfi_startproc
 366              		@ args = 0, pretend = 0, frame = 0
 367              		@ frame_needed = 1, uses_anonymous_args = 0
 368              		@ link register save eliminated.
 369 0000 80B4     		push	{r7}
 370              	.LCFI15:
 371              		.cfi_def_cfa_offset 4
 372              		.cfi_offset 7, -4
 373 0002 00AF     		add	r7, sp, #0
 374              	.LCFI16:
 375              		.cfi_def_cfa_register 7
 338:.\Generated_Source\PSoC5/PSOC4.c ****             CyIntEnable(PSOC4_RX_VECT_NUM);
 376              		.loc 1 338 0
 377 0004 4FF46143 		mov	r3, #57600
 378 0008 CEF20003 		movt	r3, 57344
 379 000c 4FF00202 		mov	r2, #2
 380 0010 1A60     		str	r2, [r3, #0]
 339:.\Generated_Source\PSoC5/PSOC4.c ****         }
 381              		.loc 1 339 0
 382 0012 BD46     		mov	sp, r7
 383 0014 80BC     		pop	{r7}
 384 0016 7047     		bx	lr
 385              		.cfi_endproc
 386              	.LFE6:
 387              		.size	PSOC4_EnableRxInt, .-PSOC4_EnableRxInt
 388              		.section	.text.PSOC4_DisableRxInt,"ax",%progbits
 389              		.align	2
 390              		.global	PSOC4_DisableRxInt
 391              		.thumb
 392              		.thumb_func
 393              		.type	PSOC4_DisableRxInt, %function
 394              	PSOC4_DisableRxInt:
 395              	.LFB7:
 340:.\Generated_Source\PSoC5/PSOC4.c **** 
 341:.\Generated_Source\PSoC5/PSOC4.c **** 
 342:.\Generated_Source\PSoC5/PSOC4.c ****         /*******************************************************************************
 343:.\Generated_Source\PSoC5/PSOC4.c ****         * Function Name: PSOC4_DisableRxInt
 344:.\Generated_Source\PSoC5/PSOC4.c ****         ********************************************************************************
 345:.\Generated_Source\PSoC5/PSOC4.c ****         *
 346:.\Generated_Source\PSoC5/PSOC4.c ****         * Summary:
ARM GAS  C:\Users\javier\AppData\Local\Temp\ccuiDKAi.s 			page 14


 347:.\Generated_Source\PSoC5/PSOC4.c ****         *  Disable RX interrupt generation
 348:.\Generated_Source\PSoC5/PSOC4.c ****         *
 349:.\Generated_Source\PSoC5/PSOC4.c ****         * Parameters:
 350:.\Generated_Source\PSoC5/PSOC4.c ****         *  None.
 351:.\Generated_Source\PSoC5/PSOC4.c ****         *
 352:.\Generated_Source\PSoC5/PSOC4.c ****         * Return:
 353:.\Generated_Source\PSoC5/PSOC4.c ****         *  None.
 354:.\Generated_Source\PSoC5/PSOC4.c ****         *
 355:.\Generated_Source\PSoC5/PSOC4.c ****         * Theory:
 356:.\Generated_Source\PSoC5/PSOC4.c ****         *  Disable the interrupt output -or- the interrupt component itself
 357:.\Generated_Source\PSoC5/PSOC4.c ****         *
 358:.\Generated_Source\PSoC5/PSOC4.c ****         *******************************************************************************/
 359:.\Generated_Source\PSoC5/PSOC4.c ****         void PSOC4_DisableRxInt(void) 
 360:.\Generated_Source\PSoC5/PSOC4.c ****         {
 396              		.loc 1 360 0
 397              		.cfi_startproc
 398              		@ args = 0, pretend = 0, frame = 0
 399              		@ frame_needed = 1, uses_anonymous_args = 0
 400              		@ link register save eliminated.
 401 0000 80B4     		push	{r7}
 402              	.LCFI17:
 403              		.cfi_def_cfa_offset 4
 404              		.cfi_offset 7, -4
 405 0002 00AF     		add	r7, sp, #0
 406              	.LCFI18:
 407              		.cfi_def_cfa_register 7
 361:.\Generated_Source\PSoC5/PSOC4.c ****             CyIntDisable(PSOC4_RX_VECT_NUM);
 408              		.loc 1 361 0
 409 0004 4EF28013 		movw	r3, #57728
 410 0008 CEF20003 		movt	r3, 57344
 411 000c 4FF00202 		mov	r2, #2
 412 0010 1A60     		str	r2, [r3, #0]
 362:.\Generated_Source\PSoC5/PSOC4.c ****         }
 413              		.loc 1 362 0
 414 0012 BD46     		mov	sp, r7
 415 0014 80BC     		pop	{r7}
 416 0016 7047     		bx	lr
 417              		.cfi_endproc
 418              	.LFE7:
 419              		.size	PSOC4_DisableRxInt, .-PSOC4_DisableRxInt
 420              		.section	.text.PSOC4_SetRxInterruptMode,"ax",%progbits
 421              		.align	2
 422              		.global	PSOC4_SetRxInterruptMode
 423              		.thumb
 424              		.thumb_func
 425              		.type	PSOC4_SetRxInterruptMode, %function
 426              	PSOC4_SetRxInterruptMode:
 427              	.LFB8:
 363:.\Generated_Source\PSoC5/PSOC4.c **** 
 364:.\Generated_Source\PSoC5/PSOC4.c ****     #endif /* PSOC4_RX_INTERRUPT_ENABLED */
 365:.\Generated_Source\PSoC5/PSOC4.c **** 
 366:.\Generated_Source\PSoC5/PSOC4.c **** 
 367:.\Generated_Source\PSoC5/PSOC4.c ****     /*******************************************************************************
 368:.\Generated_Source\PSoC5/PSOC4.c ****     * Function Name: PSOC4_SetRxInterruptMode
 369:.\Generated_Source\PSoC5/PSOC4.c ****     ********************************************************************************
 370:.\Generated_Source\PSoC5/PSOC4.c ****     *
 371:.\Generated_Source\PSoC5/PSOC4.c ****     * Summary:
ARM GAS  C:\Users\javier\AppData\Local\Temp\ccuiDKAi.s 			page 15


 372:.\Generated_Source\PSoC5/PSOC4.c ****     *  Configure which status bits trigger an interrupt event
 373:.\Generated_Source\PSoC5/PSOC4.c ****     *
 374:.\Generated_Source\PSoC5/PSOC4.c ****     * Parameters:
 375:.\Generated_Source\PSoC5/PSOC4.c ****     *  IntSrc:  An or'd combination of the desired status bit masks (defined in
 376:.\Generated_Source\PSoC5/PSOC4.c ****     *           the header file)
 377:.\Generated_Source\PSoC5/PSOC4.c ****     *
 378:.\Generated_Source\PSoC5/PSOC4.c ****     * Return:
 379:.\Generated_Source\PSoC5/PSOC4.c ****     *  None.
 380:.\Generated_Source\PSoC5/PSOC4.c ****     *
 381:.\Generated_Source\PSoC5/PSOC4.c ****     * Theory:
 382:.\Generated_Source\PSoC5/PSOC4.c ****     *  Enables the output of specific status bits to the interrupt controller
 383:.\Generated_Source\PSoC5/PSOC4.c ****     *
 384:.\Generated_Source\PSoC5/PSOC4.c ****     *******************************************************************************/
 385:.\Generated_Source\PSoC5/PSOC4.c ****     void PSOC4_SetRxInterruptMode(uint8 intSrc) 
 386:.\Generated_Source\PSoC5/PSOC4.c ****     {
 428              		.loc 1 386 0
 429              		.cfi_startproc
 430              		@ args = 0, pretend = 0, frame = 8
 431              		@ frame_needed = 1, uses_anonymous_args = 0
 432              		@ link register save eliminated.
 433 0000 80B4     		push	{r7}
 434              	.LCFI19:
 435              		.cfi_def_cfa_offset 4
 436              		.cfi_offset 7, -4
 437 0002 83B0     		sub	sp, sp, #12
 438              	.LCFI20:
 439              		.cfi_def_cfa_offset 16
 440 0004 00AF     		add	r7, sp, #0
 441              	.LCFI21:
 442              		.cfi_def_cfa_register 7
 443 0006 0346     		mov	r3, r0
 444 0008 FB71     		strb	r3, [r7, #7]
 387:.\Generated_Source\PSoC5/PSOC4.c ****         PSOC4_RXSTATUS_MASK_REG  = intSrc;
 445              		.loc 1 387 0
 446 000a 46F28753 		movw	r3, #25991
 447 000e C4F20003 		movt	r3, 16384
 448 0012 FA79     		ldrb	r2, [r7, #7]
 449 0014 1A70     		strb	r2, [r3, #0]
 388:.\Generated_Source\PSoC5/PSOC4.c ****     }
 450              		.loc 1 388 0
 451 0016 07F10C07 		add	r7, r7, #12
 452 001a BD46     		mov	sp, r7
 453 001c 80BC     		pop	{r7}
 454 001e 7047     		bx	lr
 455              		.cfi_endproc
 456              	.LFE8:
 457              		.size	PSOC4_SetRxInterruptMode, .-PSOC4_SetRxInterruptMode
 458              		.section	.text.PSOC4_ReadRxData,"ax",%progbits
 459              		.align	2
 460              		.global	PSOC4_ReadRxData
 461              		.thumb
 462              		.thumb_func
 463              		.type	PSOC4_ReadRxData, %function
 464              	PSOC4_ReadRxData:
 465              	.LFB9:
 389:.\Generated_Source\PSoC5/PSOC4.c **** 
 390:.\Generated_Source\PSoC5/PSOC4.c **** 
ARM GAS  C:\Users\javier\AppData\Local\Temp\ccuiDKAi.s 			page 16


 391:.\Generated_Source\PSoC5/PSOC4.c ****     /*******************************************************************************
 392:.\Generated_Source\PSoC5/PSOC4.c ****     * Function Name: PSOC4_ReadRxData
 393:.\Generated_Source\PSoC5/PSOC4.c ****     ********************************************************************************
 394:.\Generated_Source\PSoC5/PSOC4.c ****     *
 395:.\Generated_Source\PSoC5/PSOC4.c ****     * Summary:
 396:.\Generated_Source\PSoC5/PSOC4.c ****     *  Returns data in RX Data register without checking status register to
 397:.\Generated_Source\PSoC5/PSOC4.c ****     *  determine if data is valid
 398:.\Generated_Source\PSoC5/PSOC4.c ****     *
 399:.\Generated_Source\PSoC5/PSOC4.c ****     * Parameters:
 400:.\Generated_Source\PSoC5/PSOC4.c ****     *  None.
 401:.\Generated_Source\PSoC5/PSOC4.c ****     *
 402:.\Generated_Source\PSoC5/PSOC4.c ****     * Return:
 403:.\Generated_Source\PSoC5/PSOC4.c ****     *  Received data from RX register
 404:.\Generated_Source\PSoC5/PSOC4.c ****     *
 405:.\Generated_Source\PSoC5/PSOC4.c ****     * Global Variables:
 406:.\Generated_Source\PSoC5/PSOC4.c ****     *  PSOC4_rxBuffer - RAM buffer pointer for save received data.
 407:.\Generated_Source\PSoC5/PSOC4.c ****     *  PSOC4_rxBufferWrite - cyclic index for write to rxBuffer,
 408:.\Generated_Source\PSoC5/PSOC4.c ****     *     checked to identify new data.
 409:.\Generated_Source\PSoC5/PSOC4.c ****     *  PSOC4_rxBufferRead - cyclic index for read from rxBuffer,
 410:.\Generated_Source\PSoC5/PSOC4.c ****     *     incremented after each byte has been read from buffer.
 411:.\Generated_Source\PSoC5/PSOC4.c ****     *  PSOC4_rxBufferLoopDetect - creared if loop condition was detected
 412:.\Generated_Source\PSoC5/PSOC4.c ****     *     in RX ISR.
 413:.\Generated_Source\PSoC5/PSOC4.c ****     *
 414:.\Generated_Source\PSoC5/PSOC4.c ****     * Reentrant:
 415:.\Generated_Source\PSoC5/PSOC4.c ****     *  No.
 416:.\Generated_Source\PSoC5/PSOC4.c ****     *
 417:.\Generated_Source\PSoC5/PSOC4.c ****     *******************************************************************************/
 418:.\Generated_Source\PSoC5/PSOC4.c ****     uint8 PSOC4_ReadRxData(void) 
 419:.\Generated_Source\PSoC5/PSOC4.c ****     {
 466              		.loc 1 419 0
 467              		.cfi_startproc
 468              		@ args = 0, pretend = 0, frame = 8
 469              		@ frame_needed = 1, uses_anonymous_args = 0
 470 0000 80B5     		push	{r7, lr}
 471              	.LCFI22:
 472              		.cfi_def_cfa_offset 8
 473              		.cfi_offset 7, -8
 474              		.cfi_offset 14, -4
 475 0002 82B0     		sub	sp, sp, #8
 476              	.LCFI23:
 477              		.cfi_def_cfa_offset 16
 478 0004 00AF     		add	r7, sp, #0
 479              	.LCFI24:
 480              		.cfi_def_cfa_register 7
 420:.\Generated_Source\PSoC5/PSOC4.c ****         uint8 rxData;
 421:.\Generated_Source\PSoC5/PSOC4.c **** 
 422:.\Generated_Source\PSoC5/PSOC4.c ****         #if(PSOC4_RXBUFFERSIZE > PSOC4_FIFO_LENGTH)
 423:.\Generated_Source\PSoC5/PSOC4.c ****             uint8 loc_rxBufferRead;
 424:.\Generated_Source\PSoC5/PSOC4.c ****             uint8 loc_rxBufferWrite;
 425:.\Generated_Source\PSoC5/PSOC4.c ****             /* Protect variables that could change on interrupt. */
 426:.\Generated_Source\PSoC5/PSOC4.c ****             /* Disable Rx interrupt. */
 427:.\Generated_Source\PSoC5/PSOC4.c ****             #if(PSOC4_RX_INTERRUPT_ENABLED)
 428:.\Generated_Source\PSoC5/PSOC4.c ****                 PSOC4_DisableRxInt();
 481              		.loc 1 428 0
 482 0006 FFF7FEFF 		bl	PSOC4_DisableRxInt
 429:.\Generated_Source\PSoC5/PSOC4.c ****             #endif /* PSOC4_RX_INTERRUPT_ENABLED */
 430:.\Generated_Source\PSoC5/PSOC4.c ****             loc_rxBufferRead = PSOC4_rxBufferRead;
ARM GAS  C:\Users\javier\AppData\Local\Temp\ccuiDKAi.s 			page 17


 483              		.loc 1 430 0
 484 000a 40F20003 		movw	r3, #:lower16:PSOC4_rxBufferRead
 485 000e C0F20003 		movt	r3, #:upper16:PSOC4_rxBufferRead
 486 0012 1B78     		ldrb	r3, [r3, #0]
 487 0014 BB71     		strb	r3, [r7, #6]
 431:.\Generated_Source\PSoC5/PSOC4.c ****             loc_rxBufferWrite = PSOC4_rxBufferWrite;
 488              		.loc 1 431 0
 489 0016 40F20003 		movw	r3, #:lower16:PSOC4_rxBufferWrite
 490 001a C0F20003 		movt	r3, #:upper16:PSOC4_rxBufferWrite
 491 001e 1B78     		ldrb	r3, [r3, #0]
 492 0020 7B71     		strb	r3, [r7, #5]
 432:.\Generated_Source\PSoC5/PSOC4.c **** 
 433:.\Generated_Source\PSoC5/PSOC4.c ****             if( (PSOC4_rxBufferLoopDetect != 0u) || (loc_rxBufferRead != loc_rxBufferWrite) )
 493              		.loc 1 433 0
 494 0022 40F20003 		movw	r3, #:lower16:PSOC4_rxBufferLoopDetect
 495 0026 C0F20003 		movt	r3, #:upper16:PSOC4_rxBufferLoopDetect
 496 002a 1B78     		ldrb	r3, [r3, #0]
 497 002c DBB2     		uxtb	r3, r3
 498 002e 002B     		cmp	r3, #0
 499 0030 03D1     		bne	.L13
 500              		.loc 1 433 0 is_stmt 0 discriminator 1
 501 0032 BA79     		ldrb	r2, [r7, #6]	@ zero_extendqisi2
 502 0034 7B79     		ldrb	r3, [r7, #5]	@ zero_extendqisi2
 503 0036 9A42     		cmp	r2, r3
 504 0038 26D0     		beq	.L14
 505              	.L13:
 434:.\Generated_Source\PSoC5/PSOC4.c ****             {
 435:.\Generated_Source\PSoC5/PSOC4.c ****                 rxData = PSOC4_rxBuffer[loc_rxBufferRead];
 506              		.loc 1 435 0 is_stmt 1
 507 003a BA79     		ldrb	r2, [r7, #6]	@ zero_extendqisi2
 508 003c 40F20003 		movw	r3, #:lower16:PSOC4_rxBuffer
 509 0040 C0F20003 		movt	r3, #:upper16:PSOC4_rxBuffer
 510 0044 9B5C     		ldrb	r3, [r3, r2]
 511 0046 FB71     		strb	r3, [r7, #7]
 436:.\Generated_Source\PSoC5/PSOC4.c ****                 loc_rxBufferRead++;
 512              		.loc 1 436 0
 513 0048 BB79     		ldrb	r3, [r7, #6]
 514 004a 03F10103 		add	r3, r3, #1
 515 004e BB71     		strb	r3, [r7, #6]
 437:.\Generated_Source\PSoC5/PSOC4.c **** 
 438:.\Generated_Source\PSoC5/PSOC4.c ****                 if(loc_rxBufferRead >= PSOC4_RXBUFFERSIZE)
 516              		.loc 1 438 0
 517 0050 BB79     		ldrb	r3, [r7, #6]	@ zero_extendqisi2
 518 0052 312B     		cmp	r3, #49
 519 0054 02D9     		bls	.L15
 439:.\Generated_Source\PSoC5/PSOC4.c ****                 {
 440:.\Generated_Source\PSoC5/PSOC4.c ****                     loc_rxBufferRead = 0u;
 520              		.loc 1 440 0
 521 0056 4FF00003 		mov	r3, #0
 522 005a BB71     		strb	r3, [r7, #6]
 523              	.L15:
 441:.\Generated_Source\PSoC5/PSOC4.c ****                 }
 442:.\Generated_Source\PSoC5/PSOC4.c ****                 /* Update the real pointer */
 443:.\Generated_Source\PSoC5/PSOC4.c ****                 PSOC4_rxBufferRead = loc_rxBufferRead;
 524              		.loc 1 443 0
 525 005c 40F20003 		movw	r3, #:lower16:PSOC4_rxBufferRead
 526 0060 C0F20003 		movt	r3, #:upper16:PSOC4_rxBufferRead
ARM GAS  C:\Users\javier\AppData\Local\Temp\ccuiDKAi.s 			page 18


 527 0064 BA79     		ldrb	r2, [r7, #6]
 528 0066 1A70     		strb	r2, [r3, #0]
 444:.\Generated_Source\PSoC5/PSOC4.c **** 
 445:.\Generated_Source\PSoC5/PSOC4.c ****                 if(PSOC4_rxBufferLoopDetect != 0u )
 529              		.loc 1 445 0
 530 0068 40F20003 		movw	r3, #:lower16:PSOC4_rxBufferLoopDetect
 531 006c C0F20003 		movt	r3, #:upper16:PSOC4_rxBufferLoopDetect
 532 0070 1B78     		ldrb	r3, [r3, #0]
 533 0072 DBB2     		uxtb	r3, r3
 534 0074 002B     		cmp	r3, #0
 535 0076 0DD0     		beq	.L17
 446:.\Generated_Source\PSoC5/PSOC4.c ****                 {
 447:.\Generated_Source\PSoC5/PSOC4.c ****                     PSOC4_rxBufferLoopDetect = 0u;
 536              		.loc 1 447 0
 537 0078 40F20003 		movw	r3, #:lower16:PSOC4_rxBufferLoopDetect
 538 007c C0F20003 		movt	r3, #:upper16:PSOC4_rxBufferLoopDetect
 539 0080 4FF00002 		mov	r2, #0
 540 0084 1A70     		strb	r2, [r3, #0]
 445:.\Generated_Source\PSoC5/PSOC4.c ****                 if(PSOC4_rxBufferLoopDetect != 0u )
 541              		.loc 1 445 0
 542 0086 05E0     		b	.L17
 543              	.L14:
 448:.\Generated_Source\PSoC5/PSOC4.c ****                     #if( (PSOC4_RX_INTERRUPT_ENABLED) && (PSOC4_FLOW_CONTROL != 0u) && \
 449:.\Generated_Source\PSoC5/PSOC4.c ****                          (PSOC4_RXBUFFERSIZE > PSOC4_FIFO_LENGTH) )
 450:.\Generated_Source\PSoC5/PSOC4.c ****                         /* When Hardware Flow Control selected - return RX mask */
 451:.\Generated_Source\PSoC5/PSOC4.c ****                         #if( PSOC4_HD_ENABLED )
 452:.\Generated_Source\PSoC5/PSOC4.c ****                             if((PSOC4_CONTROL_REG & PSOC4_CTRL_HD_SEND) == 0u)
 453:.\Generated_Source\PSoC5/PSOC4.c ****                             {   /* In Half duplex mode return RX mask only in RX
 454:.\Generated_Source\PSoC5/PSOC4.c ****                                 *  configuration set, otherwise
 455:.\Generated_Source\PSoC5/PSOC4.c ****                                 *  mask will be returned in LoadRxConfig() API.
 456:.\Generated_Source\PSoC5/PSOC4.c ****                                 */
 457:.\Generated_Source\PSoC5/PSOC4.c ****                                 PSOC4_RXSTATUS_MASK_REG  |= PSOC4_RX_STS_FIFO_NOTEMPTY;
 458:.\Generated_Source\PSoC5/PSOC4.c ****                             }
 459:.\Generated_Source\PSoC5/PSOC4.c ****                         #else
 460:.\Generated_Source\PSoC5/PSOC4.c ****                             PSOC4_RXSTATUS_MASK_REG  |= PSOC4_RX_STS_FIFO_NOTEMPTY;
 461:.\Generated_Source\PSoC5/PSOC4.c ****                         #endif /* end PSOC4_HD_ENABLED */
 462:.\Generated_Source\PSoC5/PSOC4.c ****                     #endif /* PSOC4_RX_INTERRUPT_ENABLED and Hardware flow control*/
 463:.\Generated_Source\PSoC5/PSOC4.c ****                 }
 464:.\Generated_Source\PSoC5/PSOC4.c ****             }
 465:.\Generated_Source\PSoC5/PSOC4.c ****             else
 466:.\Generated_Source\PSoC5/PSOC4.c ****             {   /* Needs to check status for RX_STS_FIFO_NOTEMPTY bit*/
 467:.\Generated_Source\PSoC5/PSOC4.c ****                 rxData = PSOC4_RXDATA_REG;
 544              		.loc 1 467 0
 545 0088 46F24753 		movw	r3, #25927
 546 008c C4F20003 		movt	r3, 16384
 547 0090 1B78     		ldrb	r3, [r3, #0]
 548 0092 FB71     		strb	r3, [r7, #7]
 549              	.L17:
 468:.\Generated_Source\PSoC5/PSOC4.c ****             }
 469:.\Generated_Source\PSoC5/PSOC4.c **** 
 470:.\Generated_Source\PSoC5/PSOC4.c ****             /* Enable Rx interrupt. */
 471:.\Generated_Source\PSoC5/PSOC4.c ****             #if(PSOC4_RX_INTERRUPT_ENABLED)
 472:.\Generated_Source\PSoC5/PSOC4.c ****                 PSOC4_EnableRxInt();
 550              		.loc 1 472 0
 551 0094 FFF7FEFF 		bl	PSOC4_EnableRxInt
 473:.\Generated_Source\PSoC5/PSOC4.c ****             #endif /* End PSOC4_RX_INTERRUPT_ENABLED */
 474:.\Generated_Source\PSoC5/PSOC4.c **** 
ARM GAS  C:\Users\javier\AppData\Local\Temp\ccuiDKAi.s 			page 19


 475:.\Generated_Source\PSoC5/PSOC4.c ****         #else /* PSOC4_RXBUFFERSIZE > PSOC4_FIFO_LENGTH */
 476:.\Generated_Source\PSoC5/PSOC4.c **** 
 477:.\Generated_Source\PSoC5/PSOC4.c ****             /* Needs to check status for RX_STS_FIFO_NOTEMPTY bit*/
 478:.\Generated_Source\PSoC5/PSOC4.c ****             rxData = PSOC4_RXDATA_REG;
 479:.\Generated_Source\PSoC5/PSOC4.c **** 
 480:.\Generated_Source\PSoC5/PSOC4.c ****         #endif /* PSOC4_RXBUFFERSIZE > PSOC4_FIFO_LENGTH */
 481:.\Generated_Source\PSoC5/PSOC4.c **** 
 482:.\Generated_Source\PSoC5/PSOC4.c ****         return(rxData);
 552              		.loc 1 482 0
 553 0098 FB79     		ldrb	r3, [r7, #7]	@ zero_extendqisi2
 483:.\Generated_Source\PSoC5/PSOC4.c ****     }
 554              		.loc 1 483 0
 555 009a 1846     		mov	r0, r3
 556 009c 07F10807 		add	r7, r7, #8
 557 00a0 BD46     		mov	sp, r7
 558 00a2 80BD     		pop	{r7, pc}
 559              		.cfi_endproc
 560              	.LFE9:
 561              		.size	PSOC4_ReadRxData, .-PSOC4_ReadRxData
 562              		.section	.text.PSOC4_ReadRxStatus,"ax",%progbits
 563              		.align	2
 564              		.global	PSOC4_ReadRxStatus
 565              		.thumb
 566              		.thumb_func
 567              		.type	PSOC4_ReadRxStatus, %function
 568              	PSOC4_ReadRxStatus:
 569              	.LFB10:
 484:.\Generated_Source\PSoC5/PSOC4.c **** 
 485:.\Generated_Source\PSoC5/PSOC4.c **** 
 486:.\Generated_Source\PSoC5/PSOC4.c ****     /*******************************************************************************
 487:.\Generated_Source\PSoC5/PSOC4.c ****     * Function Name: PSOC4_ReadRxStatus
 488:.\Generated_Source\PSoC5/PSOC4.c ****     ********************************************************************************
 489:.\Generated_Source\PSoC5/PSOC4.c ****     *
 490:.\Generated_Source\PSoC5/PSOC4.c ****     * Summary:
 491:.\Generated_Source\PSoC5/PSOC4.c ****     *  Read the current state of the status register
 492:.\Generated_Source\PSoC5/PSOC4.c ****     *  And detect software buffer overflow.
 493:.\Generated_Source\PSoC5/PSOC4.c ****     *
 494:.\Generated_Source\PSoC5/PSOC4.c ****     * Parameters:
 495:.\Generated_Source\PSoC5/PSOC4.c ****     *  None.
 496:.\Generated_Source\PSoC5/PSOC4.c ****     *
 497:.\Generated_Source\PSoC5/PSOC4.c ****     * Return:
 498:.\Generated_Source\PSoC5/PSOC4.c ****     *  Current state of the status register.
 499:.\Generated_Source\PSoC5/PSOC4.c ****     *
 500:.\Generated_Source\PSoC5/PSOC4.c ****     * Global Variables:
 501:.\Generated_Source\PSoC5/PSOC4.c ****     *  PSOC4_rxBufferOverflow - used to indicate overload condition.
 502:.\Generated_Source\PSoC5/PSOC4.c ****     *   It set to one in RX interrupt when there isn?t free space in
 503:.\Generated_Source\PSoC5/PSOC4.c ****     *   PSOC4_rxBufferRead to write new data. This condition returned
 504:.\Generated_Source\PSoC5/PSOC4.c ****     *   and cleared to zero by this API as an
 505:.\Generated_Source\PSoC5/PSOC4.c ****     *   PSOC4_RX_STS_SOFT_BUFF_OVER bit along with RX Status register
 506:.\Generated_Source\PSoC5/PSOC4.c ****     *   bits.
 507:.\Generated_Source\PSoC5/PSOC4.c ****     *
 508:.\Generated_Source\PSoC5/PSOC4.c ****     *******************************************************************************/
 509:.\Generated_Source\PSoC5/PSOC4.c ****     uint8 PSOC4_ReadRxStatus(void) 
 510:.\Generated_Source\PSoC5/PSOC4.c ****     {
 570              		.loc 1 510 0
 571              		.cfi_startproc
 572              		@ args = 0, pretend = 0, frame = 8
ARM GAS  C:\Users\javier\AppData\Local\Temp\ccuiDKAi.s 			page 20


 573              		@ frame_needed = 1, uses_anonymous_args = 0
 574              		@ link register save eliminated.
 575 0000 80B4     		push	{r7}
 576              	.LCFI25:
 577              		.cfi_def_cfa_offset 4
 578              		.cfi_offset 7, -4
 579 0002 83B0     		sub	sp, sp, #12
 580              	.LCFI26:
 581              		.cfi_def_cfa_offset 16
 582 0004 00AF     		add	r7, sp, #0
 583              	.LCFI27:
 584              		.cfi_def_cfa_register 7
 511:.\Generated_Source\PSoC5/PSOC4.c ****         uint8 status;
 512:.\Generated_Source\PSoC5/PSOC4.c **** 
 513:.\Generated_Source\PSoC5/PSOC4.c ****         status = PSOC4_RXSTATUS_REG & PSOC4_RX_HW_MASK;
 585              		.loc 1 513 0
 586 0006 46F26753 		movw	r3, #25959
 587 000a C4F20003 		movt	r3, 16384
 588 000e 1B78     		ldrb	r3, [r3, #0]
 589 0010 DBB2     		uxtb	r3, r3
 590 0012 03F07F03 		and	r3, r3, #127
 591 0016 FB71     		strb	r3, [r7, #7]
 514:.\Generated_Source\PSoC5/PSOC4.c **** 
 515:.\Generated_Source\PSoC5/PSOC4.c ****         #if(PSOC4_RXBUFFERSIZE > PSOC4_FIFO_LENGTH)
 516:.\Generated_Source\PSoC5/PSOC4.c ****             if( PSOC4_rxBufferOverflow != 0u )
 592              		.loc 1 516 0
 593 0018 40F20003 		movw	r3, #:lower16:PSOC4_rxBufferOverflow
 594 001c C0F20003 		movt	r3, #:upper16:PSOC4_rxBufferOverflow
 595 0020 1B78     		ldrb	r3, [r3, #0]
 596 0022 DBB2     		uxtb	r3, r3
 597 0024 002B     		cmp	r3, #0
 598 0026 0AD0     		beq	.L20
 517:.\Generated_Source\PSoC5/PSOC4.c ****             {
 518:.\Generated_Source\PSoC5/PSOC4.c ****                 status |= PSOC4_RX_STS_SOFT_BUFF_OVER;
 599              		.loc 1 518 0
 600 0028 FB79     		ldrb	r3, [r7, #7]
 601 002a 63F07F03 		orn	r3, r3, #127
 602 002e FB71     		strb	r3, [r7, #7]
 519:.\Generated_Source\PSoC5/PSOC4.c ****                 PSOC4_rxBufferOverflow = 0u;
 603              		.loc 1 519 0
 604 0030 40F20003 		movw	r3, #:lower16:PSOC4_rxBufferOverflow
 605 0034 C0F20003 		movt	r3, #:upper16:PSOC4_rxBufferOverflow
 606 0038 4FF00002 		mov	r2, #0
 607 003c 1A70     		strb	r2, [r3, #0]
 608              	.L20:
 520:.\Generated_Source\PSoC5/PSOC4.c ****             }
 521:.\Generated_Source\PSoC5/PSOC4.c ****         #endif /* PSOC4_RXBUFFERSIZE */
 522:.\Generated_Source\PSoC5/PSOC4.c **** 
 523:.\Generated_Source\PSoC5/PSOC4.c ****         return(status);
 609              		.loc 1 523 0
 610 003e FB79     		ldrb	r3, [r7, #7]	@ zero_extendqisi2
 524:.\Generated_Source\PSoC5/PSOC4.c ****     }
 611              		.loc 1 524 0
 612 0040 1846     		mov	r0, r3
 613 0042 07F10C07 		add	r7, r7, #12
 614 0046 BD46     		mov	sp, r7
 615 0048 80BC     		pop	{r7}
ARM GAS  C:\Users\javier\AppData\Local\Temp\ccuiDKAi.s 			page 21


 616 004a 7047     		bx	lr
 617              		.cfi_endproc
 618              	.LFE10:
 619              		.size	PSOC4_ReadRxStatus, .-PSOC4_ReadRxStatus
 620              		.section	.text.PSOC4_GetChar,"ax",%progbits
 621              		.align	2
 622              		.global	PSOC4_GetChar
 623              		.thumb
 624              		.thumb_func
 625              		.type	PSOC4_GetChar, %function
 626              	PSOC4_GetChar:
 627              	.LFB11:
 525:.\Generated_Source\PSoC5/PSOC4.c **** 
 526:.\Generated_Source\PSoC5/PSOC4.c **** 
 527:.\Generated_Source\PSoC5/PSOC4.c ****     /*******************************************************************************
 528:.\Generated_Source\PSoC5/PSOC4.c ****     * Function Name: PSOC4_GetChar
 529:.\Generated_Source\PSoC5/PSOC4.c ****     ********************************************************************************
 530:.\Generated_Source\PSoC5/PSOC4.c ****     *
 531:.\Generated_Source\PSoC5/PSOC4.c ****     * Summary:
 532:.\Generated_Source\PSoC5/PSOC4.c ****     *  Reads UART RX buffer immediately, if data is not available or an error
 533:.\Generated_Source\PSoC5/PSOC4.c ****     *  condition exists, zero is returned; otherwise, character is read and
 534:.\Generated_Source\PSoC5/PSOC4.c ****     *  returned.
 535:.\Generated_Source\PSoC5/PSOC4.c ****     *
 536:.\Generated_Source\PSoC5/PSOC4.c ****     * Parameters:
 537:.\Generated_Source\PSoC5/PSOC4.c ****     *  None.
 538:.\Generated_Source\PSoC5/PSOC4.c ****     *
 539:.\Generated_Source\PSoC5/PSOC4.c ****     * Return:
 540:.\Generated_Source\PSoC5/PSOC4.c ****     *  Character read from UART RX buffer. ASCII characters from 1 to 255 are valid.
 541:.\Generated_Source\PSoC5/PSOC4.c ****     *  A returned zero signifies an error condition or no data available.
 542:.\Generated_Source\PSoC5/PSOC4.c ****     *
 543:.\Generated_Source\PSoC5/PSOC4.c ****     * Global Variables:
 544:.\Generated_Source\PSoC5/PSOC4.c ****     *  PSOC4_rxBuffer - RAM buffer pointer for save received data.
 545:.\Generated_Source\PSoC5/PSOC4.c ****     *  PSOC4_rxBufferWrite - cyclic index for write to rxBuffer,
 546:.\Generated_Source\PSoC5/PSOC4.c ****     *     checked to identify new data.
 547:.\Generated_Source\PSoC5/PSOC4.c ****     *  PSOC4_rxBufferRead - cyclic index for read from rxBuffer,
 548:.\Generated_Source\PSoC5/PSOC4.c ****     *     incremented after each byte has been read from buffer.
 549:.\Generated_Source\PSoC5/PSOC4.c ****     *  PSOC4_rxBufferLoopDetect - creared if loop condition was detected
 550:.\Generated_Source\PSoC5/PSOC4.c ****     *     in RX ISR.
 551:.\Generated_Source\PSoC5/PSOC4.c ****     *
 552:.\Generated_Source\PSoC5/PSOC4.c ****     * Reentrant:
 553:.\Generated_Source\PSoC5/PSOC4.c ****     *  No.
 554:.\Generated_Source\PSoC5/PSOC4.c ****     *
 555:.\Generated_Source\PSoC5/PSOC4.c ****     *******************************************************************************/
 556:.\Generated_Source\PSoC5/PSOC4.c ****     uint8 PSOC4_GetChar(void) 
 557:.\Generated_Source\PSoC5/PSOC4.c ****     {
 628              		.loc 1 557 0
 629              		.cfi_startproc
 630              		@ args = 0, pretend = 0, frame = 8
 631              		@ frame_needed = 1, uses_anonymous_args = 0
 632 0000 80B5     		push	{r7, lr}
 633              	.LCFI28:
 634              		.cfi_def_cfa_offset 8
 635              		.cfi_offset 7, -8
 636              		.cfi_offset 14, -4
 637 0002 82B0     		sub	sp, sp, #8
 638              	.LCFI29:
 639              		.cfi_def_cfa_offset 16
ARM GAS  C:\Users\javier\AppData\Local\Temp\ccuiDKAi.s 			page 22


 640 0004 00AF     		add	r7, sp, #0
 641              	.LCFI30:
 642              		.cfi_def_cfa_register 7
 558:.\Generated_Source\PSoC5/PSOC4.c ****         uint8 rxData = 0u;
 643              		.loc 1 558 0
 644 0006 4FF00003 		mov	r3, #0
 645 000a FB71     		strb	r3, [r7, #7]
 559:.\Generated_Source\PSoC5/PSOC4.c ****         uint8 rxStatus;
 560:.\Generated_Source\PSoC5/PSOC4.c **** 
 561:.\Generated_Source\PSoC5/PSOC4.c ****         #if(PSOC4_RXBUFFERSIZE > PSOC4_FIFO_LENGTH)
 562:.\Generated_Source\PSoC5/PSOC4.c ****             uint8 loc_rxBufferRead;
 563:.\Generated_Source\PSoC5/PSOC4.c ****             uint8 loc_rxBufferWrite;
 564:.\Generated_Source\PSoC5/PSOC4.c ****             /* Protect variables that could change on interrupt. */
 565:.\Generated_Source\PSoC5/PSOC4.c ****             /* Disable Rx interrupt. */
 566:.\Generated_Source\PSoC5/PSOC4.c ****             #if(PSOC4_RX_INTERRUPT_ENABLED)
 567:.\Generated_Source\PSoC5/PSOC4.c ****                 PSOC4_DisableRxInt();
 646              		.loc 1 567 0
 647 000c FFF7FEFF 		bl	PSOC4_DisableRxInt
 568:.\Generated_Source\PSoC5/PSOC4.c ****             #endif /* PSOC4_RX_INTERRUPT_ENABLED */
 569:.\Generated_Source\PSoC5/PSOC4.c ****             loc_rxBufferRead = PSOC4_rxBufferRead;
 648              		.loc 1 569 0
 649 0010 40F20003 		movw	r3, #:lower16:PSOC4_rxBufferRead
 650 0014 C0F20003 		movt	r3, #:upper16:PSOC4_rxBufferRead
 651 0018 1B78     		ldrb	r3, [r3, #0]
 652 001a BB71     		strb	r3, [r7, #6]
 570:.\Generated_Source\PSoC5/PSOC4.c ****             loc_rxBufferWrite = PSOC4_rxBufferWrite;
 653              		.loc 1 570 0
 654 001c 40F20003 		movw	r3, #:lower16:PSOC4_rxBufferWrite
 655 0020 C0F20003 		movt	r3, #:upper16:PSOC4_rxBufferWrite
 656 0024 1B78     		ldrb	r3, [r3, #0]
 657 0026 7B71     		strb	r3, [r7, #5]
 571:.\Generated_Source\PSoC5/PSOC4.c **** 
 572:.\Generated_Source\PSoC5/PSOC4.c ****             if( (PSOC4_rxBufferLoopDetect != 0u) || (loc_rxBufferRead != loc_rxBufferWrite) )
 658              		.loc 1 572 0
 659 0028 40F20003 		movw	r3, #:lower16:PSOC4_rxBufferLoopDetect
 660 002c C0F20003 		movt	r3, #:upper16:PSOC4_rxBufferLoopDetect
 661 0030 1B78     		ldrb	r3, [r3, #0]
 662 0032 DBB2     		uxtb	r3, r3
 663 0034 002B     		cmp	r3, #0
 664 0036 03D1     		bne	.L23
 665              		.loc 1 572 0 is_stmt 0 discriminator 1
 666 0038 BA79     		ldrb	r2, [r7, #6]	@ zero_extendqisi2
 667 003a 7B79     		ldrb	r3, [r7, #5]	@ zero_extendqisi2
 668 003c 9A42     		cmp	r2, r3
 669 003e 26D0     		beq	.L24
 670              	.L23:
 573:.\Generated_Source\PSoC5/PSOC4.c ****             {
 574:.\Generated_Source\PSoC5/PSOC4.c ****                 rxData = PSOC4_rxBuffer[loc_rxBufferRead];
 671              		.loc 1 574 0 is_stmt 1
 672 0040 BA79     		ldrb	r2, [r7, #6]	@ zero_extendqisi2
 673 0042 40F20003 		movw	r3, #:lower16:PSOC4_rxBuffer
 674 0046 C0F20003 		movt	r3, #:upper16:PSOC4_rxBuffer
 675 004a 9B5C     		ldrb	r3, [r3, r2]
 676 004c FB71     		strb	r3, [r7, #7]
 575:.\Generated_Source\PSoC5/PSOC4.c ****                 loc_rxBufferRead++;
 677              		.loc 1 575 0
 678 004e BB79     		ldrb	r3, [r7, #6]
ARM GAS  C:\Users\javier\AppData\Local\Temp\ccuiDKAi.s 			page 23


 679 0050 03F10103 		add	r3, r3, #1
 680 0054 BB71     		strb	r3, [r7, #6]
 576:.\Generated_Source\PSoC5/PSOC4.c ****                 if(loc_rxBufferRead >= PSOC4_RXBUFFERSIZE)
 681              		.loc 1 576 0
 682 0056 BB79     		ldrb	r3, [r7, #6]	@ zero_extendqisi2
 683 0058 312B     		cmp	r3, #49
 684 005a 02D9     		bls	.L25
 577:.\Generated_Source\PSoC5/PSOC4.c ****                 {
 578:.\Generated_Source\PSoC5/PSOC4.c ****                     loc_rxBufferRead = 0u;
 685              		.loc 1 578 0
 686 005c 4FF00003 		mov	r3, #0
 687 0060 BB71     		strb	r3, [r7, #6]
 688              	.L25:
 579:.\Generated_Source\PSoC5/PSOC4.c ****                 }
 580:.\Generated_Source\PSoC5/PSOC4.c ****                 /* Update the real pointer */
 581:.\Generated_Source\PSoC5/PSOC4.c ****                 PSOC4_rxBufferRead = loc_rxBufferRead;
 689              		.loc 1 581 0
 690 0062 40F20003 		movw	r3, #:lower16:PSOC4_rxBufferRead
 691 0066 C0F20003 		movt	r3, #:upper16:PSOC4_rxBufferRead
 692 006a BA79     		ldrb	r2, [r7, #6]
 693 006c 1A70     		strb	r2, [r3, #0]
 582:.\Generated_Source\PSoC5/PSOC4.c **** 
 583:.\Generated_Source\PSoC5/PSOC4.c ****                 if(PSOC4_rxBufferLoopDetect > 0u )
 694              		.loc 1 583 0
 695 006e 40F20003 		movw	r3, #:lower16:PSOC4_rxBufferLoopDetect
 696 0072 C0F20003 		movt	r3, #:upper16:PSOC4_rxBufferLoopDetect
 697 0076 1B78     		ldrb	r3, [r3, #0]
 698 0078 DBB2     		uxtb	r3, r3
 699 007a 002B     		cmp	r3, #0
 700 007c 20D0     		beq	.L27
 584:.\Generated_Source\PSoC5/PSOC4.c ****                 {
 585:.\Generated_Source\PSoC5/PSOC4.c ****                     PSOC4_rxBufferLoopDetect = 0u;
 701              		.loc 1 585 0
 702 007e 40F20003 		movw	r3, #:lower16:PSOC4_rxBufferLoopDetect
 703 0082 C0F20003 		movt	r3, #:upper16:PSOC4_rxBufferLoopDetect
 704 0086 4FF00002 		mov	r2, #0
 705 008a 1A70     		strb	r2, [r3, #0]
 583:.\Generated_Source\PSoC5/PSOC4.c ****                 if(PSOC4_rxBufferLoopDetect > 0u )
 706              		.loc 1 583 0
 707 008c 18E0     		b	.L27
 708              	.L24:
 586:.\Generated_Source\PSoC5/PSOC4.c ****                     #if( (PSOC4_RX_INTERRUPT_ENABLED) && (PSOC4_FLOW_CONTROL != 0u) )
 587:.\Generated_Source\PSoC5/PSOC4.c ****                         /* When Hardware Flow Control selected - return RX mask */
 588:.\Generated_Source\PSoC5/PSOC4.c ****                         #if( PSOC4_HD_ENABLED )
 589:.\Generated_Source\PSoC5/PSOC4.c ****                             if((PSOC4_CONTROL_REG & PSOC4_CTRL_HD_SEND) == 0u)
 590:.\Generated_Source\PSoC5/PSOC4.c ****                             {   /* In Half duplex mode return RX mask only if
 591:.\Generated_Source\PSoC5/PSOC4.c ****                                 *  RX configuration set, otherwise
 592:.\Generated_Source\PSoC5/PSOC4.c ****                                 *  mask will be returned in LoadRxConfig() API.
 593:.\Generated_Source\PSoC5/PSOC4.c ****                                 */
 594:.\Generated_Source\PSoC5/PSOC4.c ****                                 PSOC4_RXSTATUS_MASK_REG  |= PSOC4_RX_STS_FIFO_NOTEMPTY;
 595:.\Generated_Source\PSoC5/PSOC4.c ****                             }
 596:.\Generated_Source\PSoC5/PSOC4.c ****                         #else
 597:.\Generated_Source\PSoC5/PSOC4.c ****                             PSOC4_RXSTATUS_MASK_REG  |= PSOC4_RX_STS_FIFO_NOTEMPTY;
 598:.\Generated_Source\PSoC5/PSOC4.c ****                         #endif /* end PSOC4_HD_ENABLED */
 599:.\Generated_Source\PSoC5/PSOC4.c ****                     #endif /* PSOC4_RX_INTERRUPT_ENABLED and Hardware flow control*/
 600:.\Generated_Source\PSoC5/PSOC4.c ****                 }
 601:.\Generated_Source\PSoC5/PSOC4.c **** 
ARM GAS  C:\Users\javier\AppData\Local\Temp\ccuiDKAi.s 			page 24


 602:.\Generated_Source\PSoC5/PSOC4.c ****             }
 603:.\Generated_Source\PSoC5/PSOC4.c ****             else
 604:.\Generated_Source\PSoC5/PSOC4.c ****             {   rxStatus = PSOC4_RXSTATUS_REG;
 709              		.loc 1 604 0
 710 008e 46F26753 		movw	r3, #25959
 711 0092 C4F20003 		movt	r3, 16384
 712 0096 1B78     		ldrb	r3, [r3, #0]
 713 0098 3B71     		strb	r3, [r7, #4]
 605:.\Generated_Source\PSoC5/PSOC4.c ****                 if((rxStatus & PSOC4_RX_STS_FIFO_NOTEMPTY) != 0u)
 714              		.loc 1 605 0
 715 009a 3B79     		ldrb	r3, [r7, #4]	@ zero_extendqisi2
 716 009c 03F02003 		and	r3, r3, #32
 717 00a0 002B     		cmp	r3, #0
 718 00a2 0DD0     		beq	.L27
 606:.\Generated_Source\PSoC5/PSOC4.c ****                 {   /* Read received data from FIFO*/
 607:.\Generated_Source\PSoC5/PSOC4.c ****                     rxData = PSOC4_RXDATA_REG;
 719              		.loc 1 607 0
 720 00a4 46F24753 		movw	r3, #25927
 721 00a8 C4F20003 		movt	r3, 16384
 722 00ac 1B78     		ldrb	r3, [r3, #0]
 723 00ae FB71     		strb	r3, [r7, #7]
 608:.\Generated_Source\PSoC5/PSOC4.c ****                     /*Check status on error*/
 609:.\Generated_Source\PSoC5/PSOC4.c ****                     if((rxStatus & (PSOC4_RX_STS_BREAK | PSOC4_RX_STS_PAR_ERROR |
 610:.\Generated_Source\PSoC5/PSOC4.c ****                                    PSOC4_RX_STS_STOP_ERROR | PSOC4_RX_STS_OVERRUN)) != 0u)
 724              		.loc 1 610 0
 725 00b0 3B79     		ldrb	r3, [r7, #4]	@ zero_extendqisi2
 726 00b2 03F01E03 		and	r3, r3, #30
 609:.\Generated_Source\PSoC5/PSOC4.c ****                     if((rxStatus & (PSOC4_RX_STS_BREAK | PSOC4_RX_STS_PAR_ERROR |
 727              		.loc 1 609 0
 728 00b6 002B     		cmp	r3, #0
 729 00b8 02D0     		beq	.L27
 611:.\Generated_Source\PSoC5/PSOC4.c ****                     {
 612:.\Generated_Source\PSoC5/PSOC4.c ****                         rxData = 0u;
 730              		.loc 1 612 0
 731 00ba 4FF00003 		mov	r3, #0
 732 00be FB71     		strb	r3, [r7, #7]
 733              	.L27:
 613:.\Generated_Source\PSoC5/PSOC4.c ****                     }
 614:.\Generated_Source\PSoC5/PSOC4.c ****                 }
 615:.\Generated_Source\PSoC5/PSOC4.c ****             }
 616:.\Generated_Source\PSoC5/PSOC4.c **** 
 617:.\Generated_Source\PSoC5/PSOC4.c ****             /* Enable Rx interrupt. */
 618:.\Generated_Source\PSoC5/PSOC4.c ****             #if(PSOC4_RX_INTERRUPT_ENABLED)
 619:.\Generated_Source\PSoC5/PSOC4.c ****                 PSOC4_EnableRxInt();
 734              		.loc 1 619 0
 735 00c0 FFF7FEFF 		bl	PSOC4_EnableRxInt
 620:.\Generated_Source\PSoC5/PSOC4.c ****             #endif /* PSOC4_RX_INTERRUPT_ENABLED */
 621:.\Generated_Source\PSoC5/PSOC4.c **** 
 622:.\Generated_Source\PSoC5/PSOC4.c ****         #else /* PSOC4_RXBUFFERSIZE > PSOC4_FIFO_LENGTH */
 623:.\Generated_Source\PSoC5/PSOC4.c **** 
 624:.\Generated_Source\PSoC5/PSOC4.c ****             rxStatus =PSOC4_RXSTATUS_REG;
 625:.\Generated_Source\PSoC5/PSOC4.c ****             if((rxStatus & PSOC4_RX_STS_FIFO_NOTEMPTY) != 0u)
 626:.\Generated_Source\PSoC5/PSOC4.c ****             {   /* Read received data from FIFO*/
 627:.\Generated_Source\PSoC5/PSOC4.c ****                 rxData = PSOC4_RXDATA_REG;
 628:.\Generated_Source\PSoC5/PSOC4.c ****                 /*Check status on error*/
 629:.\Generated_Source\PSoC5/PSOC4.c ****                 if((rxStatus & (PSOC4_RX_STS_BREAK | PSOC4_RX_STS_PAR_ERROR |
 630:.\Generated_Source\PSoC5/PSOC4.c ****                                PSOC4_RX_STS_STOP_ERROR | PSOC4_RX_STS_OVERRUN)) != 0u)
ARM GAS  C:\Users\javier\AppData\Local\Temp\ccuiDKAi.s 			page 25


 631:.\Generated_Source\PSoC5/PSOC4.c ****                 {
 632:.\Generated_Source\PSoC5/PSOC4.c ****                     rxData = 0u;
 633:.\Generated_Source\PSoC5/PSOC4.c ****                 }
 634:.\Generated_Source\PSoC5/PSOC4.c ****             }
 635:.\Generated_Source\PSoC5/PSOC4.c ****         #endif /* PSOC4_RXBUFFERSIZE > PSOC4_FIFO_LENGTH */
 636:.\Generated_Source\PSoC5/PSOC4.c **** 
 637:.\Generated_Source\PSoC5/PSOC4.c ****         return(rxData);
 736              		.loc 1 637 0
 737 00c4 FB79     		ldrb	r3, [r7, #7]	@ zero_extendqisi2
 638:.\Generated_Source\PSoC5/PSOC4.c ****     }
 738              		.loc 1 638 0
 739 00c6 1846     		mov	r0, r3
 740 00c8 07F10807 		add	r7, r7, #8
 741 00cc BD46     		mov	sp, r7
 742 00ce 80BD     		pop	{r7, pc}
 743              		.cfi_endproc
 744              	.LFE11:
 745              		.size	PSOC4_GetChar, .-PSOC4_GetChar
 746              		.section	.text.PSOC4_GetByte,"ax",%progbits
 747              		.align	2
 748              		.global	PSOC4_GetByte
 749              		.thumb
 750              		.thumb_func
 751              		.type	PSOC4_GetByte, %function
 752              	PSOC4_GetByte:
 753              	.LFB12:
 639:.\Generated_Source\PSoC5/PSOC4.c **** 
 640:.\Generated_Source\PSoC5/PSOC4.c **** 
 641:.\Generated_Source\PSoC5/PSOC4.c ****     /*******************************************************************************
 642:.\Generated_Source\PSoC5/PSOC4.c ****     * Function Name: PSOC4_GetByte
 643:.\Generated_Source\PSoC5/PSOC4.c ****     ********************************************************************************
 644:.\Generated_Source\PSoC5/PSOC4.c ****     *
 645:.\Generated_Source\PSoC5/PSOC4.c ****     * Summary:
 646:.\Generated_Source\PSoC5/PSOC4.c ****     *  Grab the next available byte of data from the recieve FIFO
 647:.\Generated_Source\PSoC5/PSOC4.c ****     *
 648:.\Generated_Source\PSoC5/PSOC4.c ****     * Parameters:
 649:.\Generated_Source\PSoC5/PSOC4.c ****     *  None.
 650:.\Generated_Source\PSoC5/PSOC4.c ****     *
 651:.\Generated_Source\PSoC5/PSOC4.c ****     * Return:
 652:.\Generated_Source\PSoC5/PSOC4.c ****     *  MSB contains Status Register and LSB contains UART RX data
 653:.\Generated_Source\PSoC5/PSOC4.c ****     *
 654:.\Generated_Source\PSoC5/PSOC4.c ****     * Reentrant:
 655:.\Generated_Source\PSoC5/PSOC4.c ****     *  No.
 656:.\Generated_Source\PSoC5/PSOC4.c ****     *
 657:.\Generated_Source\PSoC5/PSOC4.c ****     *******************************************************************************/
 658:.\Generated_Source\PSoC5/PSOC4.c ****     uint16 PSOC4_GetByte(void) 
 659:.\Generated_Source\PSoC5/PSOC4.c ****     {
 754              		.loc 1 659 0
 755              		.cfi_startproc
 756              		@ args = 0, pretend = 0, frame = 0
 757              		@ frame_needed = 1, uses_anonymous_args = 0
 758 0000 98B5     		push	{r3, r4, r7, lr}
 759              	.LCFI31:
 760              		.cfi_def_cfa_offset 16
 761              		.cfi_offset 3, -16
 762              		.cfi_offset 4, -12
 763              		.cfi_offset 7, -8
ARM GAS  C:\Users\javier\AppData\Local\Temp\ccuiDKAi.s 			page 26


 764              		.cfi_offset 14, -4
 765 0002 00AF     		add	r7, sp, #0
 766              	.LCFI32:
 767              		.cfi_def_cfa_register 7
 660:.\Generated_Source\PSoC5/PSOC4.c ****         return ( ((uint16)PSOC4_ReadRxStatus() << 8u) | PSOC4_ReadRxData() );
 768              		.loc 1 660 0
 769 0004 FFF7FEFF 		bl	PSOC4_ReadRxStatus
 770 0008 0346     		mov	r3, r0
 771 000a 4FEA0323 		lsl	r3, r3, #8
 772 000e 9CB2     		uxth	r4, r3
 773 0010 FFF7FEFF 		bl	PSOC4_ReadRxData
 774 0014 0346     		mov	r3, r0
 775 0016 2246     		mov	r2, r4	@ movhi
 776 0018 1343     		orrs	r3, r3, r2
 777 001a 9BB2     		uxth	r3, r3
 778 001c 9BB2     		uxth	r3, r3
 661:.\Generated_Source\PSoC5/PSOC4.c ****     }
 779              		.loc 1 661 0
 780 001e 1846     		mov	r0, r3
 781 0020 98BD     		pop	{r3, r4, r7, pc}
 782              		.cfi_endproc
 783              	.LFE12:
 784              		.size	PSOC4_GetByte, .-PSOC4_GetByte
 785 0022 00BF     		.section	.text.PSOC4_GetRxBufferSize,"ax",%progbits
 786              		.align	2
 787              		.global	PSOC4_GetRxBufferSize
 788              		.thumb
 789              		.thumb_func
 790              		.type	PSOC4_GetRxBufferSize, %function
 791              	PSOC4_GetRxBufferSize:
 792              	.LFB13:
 662:.\Generated_Source\PSoC5/PSOC4.c **** 
 663:.\Generated_Source\PSoC5/PSOC4.c **** 
 664:.\Generated_Source\PSoC5/PSOC4.c ****     /*******************************************************************************
 665:.\Generated_Source\PSoC5/PSOC4.c ****     * Function Name: PSOC4_GetRxBufferSize
 666:.\Generated_Source\PSoC5/PSOC4.c ****     ********************************************************************************
 667:.\Generated_Source\PSoC5/PSOC4.c ****     *
 668:.\Generated_Source\PSoC5/PSOC4.c ****     * Summary:
 669:.\Generated_Source\PSoC5/PSOC4.c ****     *  Determine the amount of bytes left in the RX buffer and return the count in
 670:.\Generated_Source\PSoC5/PSOC4.c ****     *  bytes
 671:.\Generated_Source\PSoC5/PSOC4.c ****     *
 672:.\Generated_Source\PSoC5/PSOC4.c ****     * Parameters:
 673:.\Generated_Source\PSoC5/PSOC4.c ****     *  None.
 674:.\Generated_Source\PSoC5/PSOC4.c ****     *
 675:.\Generated_Source\PSoC5/PSOC4.c ****     * Return:
 676:.\Generated_Source\PSoC5/PSOC4.c ****     *  uint8: Integer count of the number of bytes left
 677:.\Generated_Source\PSoC5/PSOC4.c ****     *  in the RX buffer
 678:.\Generated_Source\PSoC5/PSOC4.c ****     *
 679:.\Generated_Source\PSoC5/PSOC4.c ****     * Global Variables:
 680:.\Generated_Source\PSoC5/PSOC4.c ****     *  PSOC4_rxBufferWrite - used to calculate left bytes.
 681:.\Generated_Source\PSoC5/PSOC4.c ****     *  PSOC4_rxBufferRead - used to calculate left bytes.
 682:.\Generated_Source\PSoC5/PSOC4.c ****     *  PSOC4_rxBufferLoopDetect - checked to decide left bytes amount.
 683:.\Generated_Source\PSoC5/PSOC4.c ****     *
 684:.\Generated_Source\PSoC5/PSOC4.c ****     * Reentrant:
 685:.\Generated_Source\PSoC5/PSOC4.c ****     *  No.
 686:.\Generated_Source\PSoC5/PSOC4.c ****     *
 687:.\Generated_Source\PSoC5/PSOC4.c ****     * Theory:
ARM GAS  C:\Users\javier\AppData\Local\Temp\ccuiDKAi.s 			page 27


 688:.\Generated_Source\PSoC5/PSOC4.c ****     *  Allows the user to find out how full the RX Buffer is.
 689:.\Generated_Source\PSoC5/PSOC4.c ****     *
 690:.\Generated_Source\PSoC5/PSOC4.c ****     *******************************************************************************/
 691:.\Generated_Source\PSoC5/PSOC4.c ****     uint8 PSOC4_GetRxBufferSize(void)
 692:.\Generated_Source\PSoC5/PSOC4.c ****                                                             
 693:.\Generated_Source\PSoC5/PSOC4.c ****     {
 793              		.loc 1 693 0
 794              		.cfi_startproc
 795              		@ args = 0, pretend = 0, frame = 8
 796              		@ frame_needed = 1, uses_anonymous_args = 0
 797 0000 80B5     		push	{r7, lr}
 798              	.LCFI33:
 799              		.cfi_def_cfa_offset 8
 800              		.cfi_offset 7, -8
 801              		.cfi_offset 14, -4
 802 0002 82B0     		sub	sp, sp, #8
 803              	.LCFI34:
 804              		.cfi_def_cfa_offset 16
 805 0004 00AF     		add	r7, sp, #0
 806              	.LCFI35:
 807              		.cfi_def_cfa_register 7
 694:.\Generated_Source\PSoC5/PSOC4.c ****         uint8 size;
 695:.\Generated_Source\PSoC5/PSOC4.c **** 
 696:.\Generated_Source\PSoC5/PSOC4.c ****         #if(PSOC4_RXBUFFERSIZE > PSOC4_FIFO_LENGTH)
 697:.\Generated_Source\PSoC5/PSOC4.c **** 
 698:.\Generated_Source\PSoC5/PSOC4.c ****             /* Disable Rx interrupt. */
 699:.\Generated_Source\PSoC5/PSOC4.c ****             /* Protect variables that could change on interrupt. */
 700:.\Generated_Source\PSoC5/PSOC4.c ****             #if(PSOC4_RX_INTERRUPT_ENABLED)
 701:.\Generated_Source\PSoC5/PSOC4.c ****                 PSOC4_DisableRxInt();
 808              		.loc 1 701 0
 809 0006 FFF7FEFF 		bl	PSOC4_DisableRxInt
 702:.\Generated_Source\PSoC5/PSOC4.c ****             #endif /* PSOC4_RX_INTERRUPT_ENABLED */
 703:.\Generated_Source\PSoC5/PSOC4.c **** 
 704:.\Generated_Source\PSoC5/PSOC4.c ****             if(PSOC4_rxBufferRead == PSOC4_rxBufferWrite)
 810              		.loc 1 704 0
 811 000a 40F20003 		movw	r3, #:lower16:PSOC4_rxBufferRead
 812 000e C0F20003 		movt	r3, #:upper16:PSOC4_rxBufferRead
 813 0012 1B78     		ldrb	r3, [r3, #0]
 814 0014 DAB2     		uxtb	r2, r3
 815 0016 40F20003 		movw	r3, #:lower16:PSOC4_rxBufferWrite
 816 001a C0F20003 		movt	r3, #:upper16:PSOC4_rxBufferWrite
 817 001e 1B78     		ldrb	r3, [r3, #0]
 818 0020 DBB2     		uxtb	r3, r3
 819 0022 9A42     		cmp	r2, r3
 820 0024 0FD1     		bne	.L32
 705:.\Generated_Source\PSoC5/PSOC4.c ****             {
 706:.\Generated_Source\PSoC5/PSOC4.c ****                 if(PSOC4_rxBufferLoopDetect > 0u)
 821              		.loc 1 706 0
 822 0026 40F20003 		movw	r3, #:lower16:PSOC4_rxBufferLoopDetect
 823 002a C0F20003 		movt	r3, #:upper16:PSOC4_rxBufferLoopDetect
 824 002e 1B78     		ldrb	r3, [r3, #0]
 825 0030 DBB2     		uxtb	r3, r3
 826 0032 002B     		cmp	r3, #0
 827 0034 03D0     		beq	.L33
 707:.\Generated_Source\PSoC5/PSOC4.c ****                 {
 708:.\Generated_Source\PSoC5/PSOC4.c ****                     size = PSOC4_RXBUFFERSIZE;
 828              		.loc 1 708 0
ARM GAS  C:\Users\javier\AppData\Local\Temp\ccuiDKAi.s 			page 28


 829 0036 4FF03203 		mov	r3, #50
 830 003a FB71     		strb	r3, [r7, #7]
 831 003c 31E0     		b	.L34
 832              	.L33:
 709:.\Generated_Source\PSoC5/PSOC4.c ****                 }
 710:.\Generated_Source\PSoC5/PSOC4.c ****                 else
 711:.\Generated_Source\PSoC5/PSOC4.c ****                 {
 712:.\Generated_Source\PSoC5/PSOC4.c ****                     size = 0u;
 833              		.loc 1 712 0
 834 003e 4FF00003 		mov	r3, #0
 835 0042 FB71     		strb	r3, [r7, #7]
 836 0044 2DE0     		b	.L34
 837              	.L32:
 713:.\Generated_Source\PSoC5/PSOC4.c ****                 }
 714:.\Generated_Source\PSoC5/PSOC4.c ****             }
 715:.\Generated_Source\PSoC5/PSOC4.c ****             else if(PSOC4_rxBufferRead < PSOC4_rxBufferWrite)
 838              		.loc 1 715 0
 839 0046 40F20003 		movw	r3, #:lower16:PSOC4_rxBufferRead
 840 004a C0F20003 		movt	r3, #:upper16:PSOC4_rxBufferRead
 841 004e 1B78     		ldrb	r3, [r3, #0]
 842 0050 DAB2     		uxtb	r2, r3
 843 0052 40F20003 		movw	r3, #:lower16:PSOC4_rxBufferWrite
 844 0056 C0F20003 		movt	r3, #:upper16:PSOC4_rxBufferWrite
 845 005a 1B78     		ldrb	r3, [r3, #0]
 846 005c DBB2     		uxtb	r3, r3
 847 005e 9A42     		cmp	r2, r3
 848 0060 0ED2     		bcs	.L35
 716:.\Generated_Source\PSoC5/PSOC4.c ****             {
 717:.\Generated_Source\PSoC5/PSOC4.c ****                 size = (PSOC4_rxBufferWrite - PSOC4_rxBufferRead);
 849              		.loc 1 717 0
 850 0062 40F20003 		movw	r3, #:lower16:PSOC4_rxBufferWrite
 851 0066 C0F20003 		movt	r3, #:upper16:PSOC4_rxBufferWrite
 852 006a 1B78     		ldrb	r3, [r3, #0]
 853 006c DAB2     		uxtb	r2, r3
 854 006e 40F20003 		movw	r3, #:lower16:PSOC4_rxBufferRead
 855 0072 C0F20003 		movt	r3, #:upper16:PSOC4_rxBufferRead
 856 0076 1B78     		ldrb	r3, [r3, #0]
 857 0078 DBB2     		uxtb	r3, r3
 858 007a D31A     		subs	r3, r2, r3
 859 007c FB71     		strb	r3, [r7, #7]
 860 007e 10E0     		b	.L34
 861              	.L35:
 718:.\Generated_Source\PSoC5/PSOC4.c ****             }
 719:.\Generated_Source\PSoC5/PSOC4.c ****             else
 720:.\Generated_Source\PSoC5/PSOC4.c ****             {
 721:.\Generated_Source\PSoC5/PSOC4.c ****                 size = (PSOC4_RXBUFFERSIZE - PSOC4_rxBufferRead) + PSOC4_rxBufferWrite;
 862              		.loc 1 721 0
 863 0080 40F20003 		movw	r3, #:lower16:PSOC4_rxBufferWrite
 864 0084 C0F20003 		movt	r3, #:upper16:PSOC4_rxBufferWrite
 865 0088 1B78     		ldrb	r3, [r3, #0]
 866 008a DAB2     		uxtb	r2, r3
 867 008c 40F20003 		movw	r3, #:lower16:PSOC4_rxBufferRead
 868 0090 C0F20003 		movt	r3, #:upper16:PSOC4_rxBufferRead
 869 0094 1B78     		ldrb	r3, [r3, #0]
 870 0096 DBB2     		uxtb	r3, r3
 871 0098 D31A     		subs	r3, r2, r3
 872 009a DBB2     		uxtb	r3, r3
ARM GAS  C:\Users\javier\AppData\Local\Temp\ccuiDKAi.s 			page 29


 873 009c 03F13203 		add	r3, r3, #50
 874 00a0 FB71     		strb	r3, [r7, #7]
 875              	.L34:
 722:.\Generated_Source\PSoC5/PSOC4.c ****             }
 723:.\Generated_Source\PSoC5/PSOC4.c **** 
 724:.\Generated_Source\PSoC5/PSOC4.c ****             /* Enable Rx interrupt. */
 725:.\Generated_Source\PSoC5/PSOC4.c ****             #if(PSOC4_RX_INTERRUPT_ENABLED)
 726:.\Generated_Source\PSoC5/PSOC4.c ****                 PSOC4_EnableRxInt();
 876              		.loc 1 726 0
 877 00a2 FFF7FEFF 		bl	PSOC4_EnableRxInt
 727:.\Generated_Source\PSoC5/PSOC4.c ****             #endif /* End PSOC4_RX_INTERRUPT_ENABLED */
 728:.\Generated_Source\PSoC5/PSOC4.c **** 
 729:.\Generated_Source\PSoC5/PSOC4.c ****         #else /* PSOC4_RXBUFFERSIZE > PSOC4_FIFO_LENGTH */
 730:.\Generated_Source\PSoC5/PSOC4.c **** 
 731:.\Generated_Source\PSoC5/PSOC4.c ****             /* We can only know if there is data in the fifo. */
 732:.\Generated_Source\PSoC5/PSOC4.c ****             size = ((PSOC4_RXSTATUS_REG & PSOC4_RX_STS_FIFO_NOTEMPTY) != 0u) ? 1u : 0u;
 733:.\Generated_Source\PSoC5/PSOC4.c **** 
 734:.\Generated_Source\PSoC5/PSOC4.c ****         #endif /* End PSOC4_RXBUFFERSIZE > PSOC4_FIFO_LENGTH */
 735:.\Generated_Source\PSoC5/PSOC4.c **** 
 736:.\Generated_Source\PSoC5/PSOC4.c ****         return(size);
 878              		.loc 1 736 0
 879 00a6 FB79     		ldrb	r3, [r7, #7]	@ zero_extendqisi2
 737:.\Generated_Source\PSoC5/PSOC4.c ****     }
 880              		.loc 1 737 0
 881 00a8 1846     		mov	r0, r3
 882 00aa 07F10807 		add	r7, r7, #8
 883 00ae BD46     		mov	sp, r7
 884 00b0 80BD     		pop	{r7, pc}
 885              		.cfi_endproc
 886              	.LFE13:
 887              		.size	PSOC4_GetRxBufferSize, .-PSOC4_GetRxBufferSize
 888 00b2 00BF     		.section	.text.PSOC4_ClearRxBuffer,"ax",%progbits
 889              		.align	2
 890              		.global	PSOC4_ClearRxBuffer
 891              		.thumb
 892              		.thumb_func
 893              		.type	PSOC4_ClearRxBuffer, %function
 894              	PSOC4_ClearRxBuffer:
 895              	.LFB14:
 738:.\Generated_Source\PSoC5/PSOC4.c **** 
 739:.\Generated_Source\PSoC5/PSOC4.c **** 
 740:.\Generated_Source\PSoC5/PSOC4.c ****     /*******************************************************************************
 741:.\Generated_Source\PSoC5/PSOC4.c ****     * Function Name: PSOC4_ClearRxBuffer
 742:.\Generated_Source\PSoC5/PSOC4.c ****     ********************************************************************************
 743:.\Generated_Source\PSoC5/PSOC4.c ****     *
 744:.\Generated_Source\PSoC5/PSOC4.c ****     * Summary:
 745:.\Generated_Source\PSoC5/PSOC4.c ****     *  Clears the RX RAM buffer by setting the read and write pointers both to zero.
 746:.\Generated_Source\PSoC5/PSOC4.c ****     *  Clears hardware RX FIFO.
 747:.\Generated_Source\PSoC5/PSOC4.c ****     *
 748:.\Generated_Source\PSoC5/PSOC4.c ****     * Parameters:
 749:.\Generated_Source\PSoC5/PSOC4.c ****     *  None.
 750:.\Generated_Source\PSoC5/PSOC4.c ****     *
 751:.\Generated_Source\PSoC5/PSOC4.c ****     * Return:
 752:.\Generated_Source\PSoC5/PSOC4.c ****     *  None.
 753:.\Generated_Source\PSoC5/PSOC4.c ****     *
 754:.\Generated_Source\PSoC5/PSOC4.c ****     * Global Variables:
 755:.\Generated_Source\PSoC5/PSOC4.c ****     *  PSOC4_rxBufferWrite - cleared to zero.
ARM GAS  C:\Users\javier\AppData\Local\Temp\ccuiDKAi.s 			page 30


 756:.\Generated_Source\PSoC5/PSOC4.c ****     *  PSOC4_rxBufferRead - cleared to zero.
 757:.\Generated_Source\PSoC5/PSOC4.c ****     *  PSOC4_rxBufferLoopDetect - cleared to zero.
 758:.\Generated_Source\PSoC5/PSOC4.c ****     *  PSOC4_rxBufferOverflow - cleared to zero.
 759:.\Generated_Source\PSoC5/PSOC4.c ****     *
 760:.\Generated_Source\PSoC5/PSOC4.c ****     * Reentrant:
 761:.\Generated_Source\PSoC5/PSOC4.c ****     *  No.
 762:.\Generated_Source\PSoC5/PSOC4.c ****     *
 763:.\Generated_Source\PSoC5/PSOC4.c ****     * Theory:
 764:.\Generated_Source\PSoC5/PSOC4.c ****     *  Setting the pointers to zero makes the system believe there is no data to
 765:.\Generated_Source\PSoC5/PSOC4.c ****     *  read and writing will resume at address 0 overwriting any data that may
 766:.\Generated_Source\PSoC5/PSOC4.c ****     *  have remained in the RAM.
 767:.\Generated_Source\PSoC5/PSOC4.c ****     *
 768:.\Generated_Source\PSoC5/PSOC4.c ****     * Side Effects:
 769:.\Generated_Source\PSoC5/PSOC4.c ****     *  Any received data not read from the RAM or FIFO buffer will be lost.
 770:.\Generated_Source\PSoC5/PSOC4.c ****     *******************************************************************************/
 771:.\Generated_Source\PSoC5/PSOC4.c ****     void PSOC4_ClearRxBuffer(void) 
 772:.\Generated_Source\PSoC5/PSOC4.c ****     {
 896              		.loc 1 772 0
 897              		.cfi_startproc
 898              		@ args = 0, pretend = 0, frame = 8
 899              		@ frame_needed = 1, uses_anonymous_args = 0
 900 0000 80B5     		push	{r7, lr}
 901              	.LCFI36:
 902              		.cfi_def_cfa_offset 8
 903              		.cfi_offset 7, -8
 904              		.cfi_offset 14, -4
 905 0002 82B0     		sub	sp, sp, #8
 906              	.LCFI37:
 907              		.cfi_def_cfa_offset 16
 908 0004 00AF     		add	r7, sp, #0
 909              	.LCFI38:
 910              		.cfi_def_cfa_register 7
 773:.\Generated_Source\PSoC5/PSOC4.c ****         uint8 enableInterrupts;
 774:.\Generated_Source\PSoC5/PSOC4.c **** 
 775:.\Generated_Source\PSoC5/PSOC4.c ****         /* clear the HW FIFO */
 776:.\Generated_Source\PSoC5/PSOC4.c ****         /* Enter critical section */
 777:.\Generated_Source\PSoC5/PSOC4.c ****         enableInterrupts = CyEnterCriticalSection();
 911              		.loc 1 777 0
 912 0006 FFF7FEFF 		bl	CyEnterCriticalSection
 913 000a 0346     		mov	r3, r0
 914 000c FB71     		strb	r3, [r7, #7]
 778:.\Generated_Source\PSoC5/PSOC4.c ****         PSOC4_RXDATA_AUX_CTL_REG |=  PSOC4_RX_FIFO_CLR;
 915              		.loc 1 778 0
 916 000e 46F29753 		movw	r3, #26007
 917 0012 C4F20003 		movt	r3, 16384
 918 0016 46F29752 		movw	r2, #26007
 919 001a C4F20002 		movt	r2, 16384
 920 001e 1278     		ldrb	r2, [r2, #0]
 921 0020 D2B2     		uxtb	r2, r2
 922 0022 42F00102 		orr	r2, r2, #1
 923 0026 D2B2     		uxtb	r2, r2
 924 0028 1A70     		strb	r2, [r3, #0]
 779:.\Generated_Source\PSoC5/PSOC4.c ****         PSOC4_RXDATA_AUX_CTL_REG &= (uint8)~PSOC4_RX_FIFO_CLR;
 925              		.loc 1 779 0
 926 002a 46F29753 		movw	r3, #26007
 927 002e C4F20003 		movt	r3, 16384
 928 0032 46F29752 		movw	r2, #26007
ARM GAS  C:\Users\javier\AppData\Local\Temp\ccuiDKAi.s 			page 31


 929 0036 C4F20002 		movt	r2, 16384
 930 003a 1278     		ldrb	r2, [r2, #0]
 931 003c D2B2     		uxtb	r2, r2
 932 003e 22F00102 		bic	r2, r2, #1
 933 0042 D2B2     		uxtb	r2, r2
 934 0044 1A70     		strb	r2, [r3, #0]
 780:.\Generated_Source\PSoC5/PSOC4.c ****         /* Exit critical section */
 781:.\Generated_Source\PSoC5/PSOC4.c ****         CyExitCriticalSection(enableInterrupts);
 935              		.loc 1 781 0
 936 0046 FB79     		ldrb	r3, [r7, #7]	@ zero_extendqisi2
 937 0048 1846     		mov	r0, r3
 938 004a FFF7FEFF 		bl	CyExitCriticalSection
 782:.\Generated_Source\PSoC5/PSOC4.c **** 
 783:.\Generated_Source\PSoC5/PSOC4.c ****         #if(PSOC4_RXBUFFERSIZE > PSOC4_FIFO_LENGTH)
 784:.\Generated_Source\PSoC5/PSOC4.c ****             /* Disable Rx interrupt. */
 785:.\Generated_Source\PSoC5/PSOC4.c ****             /* Protect variables that could change on interrupt. */
 786:.\Generated_Source\PSoC5/PSOC4.c ****             #if(PSOC4_RX_INTERRUPT_ENABLED)
 787:.\Generated_Source\PSoC5/PSOC4.c ****                 PSOC4_DisableRxInt();
 939              		.loc 1 787 0
 940 004e FFF7FEFF 		bl	PSOC4_DisableRxInt
 788:.\Generated_Source\PSoC5/PSOC4.c ****             #endif /* End PSOC4_RX_INTERRUPT_ENABLED */
 789:.\Generated_Source\PSoC5/PSOC4.c **** 
 790:.\Generated_Source\PSoC5/PSOC4.c ****             PSOC4_rxBufferRead = 0u;
 941              		.loc 1 790 0
 942 0052 40F20003 		movw	r3, #:lower16:PSOC4_rxBufferRead
 943 0056 C0F20003 		movt	r3, #:upper16:PSOC4_rxBufferRead
 944 005a 4FF00002 		mov	r2, #0
 945 005e 1A70     		strb	r2, [r3, #0]
 791:.\Generated_Source\PSoC5/PSOC4.c ****             PSOC4_rxBufferWrite = 0u;
 946              		.loc 1 791 0
 947 0060 40F20003 		movw	r3, #:lower16:PSOC4_rxBufferWrite
 948 0064 C0F20003 		movt	r3, #:upper16:PSOC4_rxBufferWrite
 949 0068 4FF00002 		mov	r2, #0
 950 006c 1A70     		strb	r2, [r3, #0]
 792:.\Generated_Source\PSoC5/PSOC4.c ****             PSOC4_rxBufferLoopDetect = 0u;
 951              		.loc 1 792 0
 952 006e 40F20003 		movw	r3, #:lower16:PSOC4_rxBufferLoopDetect
 953 0072 C0F20003 		movt	r3, #:upper16:PSOC4_rxBufferLoopDetect
 954 0076 4FF00002 		mov	r2, #0
 955 007a 1A70     		strb	r2, [r3, #0]
 793:.\Generated_Source\PSoC5/PSOC4.c ****             PSOC4_rxBufferOverflow = 0u;
 956              		.loc 1 793 0
 957 007c 40F20003 		movw	r3, #:lower16:PSOC4_rxBufferOverflow
 958 0080 C0F20003 		movt	r3, #:upper16:PSOC4_rxBufferOverflow
 959 0084 4FF00002 		mov	r2, #0
 960 0088 1A70     		strb	r2, [r3, #0]
 794:.\Generated_Source\PSoC5/PSOC4.c **** 
 795:.\Generated_Source\PSoC5/PSOC4.c ****             /* Enable Rx interrupt. */
 796:.\Generated_Source\PSoC5/PSOC4.c ****             #if(PSOC4_RX_INTERRUPT_ENABLED)
 797:.\Generated_Source\PSoC5/PSOC4.c ****                 PSOC4_EnableRxInt();
 961              		.loc 1 797 0
 962 008a FFF7FEFF 		bl	PSOC4_EnableRxInt
 798:.\Generated_Source\PSoC5/PSOC4.c ****             #endif /* End PSOC4_RX_INTERRUPT_ENABLED */
 799:.\Generated_Source\PSoC5/PSOC4.c ****         #endif /* End PSOC4_RXBUFFERSIZE > PSOC4_FIFO_LENGTH */
 800:.\Generated_Source\PSoC5/PSOC4.c **** 
 801:.\Generated_Source\PSoC5/PSOC4.c ****     }
 963              		.loc 1 801 0
ARM GAS  C:\Users\javier\AppData\Local\Temp\ccuiDKAi.s 			page 32


 964 008e 07F10807 		add	r7, r7, #8
 965 0092 BD46     		mov	sp, r7
 966 0094 80BD     		pop	{r7, pc}
 967              		.cfi_endproc
 968              	.LFE14:
 969              		.size	PSOC4_ClearRxBuffer, .-PSOC4_ClearRxBuffer
 970 0096 00BF     		.section	.text.PSOC4_SetRxAddressMode,"ax",%progbits
 971              		.align	2
 972              		.global	PSOC4_SetRxAddressMode
 973              		.thumb
 974              		.thumb_func
 975              		.type	PSOC4_SetRxAddressMode, %function
 976              	PSOC4_SetRxAddressMode:
 977              	.LFB15:
 802:.\Generated_Source\PSoC5/PSOC4.c **** 
 803:.\Generated_Source\PSoC5/PSOC4.c **** 
 804:.\Generated_Source\PSoC5/PSOC4.c ****     /*******************************************************************************
 805:.\Generated_Source\PSoC5/PSOC4.c ****     * Function Name: PSOC4_SetRxAddressMode
 806:.\Generated_Source\PSoC5/PSOC4.c ****     ********************************************************************************
 807:.\Generated_Source\PSoC5/PSOC4.c ****     *
 808:.\Generated_Source\PSoC5/PSOC4.c ****     * Summary:
 809:.\Generated_Source\PSoC5/PSOC4.c ****     *  Set the receive addressing mode
 810:.\Generated_Source\PSoC5/PSOC4.c ****     *
 811:.\Generated_Source\PSoC5/PSOC4.c ****     * Parameters:
 812:.\Generated_Source\PSoC5/PSOC4.c ****     *  addressMode: Enumerated value indicating the mode of RX addressing
 813:.\Generated_Source\PSoC5/PSOC4.c ****     *  PSOC4__B_UART__AM_SW_BYTE_BYTE -  Software Byte-by-Byte address
 814:.\Generated_Source\PSoC5/PSOC4.c ****     *                                               detection
 815:.\Generated_Source\PSoC5/PSOC4.c ****     *  PSOC4__B_UART__AM_SW_DETECT_TO_BUFFER - Software Detect to Buffer
 816:.\Generated_Source\PSoC5/PSOC4.c ****     *                                               address detection
 817:.\Generated_Source\PSoC5/PSOC4.c ****     *  PSOC4__B_UART__AM_HW_BYTE_BY_BYTE - Hardware Byte-by-Byte address
 818:.\Generated_Source\PSoC5/PSOC4.c ****     *                                               detection
 819:.\Generated_Source\PSoC5/PSOC4.c ****     *  PSOC4__B_UART__AM_HW_DETECT_TO_BUFFER - Hardware Detect to Buffer
 820:.\Generated_Source\PSoC5/PSOC4.c ****     *                                               address detection
 821:.\Generated_Source\PSoC5/PSOC4.c ****     *  PSOC4__B_UART__AM_NONE - No address detection
 822:.\Generated_Source\PSoC5/PSOC4.c ****     *
 823:.\Generated_Source\PSoC5/PSOC4.c ****     * Return:
 824:.\Generated_Source\PSoC5/PSOC4.c ****     *  None.
 825:.\Generated_Source\PSoC5/PSOC4.c ****     *
 826:.\Generated_Source\PSoC5/PSOC4.c ****     * Global Variables:
 827:.\Generated_Source\PSoC5/PSOC4.c ****     *  PSOC4_rxAddressMode - the parameter stored in this variable for
 828:.\Generated_Source\PSoC5/PSOC4.c ****     *   the farther usage in RX ISR.
 829:.\Generated_Source\PSoC5/PSOC4.c ****     *  PSOC4_rxAddressDetected - set to initial state (0).
 830:.\Generated_Source\PSoC5/PSOC4.c ****     *
 831:.\Generated_Source\PSoC5/PSOC4.c ****     *******************************************************************************/
 832:.\Generated_Source\PSoC5/PSOC4.c ****     void PSOC4_SetRxAddressMode(uint8 addressMode)
 833:.\Generated_Source\PSoC5/PSOC4.c ****                                                         
 834:.\Generated_Source\PSoC5/PSOC4.c ****     {
 978              		.loc 1 834 0
 979              		.cfi_startproc
 980              		@ args = 0, pretend = 0, frame = 8
 981              		@ frame_needed = 1, uses_anonymous_args = 0
 982              		@ link register save eliminated.
 983 0000 80B4     		push	{r7}
 984              	.LCFI39:
 985              		.cfi_def_cfa_offset 4
 986              		.cfi_offset 7, -4
 987 0002 83B0     		sub	sp, sp, #12
ARM GAS  C:\Users\javier\AppData\Local\Temp\ccuiDKAi.s 			page 33


 988              	.LCFI40:
 989              		.cfi_def_cfa_offset 16
 990 0004 00AF     		add	r7, sp, #0
 991              	.LCFI41:
 992              		.cfi_def_cfa_register 7
 993 0006 0346     		mov	r3, r0
 994 0008 FB71     		strb	r3, [r7, #7]
 835:.\Generated_Source\PSoC5/PSOC4.c ****         #if(PSOC4_RXHW_ADDRESS_ENABLED)
 836:.\Generated_Source\PSoC5/PSOC4.c ****             #if(PSOC4_CONTROL_REG_REMOVED)
 837:.\Generated_Source\PSoC5/PSOC4.c ****                 if(addressMode != 0u) { }     /* release compiler warning */
 838:.\Generated_Source\PSoC5/PSOC4.c ****             #else /* PSOC4_CONTROL_REG_REMOVED */
 839:.\Generated_Source\PSoC5/PSOC4.c ****                 uint8 tmpCtrl;
 840:.\Generated_Source\PSoC5/PSOC4.c ****                 tmpCtrl = PSOC4_CONTROL_REG & (uint8)~PSOC4_CTRL_RXADDR_MODE_MASK;
 841:.\Generated_Source\PSoC5/PSOC4.c ****                 tmpCtrl |= (uint8)(addressMode << PSOC4_CTRL_RXADDR_MODE0_SHIFT);
 842:.\Generated_Source\PSoC5/PSOC4.c ****                 PSOC4_CONTROL_REG = tmpCtrl;
 843:.\Generated_Source\PSoC5/PSOC4.c ****                 #if(PSOC4_RX_INTERRUPT_ENABLED && \
 844:.\Generated_Source\PSoC5/PSOC4.c ****                    (PSOC4_RXBUFFERSIZE > PSOC4_FIFO_LENGTH) )
 845:.\Generated_Source\PSoC5/PSOC4.c ****                     PSOC4_rxAddressMode = addressMode;
 846:.\Generated_Source\PSoC5/PSOC4.c ****                     PSOC4_rxAddressDetected = 0u;
 847:.\Generated_Source\PSoC5/PSOC4.c ****                 #endif /* End PSOC4_RXBUFFERSIZE > PSOC4_FIFO_LENGTH*/
 848:.\Generated_Source\PSoC5/PSOC4.c ****             #endif /* End PSOC4_CONTROL_REG_REMOVED */
 849:.\Generated_Source\PSoC5/PSOC4.c ****         #else /* PSOC4_RXHW_ADDRESS_ENABLED */
 850:.\Generated_Source\PSoC5/PSOC4.c ****             if(addressMode != 0u) { }     /* release compiler warning */
 851:.\Generated_Source\PSoC5/PSOC4.c ****         #endif /* End PSOC4_RXHW_ADDRESS_ENABLED */
 852:.\Generated_Source\PSoC5/PSOC4.c ****     }
 995              		.loc 1 852 0
 996 000a 07F10C07 		add	r7, r7, #12
 997 000e BD46     		mov	sp, r7
 998 0010 80BC     		pop	{r7}
 999 0012 7047     		bx	lr
 1000              		.cfi_endproc
 1001              	.LFE15:
 1002              		.size	PSOC4_SetRxAddressMode, .-PSOC4_SetRxAddressMode
 1003              		.section	.text.PSOC4_SetRxAddress1,"ax",%progbits
 1004              		.align	2
 1005              		.global	PSOC4_SetRxAddress1
 1006              		.thumb
 1007              		.thumb_func
 1008              		.type	PSOC4_SetRxAddress1, %function
 1009              	PSOC4_SetRxAddress1:
 1010              	.LFB16:
 853:.\Generated_Source\PSoC5/PSOC4.c **** 
 854:.\Generated_Source\PSoC5/PSOC4.c **** 
 855:.\Generated_Source\PSoC5/PSOC4.c ****     /*******************************************************************************
 856:.\Generated_Source\PSoC5/PSOC4.c ****     * Function Name: PSOC4_SetRxAddress1
 857:.\Generated_Source\PSoC5/PSOC4.c ****     ********************************************************************************
 858:.\Generated_Source\PSoC5/PSOC4.c ****     *
 859:.\Generated_Source\PSoC5/PSOC4.c ****     * Summary:
 860:.\Generated_Source\PSoC5/PSOC4.c ****     *  Set the first hardware address compare value
 861:.\Generated_Source\PSoC5/PSOC4.c ****     *
 862:.\Generated_Source\PSoC5/PSOC4.c ****     * Parameters:
 863:.\Generated_Source\PSoC5/PSOC4.c ****     *  address
 864:.\Generated_Source\PSoC5/PSOC4.c ****     *
 865:.\Generated_Source\PSoC5/PSOC4.c ****     * Return:
 866:.\Generated_Source\PSoC5/PSOC4.c ****     *  None.
 867:.\Generated_Source\PSoC5/PSOC4.c ****     *
 868:.\Generated_Source\PSoC5/PSOC4.c ****     *******************************************************************************/
ARM GAS  C:\Users\javier\AppData\Local\Temp\ccuiDKAi.s 			page 34


 869:.\Generated_Source\PSoC5/PSOC4.c ****     void PSOC4_SetRxAddress1(uint8 address) 
 870:.\Generated_Source\PSoC5/PSOC4.c **** 
 871:.\Generated_Source\PSoC5/PSOC4.c ****     {
 1011              		.loc 1 871 0
 1012              		.cfi_startproc
 1013              		@ args = 0, pretend = 0, frame = 8
 1014              		@ frame_needed = 1, uses_anonymous_args = 0
 1015              		@ link register save eliminated.
 1016 0000 80B4     		push	{r7}
 1017              	.LCFI42:
 1018              		.cfi_def_cfa_offset 4
 1019              		.cfi_offset 7, -4
 1020 0002 83B0     		sub	sp, sp, #12
 1021              	.LCFI43:
 1022              		.cfi_def_cfa_offset 16
 1023 0004 00AF     		add	r7, sp, #0
 1024              	.LCFI44:
 1025              		.cfi_def_cfa_register 7
 1026 0006 0346     		mov	r3, r0
 1027 0008 FB71     		strb	r3, [r7, #7]
 872:.\Generated_Source\PSoC5/PSOC4.c ****         PSOC4_RXADDRESS1_REG = address;
 1028              		.loc 1 872 0
 1029 000a 46F22753 		movw	r3, #25895
 1030 000e C4F20003 		movt	r3, 16384
 1031 0012 FA79     		ldrb	r2, [r7, #7]
 1032 0014 1A70     		strb	r2, [r3, #0]
 873:.\Generated_Source\PSoC5/PSOC4.c ****     }
 1033              		.loc 1 873 0
 1034 0016 07F10C07 		add	r7, r7, #12
 1035 001a BD46     		mov	sp, r7
 1036 001c 80BC     		pop	{r7}
 1037 001e 7047     		bx	lr
 1038              		.cfi_endproc
 1039              	.LFE16:
 1040              		.size	PSOC4_SetRxAddress1, .-PSOC4_SetRxAddress1
 1041              		.section	.text.PSOC4_SetRxAddress2,"ax",%progbits
 1042              		.align	2
 1043              		.global	PSOC4_SetRxAddress2
 1044              		.thumb
 1045              		.thumb_func
 1046              		.type	PSOC4_SetRxAddress2, %function
 1047              	PSOC4_SetRxAddress2:
 1048              	.LFB17:
 874:.\Generated_Source\PSoC5/PSOC4.c **** 
 875:.\Generated_Source\PSoC5/PSOC4.c **** 
 876:.\Generated_Source\PSoC5/PSOC4.c ****     /*******************************************************************************
 877:.\Generated_Source\PSoC5/PSOC4.c ****     * Function Name: PSOC4_SetRxAddress2
 878:.\Generated_Source\PSoC5/PSOC4.c ****     ********************************************************************************
 879:.\Generated_Source\PSoC5/PSOC4.c ****     *
 880:.\Generated_Source\PSoC5/PSOC4.c ****     * Summary:
 881:.\Generated_Source\PSoC5/PSOC4.c ****     *  Set the second hardware address compare value
 882:.\Generated_Source\PSoC5/PSOC4.c ****     *
 883:.\Generated_Source\PSoC5/PSOC4.c ****     * Parameters:
 884:.\Generated_Source\PSoC5/PSOC4.c ****     *  address
 885:.\Generated_Source\PSoC5/PSOC4.c ****     *
 886:.\Generated_Source\PSoC5/PSOC4.c ****     * Return:
 887:.\Generated_Source\PSoC5/PSOC4.c ****     *  None.
ARM GAS  C:\Users\javier\AppData\Local\Temp\ccuiDKAi.s 			page 35


 888:.\Generated_Source\PSoC5/PSOC4.c ****     *
 889:.\Generated_Source\PSoC5/PSOC4.c ****     *******************************************************************************/
 890:.\Generated_Source\PSoC5/PSOC4.c ****     void PSOC4_SetRxAddress2(uint8 address) 
 891:.\Generated_Source\PSoC5/PSOC4.c ****     {
 1049              		.loc 1 891 0
 1050              		.cfi_startproc
 1051              		@ args = 0, pretend = 0, frame = 8
 1052              		@ frame_needed = 1, uses_anonymous_args = 0
 1053              		@ link register save eliminated.
 1054 0000 80B4     		push	{r7}
 1055              	.LCFI45:
 1056              		.cfi_def_cfa_offset 4
 1057              		.cfi_offset 7, -4
 1058 0002 83B0     		sub	sp, sp, #12
 1059              	.LCFI46:
 1060              		.cfi_def_cfa_offset 16
 1061 0004 00AF     		add	r7, sp, #0
 1062              	.LCFI47:
 1063              		.cfi_def_cfa_register 7
 1064 0006 0346     		mov	r3, r0
 1065 0008 FB71     		strb	r3, [r7, #7]
 892:.\Generated_Source\PSoC5/PSOC4.c ****         PSOC4_RXADDRESS2_REG = address;
 1066              		.loc 1 892 0
 1067 000a 46F23753 		movw	r3, #25911
 1068 000e C4F20003 		movt	r3, 16384
 1069 0012 FA79     		ldrb	r2, [r7, #7]
 1070 0014 1A70     		strb	r2, [r3, #0]
 893:.\Generated_Source\PSoC5/PSOC4.c ****     }
 1071              		.loc 1 893 0
 1072 0016 07F10C07 		add	r7, r7, #12
 1073 001a BD46     		mov	sp, r7
 1074 001c 80BC     		pop	{r7}
 1075 001e 7047     		bx	lr
 1076              		.cfi_endproc
 1077              	.LFE17:
 1078              		.size	PSOC4_SetRxAddress2, .-PSOC4_SetRxAddress2
 1079              		.section	.text.PSOC4_SetTxInterruptMode,"ax",%progbits
 1080              		.align	2
 1081              		.global	PSOC4_SetTxInterruptMode
 1082              		.thumb
 1083              		.thumb_func
 1084              		.type	PSOC4_SetTxInterruptMode, %function
 1085              	PSOC4_SetTxInterruptMode:
 1086              	.LFB18:
 894:.\Generated_Source\PSoC5/PSOC4.c **** 
 895:.\Generated_Source\PSoC5/PSOC4.c **** #endif  /* PSOC4_RX_ENABLED || PSOC4_HD_ENABLED*/
 896:.\Generated_Source\PSoC5/PSOC4.c **** 
 897:.\Generated_Source\PSoC5/PSOC4.c **** 
 898:.\Generated_Source\PSoC5/PSOC4.c **** #if( (PSOC4_TX_ENABLED) || (PSOC4_HD_ENABLED) )
 899:.\Generated_Source\PSoC5/PSOC4.c **** 
 900:.\Generated_Source\PSoC5/PSOC4.c ****     #if(PSOC4_TX_INTERRUPT_ENABLED)
 901:.\Generated_Source\PSoC5/PSOC4.c **** 
 902:.\Generated_Source\PSoC5/PSOC4.c ****         /*******************************************************************************
 903:.\Generated_Source\PSoC5/PSOC4.c ****         * Function Name: PSOC4_EnableTxInt
 904:.\Generated_Source\PSoC5/PSOC4.c ****         ********************************************************************************
 905:.\Generated_Source\PSoC5/PSOC4.c ****         *
 906:.\Generated_Source\PSoC5/PSOC4.c ****         * Summary:
ARM GAS  C:\Users\javier\AppData\Local\Temp\ccuiDKAi.s 			page 36


 907:.\Generated_Source\PSoC5/PSOC4.c ****         *  Enable TX interrupt generation
 908:.\Generated_Source\PSoC5/PSOC4.c ****         *
 909:.\Generated_Source\PSoC5/PSOC4.c ****         * Parameters:
 910:.\Generated_Source\PSoC5/PSOC4.c ****         *  None.
 911:.\Generated_Source\PSoC5/PSOC4.c ****         *
 912:.\Generated_Source\PSoC5/PSOC4.c ****         * Return:
 913:.\Generated_Source\PSoC5/PSOC4.c ****         *  None.
 914:.\Generated_Source\PSoC5/PSOC4.c ****         *
 915:.\Generated_Source\PSoC5/PSOC4.c ****         * Theory:
 916:.\Generated_Source\PSoC5/PSOC4.c ****         *  Enable the interrupt output -or- the interrupt component itself
 917:.\Generated_Source\PSoC5/PSOC4.c ****         *
 918:.\Generated_Source\PSoC5/PSOC4.c ****         *******************************************************************************/
 919:.\Generated_Source\PSoC5/PSOC4.c ****         void PSOC4_EnableTxInt(void) 
 920:.\Generated_Source\PSoC5/PSOC4.c ****         {
 921:.\Generated_Source\PSoC5/PSOC4.c ****             CyIntEnable(PSOC4_TX_VECT_NUM);
 922:.\Generated_Source\PSoC5/PSOC4.c ****         }
 923:.\Generated_Source\PSoC5/PSOC4.c **** 
 924:.\Generated_Source\PSoC5/PSOC4.c **** 
 925:.\Generated_Source\PSoC5/PSOC4.c ****         /*******************************************************************************
 926:.\Generated_Source\PSoC5/PSOC4.c ****         * Function Name: PSOC4_DisableTxInt
 927:.\Generated_Source\PSoC5/PSOC4.c ****         ********************************************************************************
 928:.\Generated_Source\PSoC5/PSOC4.c ****         *
 929:.\Generated_Source\PSoC5/PSOC4.c ****         * Summary:
 930:.\Generated_Source\PSoC5/PSOC4.c ****         *  Disable TX interrupt generation
 931:.\Generated_Source\PSoC5/PSOC4.c ****         *
 932:.\Generated_Source\PSoC5/PSOC4.c ****         * Parameters:
 933:.\Generated_Source\PSoC5/PSOC4.c ****         *  None.
 934:.\Generated_Source\PSoC5/PSOC4.c ****         *
 935:.\Generated_Source\PSoC5/PSOC4.c ****         * Return:
 936:.\Generated_Source\PSoC5/PSOC4.c ****         *  None.
 937:.\Generated_Source\PSoC5/PSOC4.c ****         *
 938:.\Generated_Source\PSoC5/PSOC4.c ****         * Theory:
 939:.\Generated_Source\PSoC5/PSOC4.c ****         *  Disable the interrupt output -or- the interrupt component itself
 940:.\Generated_Source\PSoC5/PSOC4.c ****         *
 941:.\Generated_Source\PSoC5/PSOC4.c ****         *******************************************************************************/
 942:.\Generated_Source\PSoC5/PSOC4.c ****         void PSOC4_DisableTxInt(void) 
 943:.\Generated_Source\PSoC5/PSOC4.c ****         {
 944:.\Generated_Source\PSoC5/PSOC4.c ****             CyIntDisable(PSOC4_TX_VECT_NUM);
 945:.\Generated_Source\PSoC5/PSOC4.c ****         }
 946:.\Generated_Source\PSoC5/PSOC4.c **** 
 947:.\Generated_Source\PSoC5/PSOC4.c ****     #endif /* PSOC4_TX_INTERRUPT_ENABLED */
 948:.\Generated_Source\PSoC5/PSOC4.c **** 
 949:.\Generated_Source\PSoC5/PSOC4.c **** 
 950:.\Generated_Source\PSoC5/PSOC4.c ****     /*******************************************************************************
 951:.\Generated_Source\PSoC5/PSOC4.c ****     * Function Name: PSOC4_SetTxInterruptMode
 952:.\Generated_Source\PSoC5/PSOC4.c ****     ********************************************************************************
 953:.\Generated_Source\PSoC5/PSOC4.c ****     *
 954:.\Generated_Source\PSoC5/PSOC4.c ****     * Summary:
 955:.\Generated_Source\PSoC5/PSOC4.c ****     *  Configure which status bits trigger an interrupt event
 956:.\Generated_Source\PSoC5/PSOC4.c ****     *
 957:.\Generated_Source\PSoC5/PSOC4.c ****     * Parameters:
 958:.\Generated_Source\PSoC5/PSOC4.c ****     *  intSrc: An or'd combination of the desired status bit masks (defined in
 959:.\Generated_Source\PSoC5/PSOC4.c ****     *          the header file)
 960:.\Generated_Source\PSoC5/PSOC4.c ****     *
 961:.\Generated_Source\PSoC5/PSOC4.c ****     * Return:
 962:.\Generated_Source\PSoC5/PSOC4.c ****     *  None.
 963:.\Generated_Source\PSoC5/PSOC4.c ****     *
ARM GAS  C:\Users\javier\AppData\Local\Temp\ccuiDKAi.s 			page 37


 964:.\Generated_Source\PSoC5/PSOC4.c ****     * Theory:
 965:.\Generated_Source\PSoC5/PSOC4.c ****     *  Enables the output of specific status bits to the interrupt controller
 966:.\Generated_Source\PSoC5/PSOC4.c ****     *
 967:.\Generated_Source\PSoC5/PSOC4.c ****     *******************************************************************************/
 968:.\Generated_Source\PSoC5/PSOC4.c ****     void PSOC4_SetTxInterruptMode(uint8 intSrc) 
 969:.\Generated_Source\PSoC5/PSOC4.c ****     {
 1087              		.loc 1 969 0
 1088              		.cfi_startproc
 1089              		@ args = 0, pretend = 0, frame = 8
 1090              		@ frame_needed = 1, uses_anonymous_args = 0
 1091              		@ link register save eliminated.
 1092 0000 80B4     		push	{r7}
 1093              	.LCFI48:
 1094              		.cfi_def_cfa_offset 4
 1095              		.cfi_offset 7, -4
 1096 0002 83B0     		sub	sp, sp, #12
 1097              	.LCFI49:
 1098              		.cfi_def_cfa_offset 16
 1099 0004 00AF     		add	r7, sp, #0
 1100              	.LCFI50:
 1101              		.cfi_def_cfa_register 7
 1102 0006 0346     		mov	r3, r0
 1103 0008 FB71     		strb	r3, [r7, #7]
 970:.\Generated_Source\PSoC5/PSOC4.c ****         PSOC4_TXSTATUS_MASK_REG = intSrc;
 1104              		.loc 1 970 0
 1105 000a 46F28443 		movw	r3, #25732
 1106 000e C4F20003 		movt	r3, 16384
 1107 0012 FA79     		ldrb	r2, [r7, #7]
 1108 0014 1A70     		strb	r2, [r3, #0]
 971:.\Generated_Source\PSoC5/PSOC4.c ****     }
 1109              		.loc 1 971 0
 1110 0016 07F10C07 		add	r7, r7, #12
 1111 001a BD46     		mov	sp, r7
 1112 001c 80BC     		pop	{r7}
 1113 001e 7047     		bx	lr
 1114              		.cfi_endproc
 1115              	.LFE18:
 1116              		.size	PSOC4_SetTxInterruptMode, .-PSOC4_SetTxInterruptMode
 1117              		.section	.text.PSOC4_WriteTxData,"ax",%progbits
 1118              		.align	2
 1119              		.global	PSOC4_WriteTxData
 1120              		.thumb
 1121              		.thumb_func
 1122              		.type	PSOC4_WriteTxData, %function
 1123              	PSOC4_WriteTxData:
 1124              	.LFB19:
 972:.\Generated_Source\PSoC5/PSOC4.c **** 
 973:.\Generated_Source\PSoC5/PSOC4.c **** 
 974:.\Generated_Source\PSoC5/PSOC4.c ****     /*******************************************************************************
 975:.\Generated_Source\PSoC5/PSOC4.c ****     * Function Name: PSOC4_WriteTxData
 976:.\Generated_Source\PSoC5/PSOC4.c ****     ********************************************************************************
 977:.\Generated_Source\PSoC5/PSOC4.c ****     *
 978:.\Generated_Source\PSoC5/PSOC4.c ****     * Summary:
 979:.\Generated_Source\PSoC5/PSOC4.c ****     *  Write a byte of data to the Transmit FIFO or TX buffer to be sent when the
 980:.\Generated_Source\PSoC5/PSOC4.c ****     *  bus is available. WriteTxData sends a byte without checking for buffer room
 981:.\Generated_Source\PSoC5/PSOC4.c ****     *  or status. It is up to the user to separately check status.
 982:.\Generated_Source\PSoC5/PSOC4.c ****     *
ARM GAS  C:\Users\javier\AppData\Local\Temp\ccuiDKAi.s 			page 38


 983:.\Generated_Source\PSoC5/PSOC4.c ****     * Parameters:
 984:.\Generated_Source\PSoC5/PSOC4.c ****     *  TXDataByte: byte of data to place in the transmit FIFO
 985:.\Generated_Source\PSoC5/PSOC4.c ****     *
 986:.\Generated_Source\PSoC5/PSOC4.c ****     * Return:
 987:.\Generated_Source\PSoC5/PSOC4.c ****     * void
 988:.\Generated_Source\PSoC5/PSOC4.c ****     *
 989:.\Generated_Source\PSoC5/PSOC4.c ****     * Global Variables:
 990:.\Generated_Source\PSoC5/PSOC4.c ****     *  PSOC4_txBuffer - RAM buffer pointer for save data for transmission
 991:.\Generated_Source\PSoC5/PSOC4.c ****     *  PSOC4_txBufferWrite - cyclic index for write to txBuffer,
 992:.\Generated_Source\PSoC5/PSOC4.c ****     *    incremented after each byte saved to buffer.
 993:.\Generated_Source\PSoC5/PSOC4.c ****     *  PSOC4_txBufferRead - cyclic index for read from txBuffer,
 994:.\Generated_Source\PSoC5/PSOC4.c ****     *    checked to identify the condition to write to FIFO directly or to TX buffer
 995:.\Generated_Source\PSoC5/PSOC4.c ****     *  PSOC4_initVar - checked to identify that the component has been
 996:.\Generated_Source\PSoC5/PSOC4.c ****     *    initialized.
 997:.\Generated_Source\PSoC5/PSOC4.c ****     *
 998:.\Generated_Source\PSoC5/PSOC4.c ****     * Reentrant:
 999:.\Generated_Source\PSoC5/PSOC4.c ****     *  No.
1000:.\Generated_Source\PSoC5/PSOC4.c ****     *
1001:.\Generated_Source\PSoC5/PSOC4.c ****     *******************************************************************************/
1002:.\Generated_Source\PSoC5/PSOC4.c ****     void PSOC4_WriteTxData(uint8 txDataByte) 
1003:.\Generated_Source\PSoC5/PSOC4.c ****     {
 1125              		.loc 1 1003 0
 1126              		.cfi_startproc
 1127              		@ args = 0, pretend = 0, frame = 8
 1128              		@ frame_needed = 1, uses_anonymous_args = 0
 1129              		@ link register save eliminated.
 1130 0000 80B4     		push	{r7}
 1131              	.LCFI51:
 1132              		.cfi_def_cfa_offset 4
 1133              		.cfi_offset 7, -4
 1134 0002 83B0     		sub	sp, sp, #12
 1135              	.LCFI52:
 1136              		.cfi_def_cfa_offset 16
 1137 0004 00AF     		add	r7, sp, #0
 1138              	.LCFI53:
 1139              		.cfi_def_cfa_register 7
 1140 0006 0346     		mov	r3, r0
 1141 0008 FB71     		strb	r3, [r7, #7]
1004:.\Generated_Source\PSoC5/PSOC4.c ****         /* If not Initialized then skip this function*/
1005:.\Generated_Source\PSoC5/PSOC4.c ****         if(PSOC4_initVar != 0u)
 1142              		.loc 1 1005 0
 1143 000a 40F20003 		movw	r3, #:lower16:PSOC4_initVar
 1144 000e C0F20003 		movt	r3, #:upper16:PSOC4_initVar
 1145 0012 1B78     		ldrb	r3, [r3, #0]	@ zero_extendqisi2
 1146 0014 002B     		cmp	r3, #0
 1147 0016 05D0     		beq	.L42
1006:.\Generated_Source\PSoC5/PSOC4.c ****         {
1007:.\Generated_Source\PSoC5/PSOC4.c ****             #if(PSOC4_TXBUFFERSIZE > PSOC4_FIFO_LENGTH)
1008:.\Generated_Source\PSoC5/PSOC4.c **** 
1009:.\Generated_Source\PSoC5/PSOC4.c ****                 /* Disable Tx interrupt. */
1010:.\Generated_Source\PSoC5/PSOC4.c ****                 /* Protect variables that could change on interrupt. */
1011:.\Generated_Source\PSoC5/PSOC4.c ****                 #if(PSOC4_TX_INTERRUPT_ENABLED)
1012:.\Generated_Source\PSoC5/PSOC4.c ****                     PSOC4_DisableTxInt();
1013:.\Generated_Source\PSoC5/PSOC4.c ****                 #endif /* End PSOC4_TX_INTERRUPT_ENABLED */
1014:.\Generated_Source\PSoC5/PSOC4.c **** 
1015:.\Generated_Source\PSoC5/PSOC4.c ****                 if( (PSOC4_txBufferRead == PSOC4_txBufferWrite) &&
1016:.\Generated_Source\PSoC5/PSOC4.c ****                     ((PSOC4_TXSTATUS_REG & PSOC4_TX_STS_FIFO_FULL) == 0u) )
ARM GAS  C:\Users\javier\AppData\Local\Temp\ccuiDKAi.s 			page 39


1017:.\Generated_Source\PSoC5/PSOC4.c ****                 {
1018:.\Generated_Source\PSoC5/PSOC4.c ****                     /* Add directly to the FIFO. */
1019:.\Generated_Source\PSoC5/PSOC4.c ****                     PSOC4_TXDATA_REG = txDataByte;
1020:.\Generated_Source\PSoC5/PSOC4.c ****                 }
1021:.\Generated_Source\PSoC5/PSOC4.c ****                 else
1022:.\Generated_Source\PSoC5/PSOC4.c ****                 {
1023:.\Generated_Source\PSoC5/PSOC4.c ****                     if(PSOC4_txBufferWrite >= PSOC4_TXBUFFERSIZE)
1024:.\Generated_Source\PSoC5/PSOC4.c ****                     {
1025:.\Generated_Source\PSoC5/PSOC4.c ****                         PSOC4_txBufferWrite = 0u;
1026:.\Generated_Source\PSoC5/PSOC4.c ****                     }
1027:.\Generated_Source\PSoC5/PSOC4.c **** 
1028:.\Generated_Source\PSoC5/PSOC4.c ****                     PSOC4_txBuffer[PSOC4_txBufferWrite] = txDataByte;
1029:.\Generated_Source\PSoC5/PSOC4.c **** 
1030:.\Generated_Source\PSoC5/PSOC4.c ****                     /* Add to the software buffer. */
1031:.\Generated_Source\PSoC5/PSOC4.c ****                     PSOC4_txBufferWrite++;
1032:.\Generated_Source\PSoC5/PSOC4.c **** 
1033:.\Generated_Source\PSoC5/PSOC4.c ****                 }
1034:.\Generated_Source\PSoC5/PSOC4.c **** 
1035:.\Generated_Source\PSoC5/PSOC4.c ****                 /* Enable Tx interrupt. */
1036:.\Generated_Source\PSoC5/PSOC4.c ****                 #if(PSOC4_TX_INTERRUPT_ENABLED)
1037:.\Generated_Source\PSoC5/PSOC4.c ****                     PSOC4_EnableTxInt();
1038:.\Generated_Source\PSoC5/PSOC4.c ****                 #endif /* End PSOC4_TX_INTERRUPT_ENABLED */
1039:.\Generated_Source\PSoC5/PSOC4.c **** 
1040:.\Generated_Source\PSoC5/PSOC4.c ****             #else /* PSOC4_TXBUFFERSIZE > PSOC4_FIFO_LENGTH */
1041:.\Generated_Source\PSoC5/PSOC4.c **** 
1042:.\Generated_Source\PSoC5/PSOC4.c ****                 /* Add directly to the FIFO. */
1043:.\Generated_Source\PSoC5/PSOC4.c ****                 PSOC4_TXDATA_REG = txDataByte;
 1148              		.loc 1 1043 0
 1149 0018 46F24443 		movw	r3, #25668
 1150 001c C4F20003 		movt	r3, 16384
 1151 0020 FA79     		ldrb	r2, [r7, #7]
 1152 0022 1A70     		strb	r2, [r3, #0]
 1153              	.L42:
1044:.\Generated_Source\PSoC5/PSOC4.c **** 
1045:.\Generated_Source\PSoC5/PSOC4.c ****             #endif /* End PSOC4_TXBUFFERSIZE > PSOC4_FIFO_LENGTH */
1046:.\Generated_Source\PSoC5/PSOC4.c ****         }
1047:.\Generated_Source\PSoC5/PSOC4.c ****     }
 1154              		.loc 1 1047 0
 1155 0024 07F10C07 		add	r7, r7, #12
 1156 0028 BD46     		mov	sp, r7
 1157 002a 80BC     		pop	{r7}
 1158 002c 7047     		bx	lr
 1159              		.cfi_endproc
 1160              	.LFE19:
 1161              		.size	PSOC4_WriteTxData, .-PSOC4_WriteTxData
 1162 002e 00BF     		.section	.text.PSOC4_ReadTxStatus,"ax",%progbits
 1163              		.align	2
 1164              		.global	PSOC4_ReadTxStatus
 1165              		.thumb
 1166              		.thumb_func
 1167              		.type	PSOC4_ReadTxStatus, %function
 1168              	PSOC4_ReadTxStatus:
 1169              	.LFB20:
1048:.\Generated_Source\PSoC5/PSOC4.c **** 
1049:.\Generated_Source\PSoC5/PSOC4.c **** 
1050:.\Generated_Source\PSoC5/PSOC4.c ****     /*******************************************************************************
1051:.\Generated_Source\PSoC5/PSOC4.c ****     * Function Name: PSOC4_ReadTxStatus
ARM GAS  C:\Users\javier\AppData\Local\Temp\ccuiDKAi.s 			page 40


1052:.\Generated_Source\PSoC5/PSOC4.c ****     ********************************************************************************
1053:.\Generated_Source\PSoC5/PSOC4.c ****     *
1054:.\Generated_Source\PSoC5/PSOC4.c ****     * Summary:
1055:.\Generated_Source\PSoC5/PSOC4.c ****     *  Read the status register for the component
1056:.\Generated_Source\PSoC5/PSOC4.c ****     *
1057:.\Generated_Source\PSoC5/PSOC4.c ****     * Parameters:
1058:.\Generated_Source\PSoC5/PSOC4.c ****     *  None.
1059:.\Generated_Source\PSoC5/PSOC4.c ****     *
1060:.\Generated_Source\PSoC5/PSOC4.c ****     * Return:
1061:.\Generated_Source\PSoC5/PSOC4.c ****     *  Contents of the status register
1062:.\Generated_Source\PSoC5/PSOC4.c ****     *
1063:.\Generated_Source\PSoC5/PSOC4.c ****     * Theory:
1064:.\Generated_Source\PSoC5/PSOC4.c ****     *  This function reads the status register which is clear on read. It is up to
1065:.\Generated_Source\PSoC5/PSOC4.c ****     *  the user to handle all bits in this return value accordingly, even if the bit
1066:.\Generated_Source\PSoC5/PSOC4.c ****     *  was not enabled as an interrupt source the event happened and must be handled
1067:.\Generated_Source\PSoC5/PSOC4.c ****     *  accordingly.
1068:.\Generated_Source\PSoC5/PSOC4.c ****     *
1069:.\Generated_Source\PSoC5/PSOC4.c ****     *******************************************************************************/
1070:.\Generated_Source\PSoC5/PSOC4.c ****     uint8 PSOC4_ReadTxStatus(void) 
1071:.\Generated_Source\PSoC5/PSOC4.c ****     {
 1170              		.loc 1 1071 0
 1171              		.cfi_startproc
 1172              		@ args = 0, pretend = 0, frame = 0
 1173              		@ frame_needed = 1, uses_anonymous_args = 0
 1174              		@ link register save eliminated.
 1175 0000 80B4     		push	{r7}
 1176              	.LCFI54:
 1177              		.cfi_def_cfa_offset 4
 1178              		.cfi_offset 7, -4
 1179 0002 00AF     		add	r7, sp, #0
 1180              	.LCFI55:
 1181              		.cfi_def_cfa_register 7
1072:.\Generated_Source\PSoC5/PSOC4.c ****         return(PSOC4_TXSTATUS_REG);
 1182              		.loc 1 1072 0
 1183 0004 46F26443 		movw	r3, #25700
 1184 0008 C4F20003 		movt	r3, 16384
 1185 000c 1B78     		ldrb	r3, [r3, #0]
 1186 000e DBB2     		uxtb	r3, r3
1073:.\Generated_Source\PSoC5/PSOC4.c ****     }
 1187              		.loc 1 1073 0
 1188 0010 1846     		mov	r0, r3
 1189 0012 BD46     		mov	sp, r7
 1190 0014 80BC     		pop	{r7}
 1191 0016 7047     		bx	lr
 1192              		.cfi_endproc
 1193              	.LFE20:
 1194              		.size	PSOC4_ReadTxStatus, .-PSOC4_ReadTxStatus
 1195              		.section	.text.PSOC4_PutChar,"ax",%progbits
 1196              		.align	2
 1197              		.global	PSOC4_PutChar
 1198              		.thumb
 1199              		.thumb_func
 1200              		.type	PSOC4_PutChar, %function
 1201              	PSOC4_PutChar:
 1202              	.LFB21:
1074:.\Generated_Source\PSoC5/PSOC4.c **** 
1075:.\Generated_Source\PSoC5/PSOC4.c **** 
ARM GAS  C:\Users\javier\AppData\Local\Temp\ccuiDKAi.s 			page 41


1076:.\Generated_Source\PSoC5/PSOC4.c ****     /*******************************************************************************
1077:.\Generated_Source\PSoC5/PSOC4.c ****     * Function Name: PSOC4_PutChar
1078:.\Generated_Source\PSoC5/PSOC4.c ****     ********************************************************************************
1079:.\Generated_Source\PSoC5/PSOC4.c ****     *
1080:.\Generated_Source\PSoC5/PSOC4.c ****     * Summary:
1081:.\Generated_Source\PSoC5/PSOC4.c ****     *  Wait to send byte until TX register or buffer has room.
1082:.\Generated_Source\PSoC5/PSOC4.c ****     *
1083:.\Generated_Source\PSoC5/PSOC4.c ****     * Parameters:
1084:.\Generated_Source\PSoC5/PSOC4.c ****     *  txDataByte: The 8-bit data value to send across the UART.
1085:.\Generated_Source\PSoC5/PSOC4.c ****     *
1086:.\Generated_Source\PSoC5/PSOC4.c ****     * Return:
1087:.\Generated_Source\PSoC5/PSOC4.c ****     *  None.
1088:.\Generated_Source\PSoC5/PSOC4.c ****     *
1089:.\Generated_Source\PSoC5/PSOC4.c ****     * Global Variables:
1090:.\Generated_Source\PSoC5/PSOC4.c ****     *  PSOC4_txBuffer - RAM buffer pointer for save data for transmission
1091:.\Generated_Source\PSoC5/PSOC4.c ****     *  PSOC4_txBufferWrite - cyclic index for write to txBuffer,
1092:.\Generated_Source\PSoC5/PSOC4.c ****     *     checked to identify free space in txBuffer and incremented after each byte
1093:.\Generated_Source\PSoC5/PSOC4.c ****     *     saved to buffer.
1094:.\Generated_Source\PSoC5/PSOC4.c ****     *  PSOC4_txBufferRead - cyclic index for read from txBuffer,
1095:.\Generated_Source\PSoC5/PSOC4.c ****     *     checked to identify free space in txBuffer.
1096:.\Generated_Source\PSoC5/PSOC4.c ****     *  PSOC4_initVar - checked to identify that the component has been
1097:.\Generated_Source\PSoC5/PSOC4.c ****     *     initialized.
1098:.\Generated_Source\PSoC5/PSOC4.c ****     *
1099:.\Generated_Source\PSoC5/PSOC4.c ****     * Reentrant:
1100:.\Generated_Source\PSoC5/PSOC4.c ****     *  No.
1101:.\Generated_Source\PSoC5/PSOC4.c ****     *
1102:.\Generated_Source\PSoC5/PSOC4.c ****     * Theory:
1103:.\Generated_Source\PSoC5/PSOC4.c ****     *  Allows the user to transmit any byte of data in a single transfer
1104:.\Generated_Source\PSoC5/PSOC4.c ****     *
1105:.\Generated_Source\PSoC5/PSOC4.c ****     *******************************************************************************/
1106:.\Generated_Source\PSoC5/PSOC4.c ****     void PSOC4_PutChar(uint8 txDataByte) 
1107:.\Generated_Source\PSoC5/PSOC4.c ****     {
 1203              		.loc 1 1107 0
 1204              		.cfi_startproc
 1205              		@ args = 0, pretend = 0, frame = 8
 1206              		@ frame_needed = 1, uses_anonymous_args = 0
 1207              		@ link register save eliminated.
 1208 0000 80B4     		push	{r7}
 1209              	.LCFI56:
 1210              		.cfi_def_cfa_offset 4
 1211              		.cfi_offset 7, -4
 1212 0002 83B0     		sub	sp, sp, #12
 1213              	.LCFI57:
 1214              		.cfi_def_cfa_offset 16
 1215 0004 00AF     		add	r7, sp, #0
 1216              	.LCFI58:
 1217              		.cfi_def_cfa_register 7
 1218 0006 0346     		mov	r3, r0
 1219 0008 FB71     		strb	r3, [r7, #7]
1108:.\Generated_Source\PSoC5/PSOC4.c ****             #if(PSOC4_TXBUFFERSIZE > PSOC4_FIFO_LENGTH)
1109:.\Generated_Source\PSoC5/PSOC4.c ****                 /* The temporary output pointer is used since it takes two instructions
1110:.\Generated_Source\PSoC5/PSOC4.c ****                 *  to increment with a wrap, and we can't risk doing that with the real
1111:.\Generated_Source\PSoC5/PSOC4.c ****                 *  pointer and getting an interrupt in between instructions.
1112:.\Generated_Source\PSoC5/PSOC4.c ****                 */
1113:.\Generated_Source\PSoC5/PSOC4.c ****                 uint8 loc_txBufferWrite;
1114:.\Generated_Source\PSoC5/PSOC4.c ****                 uint8 loc_txBufferRead;
1115:.\Generated_Source\PSoC5/PSOC4.c **** 
ARM GAS  C:\Users\javier\AppData\Local\Temp\ccuiDKAi.s 			page 42


1116:.\Generated_Source\PSoC5/PSOC4.c ****                 do{
1117:.\Generated_Source\PSoC5/PSOC4.c ****                     /* Block if software buffer is full, so we don't overwrite. */
1118:.\Generated_Source\PSoC5/PSOC4.c ****                     #if ((PSOC4_TXBUFFERSIZE > PSOC4_MAX_BYTE_VALUE) && (CY_PSOC3))
1119:.\Generated_Source\PSoC5/PSOC4.c ****                         /* Disable TX interrupt to protect variables that could change on interrupt
1120:.\Generated_Source\PSoC5/PSOC4.c ****                         CyIntDisable(PSOC4_TX_VECT_NUM);
1121:.\Generated_Source\PSoC5/PSOC4.c ****                     #endif /* End TXBUFFERSIZE > 255 */
1122:.\Generated_Source\PSoC5/PSOC4.c ****                     loc_txBufferWrite = PSOC4_txBufferWrite;
1123:.\Generated_Source\PSoC5/PSOC4.c ****                     loc_txBufferRead = PSOC4_txBufferRead;
1124:.\Generated_Source\PSoC5/PSOC4.c ****                     #if ((PSOC4_TXBUFFERSIZE > PSOC4_MAX_BYTE_VALUE) && (CY_PSOC3))
1125:.\Generated_Source\PSoC5/PSOC4.c ****                         /* Enable interrupt to continue transmission */
1126:.\Generated_Source\PSoC5/PSOC4.c ****                         CyIntEnable(PSOC4_TX_VECT_NUM);
1127:.\Generated_Source\PSoC5/PSOC4.c ****                     #endif /* End TXBUFFERSIZE > 255 */
1128:.\Generated_Source\PSoC5/PSOC4.c ****                 }while( (loc_txBufferWrite < loc_txBufferRead) ? (loc_txBufferWrite == (loc_txBuffe
1129:.\Generated_Source\PSoC5/PSOC4.c ****                                         ((loc_txBufferWrite - loc_txBufferRead) ==
1130:.\Generated_Source\PSoC5/PSOC4.c ****                                         (uint8)(PSOC4_TXBUFFERSIZE - 1u)) );
1131:.\Generated_Source\PSoC5/PSOC4.c **** 
1132:.\Generated_Source\PSoC5/PSOC4.c ****                 if( (loc_txBufferRead == loc_txBufferWrite) &&
1133:.\Generated_Source\PSoC5/PSOC4.c ****                     ((PSOC4_TXSTATUS_REG & PSOC4_TX_STS_FIFO_FULL) == 0u) )
1134:.\Generated_Source\PSoC5/PSOC4.c ****                 {
1135:.\Generated_Source\PSoC5/PSOC4.c ****                     /* Add directly to the FIFO. */
1136:.\Generated_Source\PSoC5/PSOC4.c ****                     PSOC4_TXDATA_REG = txDataByte;
1137:.\Generated_Source\PSoC5/PSOC4.c ****                 }
1138:.\Generated_Source\PSoC5/PSOC4.c ****                 else
1139:.\Generated_Source\PSoC5/PSOC4.c ****                 {
1140:.\Generated_Source\PSoC5/PSOC4.c ****                     if(loc_txBufferWrite >= PSOC4_TXBUFFERSIZE)
1141:.\Generated_Source\PSoC5/PSOC4.c ****                     {
1142:.\Generated_Source\PSoC5/PSOC4.c ****                         loc_txBufferWrite = 0u;
1143:.\Generated_Source\PSoC5/PSOC4.c ****                     }
1144:.\Generated_Source\PSoC5/PSOC4.c ****                     /* Add to the software buffer. */
1145:.\Generated_Source\PSoC5/PSOC4.c ****                     PSOC4_txBuffer[loc_txBufferWrite] = txDataByte;
1146:.\Generated_Source\PSoC5/PSOC4.c ****                     loc_txBufferWrite++;
1147:.\Generated_Source\PSoC5/PSOC4.c **** 
1148:.\Generated_Source\PSoC5/PSOC4.c ****                     /* Finally, update the real output pointer */
1149:.\Generated_Source\PSoC5/PSOC4.c ****                     #if ((PSOC4_TXBUFFERSIZE > PSOC4_MAX_BYTE_VALUE) && (CY_PSOC3))
1150:.\Generated_Source\PSoC5/PSOC4.c ****                         CyIntDisable(PSOC4_TX_VECT_NUM);
1151:.\Generated_Source\PSoC5/PSOC4.c ****                     #endif /* End TXBUFFERSIZE > 255 */
1152:.\Generated_Source\PSoC5/PSOC4.c ****                     PSOC4_txBufferWrite = loc_txBufferWrite;
1153:.\Generated_Source\PSoC5/PSOC4.c ****                     #if ((PSOC4_TXBUFFERSIZE > PSOC4_MAX_BYTE_VALUE) && (CY_PSOC3))
1154:.\Generated_Source\PSoC5/PSOC4.c ****                         CyIntEnable(PSOC4_TX_VECT_NUM);
1155:.\Generated_Source\PSoC5/PSOC4.c ****                     #endif /* End TXBUFFERSIZE > 255 */
1156:.\Generated_Source\PSoC5/PSOC4.c ****                 }
1157:.\Generated_Source\PSoC5/PSOC4.c **** 
1158:.\Generated_Source\PSoC5/PSOC4.c ****             #else /* PSOC4_TXBUFFERSIZE > PSOC4_FIFO_LENGTH */
1159:.\Generated_Source\PSoC5/PSOC4.c **** 
1160:.\Generated_Source\PSoC5/PSOC4.c ****                 while((PSOC4_TXSTATUS_REG & PSOC4_TX_STS_FIFO_FULL) != 0u)
 1220              		.loc 1 1160 0
 1221 000a 00BF     		nop
 1222              	.L47:
 1223              		.loc 1 1160 0 is_stmt 0 discriminator 1
 1224 000c 46F26443 		movw	r3, #25700
 1225 0010 C4F20003 		movt	r3, 16384
 1226 0014 1B78     		ldrb	r3, [r3, #0]
 1227 0016 DBB2     		uxtb	r3, r3
 1228 0018 03F00403 		and	r3, r3, #4
 1229 001c 002B     		cmp	r3, #0
 1230 001e F5D1     		bne	.L47
1161:.\Generated_Source\PSoC5/PSOC4.c ****                 {
ARM GAS  C:\Users\javier\AppData\Local\Temp\ccuiDKAi.s 			page 43


1162:.\Generated_Source\PSoC5/PSOC4.c ****                     ; /* Wait for room in the FIFO. */
1163:.\Generated_Source\PSoC5/PSOC4.c ****                 }
1164:.\Generated_Source\PSoC5/PSOC4.c **** 
1165:.\Generated_Source\PSoC5/PSOC4.c ****                 /* Add directly to the FIFO. */
1166:.\Generated_Source\PSoC5/PSOC4.c ****                 PSOC4_TXDATA_REG = txDataByte;
 1231              		.loc 1 1166 0 is_stmt 1
 1232 0020 46F24443 		movw	r3, #25668
 1233 0024 C4F20003 		movt	r3, 16384
 1234 0028 FA79     		ldrb	r2, [r7, #7]
 1235 002a 1A70     		strb	r2, [r3, #0]
1167:.\Generated_Source\PSoC5/PSOC4.c **** 
1168:.\Generated_Source\PSoC5/PSOC4.c ****             #endif /* End PSOC4_TXBUFFERSIZE > PSOC4_FIFO_LENGTH */
1169:.\Generated_Source\PSoC5/PSOC4.c ****     }
 1236              		.loc 1 1169 0
 1237 002c 07F10C07 		add	r7, r7, #12
 1238 0030 BD46     		mov	sp, r7
 1239 0032 80BC     		pop	{r7}
 1240 0034 7047     		bx	lr
 1241              		.cfi_endproc
 1242              	.LFE21:
 1243              		.size	PSOC4_PutChar, .-PSOC4_PutChar
 1244 0036 00BF     		.section	.text.PSOC4_PutString,"ax",%progbits
 1245              		.align	2
 1246              		.global	PSOC4_PutString
 1247              		.thumb
 1248              		.thumb_func
 1249              		.type	PSOC4_PutString, %function
 1250              	PSOC4_PutString:
 1251              	.LFB22:
1170:.\Generated_Source\PSoC5/PSOC4.c **** 
1171:.\Generated_Source\PSoC5/PSOC4.c **** 
1172:.\Generated_Source\PSoC5/PSOC4.c ****     /*******************************************************************************
1173:.\Generated_Source\PSoC5/PSOC4.c ****     * Function Name: PSOC4_PutString
1174:.\Generated_Source\PSoC5/PSOC4.c ****     ********************************************************************************
1175:.\Generated_Source\PSoC5/PSOC4.c ****     *
1176:.\Generated_Source\PSoC5/PSOC4.c ****     * Summary:
1177:.\Generated_Source\PSoC5/PSOC4.c ****     *  Write a Sequence of bytes on the Transmit line. Data comes from RAM or ROM.
1178:.\Generated_Source\PSoC5/PSOC4.c ****     *
1179:.\Generated_Source\PSoC5/PSOC4.c ****     * Parameters:
1180:.\Generated_Source\PSoC5/PSOC4.c ****     *  string: char pointer to character string of Data to Send.
1181:.\Generated_Source\PSoC5/PSOC4.c ****     *
1182:.\Generated_Source\PSoC5/PSOC4.c ****     * Return:
1183:.\Generated_Source\PSoC5/PSOC4.c ****     *  None.
1184:.\Generated_Source\PSoC5/PSOC4.c ****     *
1185:.\Generated_Source\PSoC5/PSOC4.c ****     * Global Variables:
1186:.\Generated_Source\PSoC5/PSOC4.c ****     *  PSOC4_initVar - checked to identify that the component has been
1187:.\Generated_Source\PSoC5/PSOC4.c ****     *     initialized.
1188:.\Generated_Source\PSoC5/PSOC4.c ****     *
1189:.\Generated_Source\PSoC5/PSOC4.c ****     * Reentrant:
1190:.\Generated_Source\PSoC5/PSOC4.c ****     *  No.
1191:.\Generated_Source\PSoC5/PSOC4.c ****     *
1192:.\Generated_Source\PSoC5/PSOC4.c ****     * Theory:
1193:.\Generated_Source\PSoC5/PSOC4.c ****     *  This function will block if there is not enough memory to place the whole
1194:.\Generated_Source\PSoC5/PSOC4.c ****     *  string, it will block until the entire string has been written to the
1195:.\Generated_Source\PSoC5/PSOC4.c ****     *  transmit buffer.
1196:.\Generated_Source\PSoC5/PSOC4.c ****     *
1197:.\Generated_Source\PSoC5/PSOC4.c ****     *******************************************************************************/
ARM GAS  C:\Users\javier\AppData\Local\Temp\ccuiDKAi.s 			page 44


1198:.\Generated_Source\PSoC5/PSOC4.c ****     void PSOC4_PutString(const char8 string[]) 
1199:.\Generated_Source\PSoC5/PSOC4.c ****     {
 1252              		.loc 1 1199 0
 1253              		.cfi_startproc
 1254              		@ args = 0, pretend = 0, frame = 16
 1255              		@ frame_needed = 1, uses_anonymous_args = 0
 1256 0000 80B5     		push	{r7, lr}
 1257              	.LCFI59:
 1258              		.cfi_def_cfa_offset 8
 1259              		.cfi_offset 7, -8
 1260              		.cfi_offset 14, -4
 1261 0002 84B0     		sub	sp, sp, #16
 1262              	.LCFI60:
 1263              		.cfi_def_cfa_offset 24
 1264 0004 00AF     		add	r7, sp, #0
 1265              	.LCFI61:
 1266              		.cfi_def_cfa_register 7
 1267 0006 7860     		str	r0, [r7, #4]
1200:.\Generated_Source\PSoC5/PSOC4.c ****         uint16 buf_index = 0u;
 1268              		.loc 1 1200 0
 1269 0008 4FF00003 		mov	r3, #0
 1270 000c FB81     		strh	r3, [r7, #14]	@ movhi
1201:.\Generated_Source\PSoC5/PSOC4.c ****         /* If not Initialized then skip this function*/
1202:.\Generated_Source\PSoC5/PSOC4.c ****         if(PSOC4_initVar != 0u)
 1271              		.loc 1 1202 0
 1272 000e 40F20003 		movw	r3, #:lower16:PSOC4_initVar
 1273 0012 C0F20003 		movt	r3, #:upper16:PSOC4_initVar
 1274 0016 1B78     		ldrb	r3, [r3, #0]	@ zero_extendqisi2
 1275 0018 002B     		cmp	r3, #0
 1276 001a 11D0     		beq	.L48
1203:.\Generated_Source\PSoC5/PSOC4.c ****         {
1204:.\Generated_Source\PSoC5/PSOC4.c ****             /* This is a blocking function, it will not exit until all data is sent*/
1205:.\Generated_Source\PSoC5/PSOC4.c ****             while(string[buf_index] != (char8)0)
 1277              		.loc 1 1205 0
 1278 001c 0AE0     		b	.L50
 1279              	.L51:
1206:.\Generated_Source\PSoC5/PSOC4.c ****             {
1207:.\Generated_Source\PSoC5/PSOC4.c ****                 PSOC4_PutChar((uint8)string[buf_index]);
 1280              		.loc 1 1207 0
 1281 001e FB89     		ldrh	r3, [r7, #14]
 1282 0020 7A68     		ldr	r2, [r7, #4]
 1283 0022 D318     		adds	r3, r2, r3
 1284 0024 1B78     		ldrb	r3, [r3, #0]	@ zero_extendqisi2
 1285 0026 1846     		mov	r0, r3
 1286 0028 FFF7FEFF 		bl	PSOC4_PutChar
1208:.\Generated_Source\PSoC5/PSOC4.c ****                 buf_index++;
 1287              		.loc 1 1208 0
 1288 002c FB89     		ldrh	r3, [r7, #14]	@ movhi
 1289 002e 03F10103 		add	r3, r3, #1
 1290 0032 FB81     		strh	r3, [r7, #14]	@ movhi
 1291              	.L50:
1205:.\Generated_Source\PSoC5/PSOC4.c ****             while(string[buf_index] != (char8)0)
 1292              		.loc 1 1205 0 discriminator 1
 1293 0034 FB89     		ldrh	r3, [r7, #14]
 1294 0036 7A68     		ldr	r2, [r7, #4]
 1295 0038 D318     		adds	r3, r2, r3
 1296 003a 1B78     		ldrb	r3, [r3, #0]	@ zero_extendqisi2
ARM GAS  C:\Users\javier\AppData\Local\Temp\ccuiDKAi.s 			page 45


 1297 003c 002B     		cmp	r3, #0
 1298 003e EED1     		bne	.L51
 1299              	.L48:
1209:.\Generated_Source\PSoC5/PSOC4.c ****             }
1210:.\Generated_Source\PSoC5/PSOC4.c ****         }
1211:.\Generated_Source\PSoC5/PSOC4.c ****     }
 1300              		.loc 1 1211 0
 1301 0040 07F11007 		add	r7, r7, #16
 1302 0044 BD46     		mov	sp, r7
 1303 0046 80BD     		pop	{r7, pc}
 1304              		.cfi_endproc
 1305              	.LFE22:
 1306              		.size	PSOC4_PutString, .-PSOC4_PutString
 1307              		.section	.text.PSOC4_PutArray,"ax",%progbits
 1308              		.align	2
 1309              		.global	PSOC4_PutArray
 1310              		.thumb
 1311              		.thumb_func
 1312              		.type	PSOC4_PutArray, %function
 1313              	PSOC4_PutArray:
 1314              	.LFB23:
1212:.\Generated_Source\PSoC5/PSOC4.c **** 
1213:.\Generated_Source\PSoC5/PSOC4.c **** 
1214:.\Generated_Source\PSoC5/PSOC4.c ****     /*******************************************************************************
1215:.\Generated_Source\PSoC5/PSOC4.c ****     * Function Name: PSOC4_PutArray
1216:.\Generated_Source\PSoC5/PSOC4.c ****     ********************************************************************************
1217:.\Generated_Source\PSoC5/PSOC4.c ****     *
1218:.\Generated_Source\PSoC5/PSOC4.c ****     * Summary:
1219:.\Generated_Source\PSoC5/PSOC4.c ****     *  Write a Sequence of bytes on the Transmit line. Data comes from RAM or ROM.
1220:.\Generated_Source\PSoC5/PSOC4.c ****     *
1221:.\Generated_Source\PSoC5/PSOC4.c ****     * Parameters:
1222:.\Generated_Source\PSoC5/PSOC4.c ****     *  string: Address of the memory array residing in RAM or ROM.
1223:.\Generated_Source\PSoC5/PSOC4.c ****     *  byteCount: Number of Bytes to be transmitted.
1224:.\Generated_Source\PSoC5/PSOC4.c ****     *
1225:.\Generated_Source\PSoC5/PSOC4.c ****     * Return:
1226:.\Generated_Source\PSoC5/PSOC4.c ****     *  None.
1227:.\Generated_Source\PSoC5/PSOC4.c ****     *
1228:.\Generated_Source\PSoC5/PSOC4.c ****     * Global Variables:
1229:.\Generated_Source\PSoC5/PSOC4.c ****     *  PSOC4_initVar - checked to identify that the component has been
1230:.\Generated_Source\PSoC5/PSOC4.c ****     *     initialized.
1231:.\Generated_Source\PSoC5/PSOC4.c ****     *
1232:.\Generated_Source\PSoC5/PSOC4.c ****     * Reentrant:
1233:.\Generated_Source\PSoC5/PSOC4.c ****     *  No.
1234:.\Generated_Source\PSoC5/PSOC4.c ****     *
1235:.\Generated_Source\PSoC5/PSOC4.c ****     *******************************************************************************/
1236:.\Generated_Source\PSoC5/PSOC4.c ****     void PSOC4_PutArray(const uint8 string[], uint8 byteCount)
1237:.\Generated_Source\PSoC5/PSOC4.c ****                                                                     
1238:.\Generated_Source\PSoC5/PSOC4.c ****     {
 1315              		.loc 1 1238 0
 1316              		.cfi_startproc
 1317              		@ args = 0, pretend = 0, frame = 16
 1318              		@ frame_needed = 1, uses_anonymous_args = 0
 1319 0000 80B5     		push	{r7, lr}
 1320              	.LCFI62:
 1321              		.cfi_def_cfa_offset 8
 1322              		.cfi_offset 7, -8
 1323              		.cfi_offset 14, -4
ARM GAS  C:\Users\javier\AppData\Local\Temp\ccuiDKAi.s 			page 46


 1324 0002 84B0     		sub	sp, sp, #16
 1325              	.LCFI63:
 1326              		.cfi_def_cfa_offset 24
 1327 0004 00AF     		add	r7, sp, #0
 1328              	.LCFI64:
 1329              		.cfi_def_cfa_register 7
 1330 0006 7860     		str	r0, [r7, #4]
 1331 0008 0B46     		mov	r3, r1
 1332 000a FB70     		strb	r3, [r7, #3]
1239:.\Generated_Source\PSoC5/PSOC4.c ****         uint8 buf_index = 0u;
 1333              		.loc 1 1239 0
 1334 000c 4FF00003 		mov	r3, #0
 1335 0010 FB73     		strb	r3, [r7, #15]
1240:.\Generated_Source\PSoC5/PSOC4.c ****         /* If not Initialized then skip this function*/
1241:.\Generated_Source\PSoC5/PSOC4.c ****         if(PSOC4_initVar != 0u)
 1336              		.loc 1 1241 0
 1337 0012 40F20003 		movw	r3, #:lower16:PSOC4_initVar
 1338 0016 C0F20003 		movt	r3, #:upper16:PSOC4_initVar
 1339 001a 1B78     		ldrb	r3, [r3, #0]	@ zero_extendqisi2
 1340 001c 002B     		cmp	r3, #0
 1341 001e 0ED0     		beq	.L52
 1342              	.L54:
1242:.\Generated_Source\PSoC5/PSOC4.c ****         {
1243:.\Generated_Source\PSoC5/PSOC4.c ****             do
1244:.\Generated_Source\PSoC5/PSOC4.c ****             {
1245:.\Generated_Source\PSoC5/PSOC4.c ****                 PSOC4_PutChar(string[buf_index]);
 1343              		.loc 1 1245 0 discriminator 1
 1344 0020 FB7B     		ldrb	r3, [r7, #15]	@ zero_extendqisi2
 1345 0022 7A68     		ldr	r2, [r7, #4]
 1346 0024 D318     		adds	r3, r2, r3
 1347 0026 1B78     		ldrb	r3, [r3, #0]	@ zero_extendqisi2
 1348 0028 1846     		mov	r0, r3
 1349 002a FFF7FEFF 		bl	PSOC4_PutChar
1246:.\Generated_Source\PSoC5/PSOC4.c ****                 buf_index++;
 1350              		.loc 1 1246 0 discriminator 1
 1351 002e FB7B     		ldrb	r3, [r7, #15]
 1352 0030 03F10103 		add	r3, r3, #1
 1353 0034 FB73     		strb	r3, [r7, #15]
1247:.\Generated_Source\PSoC5/PSOC4.c ****             }while(buf_index < byteCount);
 1354              		.loc 1 1247 0 discriminator 1
 1355 0036 FA7B     		ldrb	r2, [r7, #15]	@ zero_extendqisi2
 1356 0038 FB78     		ldrb	r3, [r7, #3]	@ zero_extendqisi2
 1357 003a 9A42     		cmp	r2, r3
 1358 003c F0D3     		bcc	.L54
 1359              	.L52:
1248:.\Generated_Source\PSoC5/PSOC4.c ****         }
1249:.\Generated_Source\PSoC5/PSOC4.c ****     }
 1360              		.loc 1 1249 0
 1361 003e 07F11007 		add	r7, r7, #16
 1362 0042 BD46     		mov	sp, r7
 1363 0044 80BD     		pop	{r7, pc}
 1364              		.cfi_endproc
 1365              	.LFE23:
 1366              		.size	PSOC4_PutArray, .-PSOC4_PutArray
 1367 0046 00BF     		.section	.text.PSOC4_PutCRLF,"ax",%progbits
 1368              		.align	2
 1369              		.global	PSOC4_PutCRLF
ARM GAS  C:\Users\javier\AppData\Local\Temp\ccuiDKAi.s 			page 47


 1370              		.thumb
 1371              		.thumb_func
 1372              		.type	PSOC4_PutCRLF, %function
 1373              	PSOC4_PutCRLF:
 1374              	.LFB24:
1250:.\Generated_Source\PSoC5/PSOC4.c **** 
1251:.\Generated_Source\PSoC5/PSOC4.c **** 
1252:.\Generated_Source\PSoC5/PSOC4.c ****     /*******************************************************************************
1253:.\Generated_Source\PSoC5/PSOC4.c ****     * Function Name: PSOC4_PutCRLF
1254:.\Generated_Source\PSoC5/PSOC4.c ****     ********************************************************************************
1255:.\Generated_Source\PSoC5/PSOC4.c ****     *
1256:.\Generated_Source\PSoC5/PSOC4.c ****     * Summary:
1257:.\Generated_Source\PSoC5/PSOC4.c ****     *  Write a character and then carriage return and line feed.
1258:.\Generated_Source\PSoC5/PSOC4.c ****     *
1259:.\Generated_Source\PSoC5/PSOC4.c ****     * Parameters:
1260:.\Generated_Source\PSoC5/PSOC4.c ****     *  txDataByte: uint8 Character to send.
1261:.\Generated_Source\PSoC5/PSOC4.c ****     *
1262:.\Generated_Source\PSoC5/PSOC4.c ****     * Return:
1263:.\Generated_Source\PSoC5/PSOC4.c ****     *  None.
1264:.\Generated_Source\PSoC5/PSOC4.c ****     *
1265:.\Generated_Source\PSoC5/PSOC4.c ****     * Global Variables:
1266:.\Generated_Source\PSoC5/PSOC4.c ****     *  PSOC4_initVar - checked to identify that the component has been
1267:.\Generated_Source\PSoC5/PSOC4.c ****     *     initialized.
1268:.\Generated_Source\PSoC5/PSOC4.c ****     *
1269:.\Generated_Source\PSoC5/PSOC4.c ****     * Reentrant:
1270:.\Generated_Source\PSoC5/PSOC4.c ****     *  No.
1271:.\Generated_Source\PSoC5/PSOC4.c ****     *
1272:.\Generated_Source\PSoC5/PSOC4.c ****     *******************************************************************************/
1273:.\Generated_Source\PSoC5/PSOC4.c ****     void PSOC4_PutCRLF(uint8 txDataByte) 
1274:.\Generated_Source\PSoC5/PSOC4.c ****     {
 1375              		.loc 1 1274 0
 1376              		.cfi_startproc
 1377              		@ args = 0, pretend = 0, frame = 8
 1378              		@ frame_needed = 1, uses_anonymous_args = 0
 1379 0000 80B5     		push	{r7, lr}
 1380              	.LCFI65:
 1381              		.cfi_def_cfa_offset 8
 1382              		.cfi_offset 7, -8
 1383              		.cfi_offset 14, -4
 1384 0002 82B0     		sub	sp, sp, #8
 1385              	.LCFI66:
 1386              		.cfi_def_cfa_offset 16
 1387 0004 00AF     		add	r7, sp, #0
 1388              	.LCFI67:
 1389              		.cfi_def_cfa_register 7
 1390 0006 0346     		mov	r3, r0
 1391 0008 FB71     		strb	r3, [r7, #7]
1275:.\Generated_Source\PSoC5/PSOC4.c ****         /* If not Initialized then skip this function*/
1276:.\Generated_Source\PSoC5/PSOC4.c ****         if(PSOC4_initVar != 0u)
 1392              		.loc 1 1276 0
 1393 000a 40F20003 		movw	r3, #:lower16:PSOC4_initVar
 1394 000e C0F20003 		movt	r3, #:upper16:PSOC4_initVar
 1395 0012 1B78     		ldrb	r3, [r3, #0]	@ zero_extendqisi2
 1396 0014 002B     		cmp	r3, #0
 1397 0016 0BD0     		beq	.L55
1277:.\Generated_Source\PSoC5/PSOC4.c ****         {
1278:.\Generated_Source\PSoC5/PSOC4.c ****             PSOC4_PutChar(txDataByte);
ARM GAS  C:\Users\javier\AppData\Local\Temp\ccuiDKAi.s 			page 48


 1398              		.loc 1 1278 0
 1399 0018 FB79     		ldrb	r3, [r7, #7]	@ zero_extendqisi2
 1400 001a 1846     		mov	r0, r3
 1401 001c FFF7FEFF 		bl	PSOC4_PutChar
1279:.\Generated_Source\PSoC5/PSOC4.c ****             PSOC4_PutChar(0x0Du);
 1402              		.loc 1 1279 0
 1403 0020 4FF00D00 		mov	r0, #13
 1404 0024 FFF7FEFF 		bl	PSOC4_PutChar
1280:.\Generated_Source\PSoC5/PSOC4.c ****             PSOC4_PutChar(0x0Au);
 1405              		.loc 1 1280 0
 1406 0028 4FF00A00 		mov	r0, #10
 1407 002c FFF7FEFF 		bl	PSOC4_PutChar
 1408              	.L55:
1281:.\Generated_Source\PSoC5/PSOC4.c ****         }
1282:.\Generated_Source\PSoC5/PSOC4.c ****     }
 1409              		.loc 1 1282 0
 1410 0030 07F10807 		add	r7, r7, #8
 1411 0034 BD46     		mov	sp, r7
 1412 0036 80BD     		pop	{r7, pc}
 1413              		.cfi_endproc
 1414              	.LFE24:
 1415              		.size	PSOC4_PutCRLF, .-PSOC4_PutCRLF
 1416              		.section	.text.PSOC4_GetTxBufferSize,"ax",%progbits
 1417              		.align	2
 1418              		.global	PSOC4_GetTxBufferSize
 1419              		.thumb
 1420              		.thumb_func
 1421              		.type	PSOC4_GetTxBufferSize, %function
 1422              	PSOC4_GetTxBufferSize:
 1423              	.LFB25:
1283:.\Generated_Source\PSoC5/PSOC4.c **** 
1284:.\Generated_Source\PSoC5/PSOC4.c **** 
1285:.\Generated_Source\PSoC5/PSOC4.c ****     /*******************************************************************************
1286:.\Generated_Source\PSoC5/PSOC4.c ****     * Function Name: PSOC4_GetTxBufferSize
1287:.\Generated_Source\PSoC5/PSOC4.c ****     ********************************************************************************
1288:.\Generated_Source\PSoC5/PSOC4.c ****     *
1289:.\Generated_Source\PSoC5/PSOC4.c ****     * Summary:
1290:.\Generated_Source\PSoC5/PSOC4.c ****     *  Determine the amount of space left in the TX buffer and return the count in
1291:.\Generated_Source\PSoC5/PSOC4.c ****     *  bytes
1292:.\Generated_Source\PSoC5/PSOC4.c ****     *
1293:.\Generated_Source\PSoC5/PSOC4.c ****     * Parameters:
1294:.\Generated_Source\PSoC5/PSOC4.c ****     *  None.
1295:.\Generated_Source\PSoC5/PSOC4.c ****     *
1296:.\Generated_Source\PSoC5/PSOC4.c ****     * Return:
1297:.\Generated_Source\PSoC5/PSOC4.c ****     *  Integer count of the number of bytes left in the TX buffer
1298:.\Generated_Source\PSoC5/PSOC4.c ****     *
1299:.\Generated_Source\PSoC5/PSOC4.c ****     * Global Variables:
1300:.\Generated_Source\PSoC5/PSOC4.c ****     *  PSOC4_txBufferWrite - used to calculate left space.
1301:.\Generated_Source\PSoC5/PSOC4.c ****     *  PSOC4_txBufferRead - used to calculate left space.
1302:.\Generated_Source\PSoC5/PSOC4.c ****     *
1303:.\Generated_Source\PSoC5/PSOC4.c ****     * Reentrant:
1304:.\Generated_Source\PSoC5/PSOC4.c ****     *  No.
1305:.\Generated_Source\PSoC5/PSOC4.c ****     *
1306:.\Generated_Source\PSoC5/PSOC4.c ****     * Theory:
1307:.\Generated_Source\PSoC5/PSOC4.c ****     *  Allows the user to find out how full the TX Buffer is.
1308:.\Generated_Source\PSoC5/PSOC4.c ****     *
1309:.\Generated_Source\PSoC5/PSOC4.c ****     *******************************************************************************/
ARM GAS  C:\Users\javier\AppData\Local\Temp\ccuiDKAi.s 			page 49


1310:.\Generated_Source\PSoC5/PSOC4.c ****     uint8 PSOC4_GetTxBufferSize(void)
1311:.\Generated_Source\PSoC5/PSOC4.c ****                                                             
1312:.\Generated_Source\PSoC5/PSOC4.c ****     {
 1424              		.loc 1 1312 0
 1425              		.cfi_startproc
 1426              		@ args = 0, pretend = 0, frame = 8
 1427              		@ frame_needed = 1, uses_anonymous_args = 0
 1428              		@ link register save eliminated.
 1429 0000 80B4     		push	{r7}
 1430              	.LCFI68:
 1431              		.cfi_def_cfa_offset 4
 1432              		.cfi_offset 7, -4
 1433 0002 83B0     		sub	sp, sp, #12
 1434              	.LCFI69:
 1435              		.cfi_def_cfa_offset 16
 1436 0004 00AF     		add	r7, sp, #0
 1437              	.LCFI70:
 1438              		.cfi_def_cfa_register 7
1313:.\Generated_Source\PSoC5/PSOC4.c ****         uint8 size;
1314:.\Generated_Source\PSoC5/PSOC4.c **** 
1315:.\Generated_Source\PSoC5/PSOC4.c ****         #if(PSOC4_TXBUFFERSIZE > PSOC4_FIFO_LENGTH)
1316:.\Generated_Source\PSoC5/PSOC4.c **** 
1317:.\Generated_Source\PSoC5/PSOC4.c ****             /* Disable Tx interrupt. */
1318:.\Generated_Source\PSoC5/PSOC4.c ****             /* Protect variables that could change on interrupt. */
1319:.\Generated_Source\PSoC5/PSOC4.c ****             #if(PSOC4_TX_INTERRUPT_ENABLED)
1320:.\Generated_Source\PSoC5/PSOC4.c ****                 PSOC4_DisableTxInt();
1321:.\Generated_Source\PSoC5/PSOC4.c ****             #endif /* End PSOC4_TX_INTERRUPT_ENABLED */
1322:.\Generated_Source\PSoC5/PSOC4.c **** 
1323:.\Generated_Source\PSoC5/PSOC4.c ****             if(PSOC4_txBufferRead == PSOC4_txBufferWrite)
1324:.\Generated_Source\PSoC5/PSOC4.c ****             {
1325:.\Generated_Source\PSoC5/PSOC4.c ****                 size = 0u;
1326:.\Generated_Source\PSoC5/PSOC4.c ****             }
1327:.\Generated_Source\PSoC5/PSOC4.c ****             else if(PSOC4_txBufferRead < PSOC4_txBufferWrite)
1328:.\Generated_Source\PSoC5/PSOC4.c ****             {
1329:.\Generated_Source\PSoC5/PSOC4.c ****                 size = (PSOC4_txBufferWrite - PSOC4_txBufferRead);
1330:.\Generated_Source\PSoC5/PSOC4.c ****             }
1331:.\Generated_Source\PSoC5/PSOC4.c ****             else
1332:.\Generated_Source\PSoC5/PSOC4.c ****             {
1333:.\Generated_Source\PSoC5/PSOC4.c ****                 size = (PSOC4_TXBUFFERSIZE - PSOC4_txBufferRead) + PSOC4_txBufferWrite;
1334:.\Generated_Source\PSoC5/PSOC4.c ****             }
1335:.\Generated_Source\PSoC5/PSOC4.c **** 
1336:.\Generated_Source\PSoC5/PSOC4.c ****             /* Enable Tx interrupt. */
1337:.\Generated_Source\PSoC5/PSOC4.c ****             #if(PSOC4_TX_INTERRUPT_ENABLED)
1338:.\Generated_Source\PSoC5/PSOC4.c ****                 PSOC4_EnableTxInt();
1339:.\Generated_Source\PSoC5/PSOC4.c ****             #endif /* End PSOC4_TX_INTERRUPT_ENABLED */
1340:.\Generated_Source\PSoC5/PSOC4.c **** 
1341:.\Generated_Source\PSoC5/PSOC4.c ****         #else /* PSOC4_TXBUFFERSIZE > PSOC4_FIFO_LENGTH */
1342:.\Generated_Source\PSoC5/PSOC4.c **** 
1343:.\Generated_Source\PSoC5/PSOC4.c ****             size = PSOC4_TXSTATUS_REG;
 1439              		.loc 1 1343 0
 1440 0006 46F26443 		movw	r3, #25700
 1441 000a C4F20003 		movt	r3, 16384
 1442 000e 1B78     		ldrb	r3, [r3, #0]
 1443 0010 FB71     		strb	r3, [r7, #7]
1344:.\Generated_Source\PSoC5/PSOC4.c **** 
1345:.\Generated_Source\PSoC5/PSOC4.c ****             /* Is the fifo is full. */
1346:.\Generated_Source\PSoC5/PSOC4.c ****             if((size & PSOC4_TX_STS_FIFO_FULL) != 0u)
ARM GAS  C:\Users\javier\AppData\Local\Temp\ccuiDKAi.s 			page 50


 1444              		.loc 1 1346 0
 1445 0012 FB79     		ldrb	r3, [r7, #7]	@ zero_extendqisi2
 1446 0014 03F00403 		and	r3, r3, #4
 1447 0018 002B     		cmp	r3, #0
 1448 001a 03D0     		beq	.L58
1347:.\Generated_Source\PSoC5/PSOC4.c ****             {
1348:.\Generated_Source\PSoC5/PSOC4.c ****                 size = PSOC4_FIFO_LENGTH;
 1449              		.loc 1 1348 0
 1450 001c 4FF00403 		mov	r3, #4
 1451 0020 FB71     		strb	r3, [r7, #7]
 1452 0022 0BE0     		b	.L59
 1453              	.L58:
1349:.\Generated_Source\PSoC5/PSOC4.c ****             }
1350:.\Generated_Source\PSoC5/PSOC4.c ****             else if((size & PSOC4_TX_STS_FIFO_EMPTY) != 0u)
 1454              		.loc 1 1350 0
 1455 0024 FB79     		ldrb	r3, [r7, #7]	@ zero_extendqisi2
 1456 0026 03F00203 		and	r3, r3, #2
 1457 002a 002B     		cmp	r3, #0
 1458 002c 03D0     		beq	.L60
1351:.\Generated_Source\PSoC5/PSOC4.c ****             {
1352:.\Generated_Source\PSoC5/PSOC4.c ****                 size = 0u;
 1459              		.loc 1 1352 0
 1460 002e 4FF00003 		mov	r3, #0
 1461 0032 FB71     		strb	r3, [r7, #7]
 1462 0034 02E0     		b	.L59
 1463              	.L60:
1353:.\Generated_Source\PSoC5/PSOC4.c ****             }
1354:.\Generated_Source\PSoC5/PSOC4.c ****             else
1355:.\Generated_Source\PSoC5/PSOC4.c ****             {
1356:.\Generated_Source\PSoC5/PSOC4.c ****                 /* We only know there is data in the fifo. */
1357:.\Generated_Source\PSoC5/PSOC4.c ****                 size = 1u;
 1464              		.loc 1 1357 0
 1465 0036 4FF00103 		mov	r3, #1
 1466 003a FB71     		strb	r3, [r7, #7]
 1467              	.L59:
1358:.\Generated_Source\PSoC5/PSOC4.c ****             }
1359:.\Generated_Source\PSoC5/PSOC4.c **** 
1360:.\Generated_Source\PSoC5/PSOC4.c ****         #endif /* End PSOC4_TXBUFFERSIZE > PSOC4_FIFO_LENGTH */
1361:.\Generated_Source\PSoC5/PSOC4.c **** 
1362:.\Generated_Source\PSoC5/PSOC4.c ****         return(size);
 1468              		.loc 1 1362 0
 1469 003c FB79     		ldrb	r3, [r7, #7]	@ zero_extendqisi2
1363:.\Generated_Source\PSoC5/PSOC4.c ****     }
 1470              		.loc 1 1363 0
 1471 003e 1846     		mov	r0, r3
 1472 0040 07F10C07 		add	r7, r7, #12
 1473 0044 BD46     		mov	sp, r7
 1474 0046 80BC     		pop	{r7}
 1475 0048 7047     		bx	lr
 1476              		.cfi_endproc
 1477              	.LFE25:
 1478              		.size	PSOC4_GetTxBufferSize, .-PSOC4_GetTxBufferSize
 1479 004a 00BF     		.section	.text.PSOC4_ClearTxBuffer,"ax",%progbits
 1480              		.align	2
 1481              		.global	PSOC4_ClearTxBuffer
 1482              		.thumb
 1483              		.thumb_func
ARM GAS  C:\Users\javier\AppData\Local\Temp\ccuiDKAi.s 			page 51


 1484              		.type	PSOC4_ClearTxBuffer, %function
 1485              	PSOC4_ClearTxBuffer:
 1486              	.LFB26:
1364:.\Generated_Source\PSoC5/PSOC4.c **** 
1365:.\Generated_Source\PSoC5/PSOC4.c **** 
1366:.\Generated_Source\PSoC5/PSOC4.c ****     /*******************************************************************************
1367:.\Generated_Source\PSoC5/PSOC4.c ****     * Function Name: PSOC4_ClearTxBuffer
1368:.\Generated_Source\PSoC5/PSOC4.c ****     ********************************************************************************
1369:.\Generated_Source\PSoC5/PSOC4.c ****     *
1370:.\Generated_Source\PSoC5/PSOC4.c ****     * Summary:
1371:.\Generated_Source\PSoC5/PSOC4.c ****     *  Clears the TX RAM buffer by setting the read and write pointers both to zero.
1372:.\Generated_Source\PSoC5/PSOC4.c ****     *  Clears the hardware TX FIFO.  Any data present in the FIFO will not be sent.
1373:.\Generated_Source\PSoC5/PSOC4.c ****     *
1374:.\Generated_Source\PSoC5/PSOC4.c ****     * Parameters:
1375:.\Generated_Source\PSoC5/PSOC4.c ****     *  None.
1376:.\Generated_Source\PSoC5/PSOC4.c ****     *
1377:.\Generated_Source\PSoC5/PSOC4.c ****     * Return:
1378:.\Generated_Source\PSoC5/PSOC4.c ****     *  None.
1379:.\Generated_Source\PSoC5/PSOC4.c ****     *
1380:.\Generated_Source\PSoC5/PSOC4.c ****     * Global Variables:
1381:.\Generated_Source\PSoC5/PSOC4.c ****     *  PSOC4_txBufferWrite - cleared to zero.
1382:.\Generated_Source\PSoC5/PSOC4.c ****     *  PSOC4_txBufferRead - cleared to zero.
1383:.\Generated_Source\PSoC5/PSOC4.c ****     *
1384:.\Generated_Source\PSoC5/PSOC4.c ****     * Reentrant:
1385:.\Generated_Source\PSoC5/PSOC4.c ****     *  No.
1386:.\Generated_Source\PSoC5/PSOC4.c ****     *
1387:.\Generated_Source\PSoC5/PSOC4.c ****     * Theory:
1388:.\Generated_Source\PSoC5/PSOC4.c ****     *  Setting the pointers to zero makes the system believe there is no data to
1389:.\Generated_Source\PSoC5/PSOC4.c ****     *  read and writing will resume at address 0 overwriting any data that may have
1390:.\Generated_Source\PSoC5/PSOC4.c ****     *  remained in the RAM.
1391:.\Generated_Source\PSoC5/PSOC4.c ****     *
1392:.\Generated_Source\PSoC5/PSOC4.c ****     * Side Effects:
1393:.\Generated_Source\PSoC5/PSOC4.c ****     *  Any received data not read from the RAM buffer will be lost when overwritten.
1394:.\Generated_Source\PSoC5/PSOC4.c ****     *
1395:.\Generated_Source\PSoC5/PSOC4.c ****     *******************************************************************************/
1396:.\Generated_Source\PSoC5/PSOC4.c ****     void PSOC4_ClearTxBuffer(void) 
1397:.\Generated_Source\PSoC5/PSOC4.c ****     {
 1487              		.loc 1 1397 0
 1488              		.cfi_startproc
 1489              		@ args = 0, pretend = 0, frame = 8
 1490              		@ frame_needed = 1, uses_anonymous_args = 0
 1491 0000 80B5     		push	{r7, lr}
 1492              	.LCFI71:
 1493              		.cfi_def_cfa_offset 8
 1494              		.cfi_offset 7, -8
 1495              		.cfi_offset 14, -4
 1496 0002 82B0     		sub	sp, sp, #8
 1497              	.LCFI72:
 1498              		.cfi_def_cfa_offset 16
 1499 0004 00AF     		add	r7, sp, #0
 1500              	.LCFI73:
 1501              		.cfi_def_cfa_register 7
1398:.\Generated_Source\PSoC5/PSOC4.c ****         uint8 enableInterrupts;
1399:.\Generated_Source\PSoC5/PSOC4.c **** 
1400:.\Generated_Source\PSoC5/PSOC4.c ****         /* Enter critical section */
1401:.\Generated_Source\PSoC5/PSOC4.c ****         enableInterrupts = CyEnterCriticalSection();
 1502              		.loc 1 1401 0
ARM GAS  C:\Users\javier\AppData\Local\Temp\ccuiDKAi.s 			page 52


 1503 0006 FFF7FEFF 		bl	CyEnterCriticalSection
 1504 000a 0346     		mov	r3, r0
 1505 000c FB71     		strb	r3, [r7, #7]
1402:.\Generated_Source\PSoC5/PSOC4.c ****         /* clear the HW FIFO */
1403:.\Generated_Source\PSoC5/PSOC4.c ****         PSOC4_TXDATA_AUX_CTL_REG |=  PSOC4_TX_FIFO_CLR;
 1506              		.loc 1 1403 0
 1507 000e 46F29443 		movw	r3, #25748
 1508 0012 C4F20003 		movt	r3, 16384
 1509 0016 46F29442 		movw	r2, #25748
 1510 001a C4F20002 		movt	r2, 16384
 1511 001e 1278     		ldrb	r2, [r2, #0]
 1512 0020 D2B2     		uxtb	r2, r2
 1513 0022 42F00102 		orr	r2, r2, #1
 1514 0026 D2B2     		uxtb	r2, r2
 1515 0028 1A70     		strb	r2, [r3, #0]
1404:.\Generated_Source\PSoC5/PSOC4.c ****         PSOC4_TXDATA_AUX_CTL_REG &= (uint8)~PSOC4_TX_FIFO_CLR;
 1516              		.loc 1 1404 0
 1517 002a 46F29443 		movw	r3, #25748
 1518 002e C4F20003 		movt	r3, 16384
 1519 0032 46F29442 		movw	r2, #25748
 1520 0036 C4F20002 		movt	r2, 16384
 1521 003a 1278     		ldrb	r2, [r2, #0]
 1522 003c D2B2     		uxtb	r2, r2
 1523 003e 22F00102 		bic	r2, r2, #1
 1524 0042 D2B2     		uxtb	r2, r2
 1525 0044 1A70     		strb	r2, [r3, #0]
1405:.\Generated_Source\PSoC5/PSOC4.c ****         /* Exit critical section */
1406:.\Generated_Source\PSoC5/PSOC4.c ****         CyExitCriticalSection(enableInterrupts);
 1526              		.loc 1 1406 0
 1527 0046 FB79     		ldrb	r3, [r7, #7]	@ zero_extendqisi2
 1528 0048 1846     		mov	r0, r3
 1529 004a FFF7FEFF 		bl	CyExitCriticalSection
1407:.\Generated_Source\PSoC5/PSOC4.c **** 
1408:.\Generated_Source\PSoC5/PSOC4.c ****         #if(PSOC4_TXBUFFERSIZE > PSOC4_FIFO_LENGTH)
1409:.\Generated_Source\PSoC5/PSOC4.c **** 
1410:.\Generated_Source\PSoC5/PSOC4.c ****             /* Disable Tx interrupt. */
1411:.\Generated_Source\PSoC5/PSOC4.c ****             /* Protect variables that could change on interrupt. */
1412:.\Generated_Source\PSoC5/PSOC4.c ****             #if(PSOC4_TX_INTERRUPT_ENABLED)
1413:.\Generated_Source\PSoC5/PSOC4.c ****                 PSOC4_DisableTxInt();
1414:.\Generated_Source\PSoC5/PSOC4.c ****             #endif /* End PSOC4_TX_INTERRUPT_ENABLED */
1415:.\Generated_Source\PSoC5/PSOC4.c **** 
1416:.\Generated_Source\PSoC5/PSOC4.c ****             PSOC4_txBufferRead = 0u;
1417:.\Generated_Source\PSoC5/PSOC4.c ****             PSOC4_txBufferWrite = 0u;
1418:.\Generated_Source\PSoC5/PSOC4.c **** 
1419:.\Generated_Source\PSoC5/PSOC4.c ****             /* Enable Tx interrupt. */
1420:.\Generated_Source\PSoC5/PSOC4.c ****             #if(PSOC4_TX_INTERRUPT_ENABLED)
1421:.\Generated_Source\PSoC5/PSOC4.c ****                 PSOC4_EnableTxInt();
1422:.\Generated_Source\PSoC5/PSOC4.c ****             #endif /* End PSOC4_TX_INTERRUPT_ENABLED */
1423:.\Generated_Source\PSoC5/PSOC4.c **** 
1424:.\Generated_Source\PSoC5/PSOC4.c ****         #endif /* End PSOC4_TXBUFFERSIZE > PSOC4_FIFO_LENGTH */
1425:.\Generated_Source\PSoC5/PSOC4.c ****     }
 1530              		.loc 1 1425 0
 1531 004e 07F10807 		add	r7, r7, #8
 1532 0052 BD46     		mov	sp, r7
 1533 0054 80BD     		pop	{r7, pc}
 1534              		.cfi_endproc
 1535              	.LFE26:
ARM GAS  C:\Users\javier\AppData\Local\Temp\ccuiDKAi.s 			page 53


 1536              		.size	PSOC4_ClearTxBuffer, .-PSOC4_ClearTxBuffer
 1537 0056 00BF     		.section	.text.PSOC4_SendBreak,"ax",%progbits
 1538              		.align	2
 1539              		.global	PSOC4_SendBreak
 1540              		.thumb
 1541              		.thumb_func
 1542              		.type	PSOC4_SendBreak, %function
 1543              	PSOC4_SendBreak:
 1544              	.LFB27:
1426:.\Generated_Source\PSoC5/PSOC4.c **** 
1427:.\Generated_Source\PSoC5/PSOC4.c **** 
1428:.\Generated_Source\PSoC5/PSOC4.c ****     /*******************************************************************************
1429:.\Generated_Source\PSoC5/PSOC4.c ****     * Function Name: PSOC4_SendBreak
1430:.\Generated_Source\PSoC5/PSOC4.c ****     ********************************************************************************
1431:.\Generated_Source\PSoC5/PSOC4.c ****     *
1432:.\Generated_Source\PSoC5/PSOC4.c ****     * Summary:
1433:.\Generated_Source\PSoC5/PSOC4.c ****     *  Write a Break command to the UART
1434:.\Generated_Source\PSoC5/PSOC4.c ****     *
1435:.\Generated_Source\PSoC5/PSOC4.c ****     * Parameters:
1436:.\Generated_Source\PSoC5/PSOC4.c ****     *  uint8 retMode:  Wait mode,
1437:.\Generated_Source\PSoC5/PSOC4.c ****     *   0 - Initialize registers for Break, sends the Break signal and return
1438:.\Generated_Source\PSoC5/PSOC4.c ****     *       imediately.
1439:.\Generated_Source\PSoC5/PSOC4.c ****     *   1 - Wait until Break sending is complete, reinitialize registers to normal
1440:.\Generated_Source\PSoC5/PSOC4.c ****     *       transmission mode then return.
1441:.\Generated_Source\PSoC5/PSOC4.c ****     *   2 - Reinitialize registers to normal transmission mode then return.
1442:.\Generated_Source\PSoC5/PSOC4.c ****     *   3 - both steps: 0 and 1
1443:.\Generated_Source\PSoC5/PSOC4.c ****     *       init registers for Break, send Break signal
1444:.\Generated_Source\PSoC5/PSOC4.c ****     *       wait until Break sending is complete, reinit registers to normal
1445:.\Generated_Source\PSoC5/PSOC4.c ****     *       transmission mode then return.
1446:.\Generated_Source\PSoC5/PSOC4.c ****     *
1447:.\Generated_Source\PSoC5/PSOC4.c ****     * Return:
1448:.\Generated_Source\PSoC5/PSOC4.c ****     *  None.
1449:.\Generated_Source\PSoC5/PSOC4.c ****     *
1450:.\Generated_Source\PSoC5/PSOC4.c ****     * Global Variables:
1451:.\Generated_Source\PSoC5/PSOC4.c ****     *  PSOC4_initVar - checked to identify that the component has been
1452:.\Generated_Source\PSoC5/PSOC4.c ****     *     initialized.
1453:.\Generated_Source\PSoC5/PSOC4.c ****     *  tx_period - static variable, used for keeping TX period configuration.
1454:.\Generated_Source\PSoC5/PSOC4.c ****     *
1455:.\Generated_Source\PSoC5/PSOC4.c ****     * Reentrant:
1456:.\Generated_Source\PSoC5/PSOC4.c ****     *  No.
1457:.\Generated_Source\PSoC5/PSOC4.c ****     *
1458:.\Generated_Source\PSoC5/PSOC4.c ****     * Theory:
1459:.\Generated_Source\PSoC5/PSOC4.c ****     *  SendBreak function initializes registers to send 13-bit break signal. It is
1460:.\Generated_Source\PSoC5/PSOC4.c ****     *  important to return the registers configuration to normal for continue 8-bit
1461:.\Generated_Source\PSoC5/PSOC4.c ****     *  operation.
1462:.\Generated_Source\PSoC5/PSOC4.c ****     *  Trere are 3 variants for this API usage:
1463:.\Generated_Source\PSoC5/PSOC4.c ****     *  1) SendBreak(3) - function will send the Break signal and take care on the
1464:.\Generated_Source\PSoC5/PSOC4.c ****     *     configuration returning. Funcition will block CPU untill transmition
1465:.\Generated_Source\PSoC5/PSOC4.c ****     *     complete.
1466:.\Generated_Source\PSoC5/PSOC4.c ****     *  2) User may want to use bloking time if UART configured to the low speed
1467:.\Generated_Source\PSoC5/PSOC4.c ****     *     operation
1468:.\Generated_Source\PSoC5/PSOC4.c ****     *     Emample for this case:
1469:.\Generated_Source\PSoC5/PSOC4.c ****     *     SendBreak(0);     - init Break signal transmition
1470:.\Generated_Source\PSoC5/PSOC4.c ****     *         Add your code here to use CPU time
1471:.\Generated_Source\PSoC5/PSOC4.c ****     *     SendBreak(1);     - complete Break operation
1472:.\Generated_Source\PSoC5/PSOC4.c ****     *  3) Same to 2) but user may want to init and use the interrupt for complete
1473:.\Generated_Source\PSoC5/PSOC4.c ****     *     break operation.
ARM GAS  C:\Users\javier\AppData\Local\Temp\ccuiDKAi.s 			page 54


1474:.\Generated_Source\PSoC5/PSOC4.c ****     *     Example for this case:
1475:.\Generated_Source\PSoC5/PSOC4.c ****     *     Init TX interrupt whith "TX - On TX Complete" parameter
1476:.\Generated_Source\PSoC5/PSOC4.c ****     *     SendBreak(0);     - init Break signal transmition
1477:.\Generated_Source\PSoC5/PSOC4.c ****     *         Add your code here to use CPU time
1478:.\Generated_Source\PSoC5/PSOC4.c ****     *     When interrupt appear with UART_TX_STS_COMPLETE status:
1479:.\Generated_Source\PSoC5/PSOC4.c ****     *     SendBreak(2);     - complete Break operation
1480:.\Generated_Source\PSoC5/PSOC4.c ****     *
1481:.\Generated_Source\PSoC5/PSOC4.c ****     * Side Effects:
1482:.\Generated_Source\PSoC5/PSOC4.c ****     *   Uses static variable to keep registers configuration.
1483:.\Generated_Source\PSoC5/PSOC4.c ****     *
1484:.\Generated_Source\PSoC5/PSOC4.c ****     *******************************************************************************/
1485:.\Generated_Source\PSoC5/PSOC4.c ****     void PSOC4_SendBreak(uint8 retMode) 
1486:.\Generated_Source\PSoC5/PSOC4.c ****     {
 1545              		.loc 1 1486 0
 1546              		.cfi_startproc
 1547              		@ args = 0, pretend = 0, frame = 16
 1548              		@ frame_needed = 1, uses_anonymous_args = 0
 1549              		@ link register save eliminated.
 1550 0000 80B4     		push	{r7}
 1551              	.LCFI74:
 1552              		.cfi_def_cfa_offset 4
 1553              		.cfi_offset 7, -4
 1554 0002 85B0     		sub	sp, sp, #20
 1555              	.LCFI75:
 1556              		.cfi_def_cfa_offset 24
 1557 0004 00AF     		add	r7, sp, #0
 1558              	.LCFI76:
 1559              		.cfi_def_cfa_register 7
 1560 0006 0346     		mov	r3, r0
 1561 0008 FB71     		strb	r3, [r7, #7]
1487:.\Generated_Source\PSoC5/PSOC4.c **** 
1488:.\Generated_Source\PSoC5/PSOC4.c ****         /* If not Initialized then skip this function*/
1489:.\Generated_Source\PSoC5/PSOC4.c ****         if(PSOC4_initVar != 0u)
 1562              		.loc 1 1489 0
 1563 000a 40F20003 		movw	r3, #:lower16:PSOC4_initVar
 1564 000e C0F20003 		movt	r3, #:upper16:PSOC4_initVar
 1565 0012 1B78     		ldrb	r3, [r3, #0]	@ zero_extendqisi2
 1566 0014 002B     		cmp	r3, #0
 1567 0016 50D0     		beq	.L63
 1568              	.LBB2:
1490:.\Generated_Source\PSoC5/PSOC4.c ****         {
1491:.\Generated_Source\PSoC5/PSOC4.c ****             /*Set the Counter to 13-bits and transmit a 00 byte*/
1492:.\Generated_Source\PSoC5/PSOC4.c ****             /*When that is done then reset the counter value back*/
1493:.\Generated_Source\PSoC5/PSOC4.c ****             uint8 tmpStat;
1494:.\Generated_Source\PSoC5/PSOC4.c **** 
1495:.\Generated_Source\PSoC5/PSOC4.c ****             #if(PSOC4_HD_ENABLED) /* Half Duplex mode*/
1496:.\Generated_Source\PSoC5/PSOC4.c **** 
1497:.\Generated_Source\PSoC5/PSOC4.c ****                 if( (retMode == PSOC4_SEND_BREAK) ||
1498:.\Generated_Source\PSoC5/PSOC4.c ****                     (retMode == PSOC4_SEND_WAIT_REINIT ) )
1499:.\Generated_Source\PSoC5/PSOC4.c ****                 {
1500:.\Generated_Source\PSoC5/PSOC4.c ****                     /* CTRL_HD_SEND_BREAK - sends break bits in HD mode*/
1501:.\Generated_Source\PSoC5/PSOC4.c ****                     PSOC4_WriteControlRegister(PSOC4_ReadControlRegister() |
1502:.\Generated_Source\PSoC5/PSOC4.c ****                                                           PSOC4_CTRL_HD_SEND_BREAK);
1503:.\Generated_Source\PSoC5/PSOC4.c ****                     /* Send zeros*/
1504:.\Generated_Source\PSoC5/PSOC4.c ****                     PSOC4_TXDATA_REG = 0u;
1505:.\Generated_Source\PSoC5/PSOC4.c **** 
1506:.\Generated_Source\PSoC5/PSOC4.c ****                     do /*wait until transmit starts*/
ARM GAS  C:\Users\javier\AppData\Local\Temp\ccuiDKAi.s 			page 55


1507:.\Generated_Source\PSoC5/PSOC4.c ****                     {
1508:.\Generated_Source\PSoC5/PSOC4.c ****                         tmpStat = PSOC4_TXSTATUS_REG;
1509:.\Generated_Source\PSoC5/PSOC4.c ****                     }while((tmpStat & PSOC4_TX_STS_FIFO_EMPTY) != 0u);
1510:.\Generated_Source\PSoC5/PSOC4.c ****                 }
1511:.\Generated_Source\PSoC5/PSOC4.c **** 
1512:.\Generated_Source\PSoC5/PSOC4.c ****                 if( (retMode == PSOC4_WAIT_FOR_COMPLETE_REINIT) ||
1513:.\Generated_Source\PSoC5/PSOC4.c ****                     (retMode == PSOC4_SEND_WAIT_REINIT) )
1514:.\Generated_Source\PSoC5/PSOC4.c ****                 {
1515:.\Generated_Source\PSoC5/PSOC4.c ****                     do /*wait until transmit complete*/
1516:.\Generated_Source\PSoC5/PSOC4.c ****                     {
1517:.\Generated_Source\PSoC5/PSOC4.c ****                         tmpStat = PSOC4_TXSTATUS_REG;
1518:.\Generated_Source\PSoC5/PSOC4.c ****                     }while(((uint8)~tmpStat & PSOC4_TX_STS_COMPLETE) != 0u);
1519:.\Generated_Source\PSoC5/PSOC4.c ****                 }
1520:.\Generated_Source\PSoC5/PSOC4.c **** 
1521:.\Generated_Source\PSoC5/PSOC4.c ****                 if( (retMode == PSOC4_WAIT_FOR_COMPLETE_REINIT) ||
1522:.\Generated_Source\PSoC5/PSOC4.c ****                     (retMode == PSOC4_REINIT) ||
1523:.\Generated_Source\PSoC5/PSOC4.c ****                     (retMode == PSOC4_SEND_WAIT_REINIT) )
1524:.\Generated_Source\PSoC5/PSOC4.c ****                 {
1525:.\Generated_Source\PSoC5/PSOC4.c ****                     PSOC4_WriteControlRegister(PSOC4_ReadControlRegister() &
1526:.\Generated_Source\PSoC5/PSOC4.c ****                                                   (uint8)~PSOC4_CTRL_HD_SEND_BREAK);
1527:.\Generated_Source\PSoC5/PSOC4.c ****                 }
1528:.\Generated_Source\PSoC5/PSOC4.c **** 
1529:.\Generated_Source\PSoC5/PSOC4.c ****             #else /* PSOC4_HD_ENABLED Full Duplex mode */
1530:.\Generated_Source\PSoC5/PSOC4.c **** 
1531:.\Generated_Source\PSoC5/PSOC4.c ****                 static uint8 tx_period;
1532:.\Generated_Source\PSoC5/PSOC4.c **** 
1533:.\Generated_Source\PSoC5/PSOC4.c ****                 if( (retMode == PSOC4_SEND_BREAK) ||
 1569              		.loc 1 1533 0
 1570 0018 FB79     		ldrb	r3, [r7, #7]	@ zero_extendqisi2
 1571 001a 002B     		cmp	r3, #0
 1572 001c 02D0     		beq	.L65
 1573              		.loc 1 1533 0 is_stmt 0 discriminator 1
 1574 001e FB79     		ldrb	r3, [r7, #7]	@ zero_extendqisi2
 1575 0020 032B     		cmp	r3, #3
 1576 0022 23D1     		bne	.L66
 1577              	.L65:
1534:.\Generated_Source\PSoC5/PSOC4.c ****                     (retMode == PSOC4_SEND_WAIT_REINIT) )
1535:.\Generated_Source\PSoC5/PSOC4.c ****                 {
1536:.\Generated_Source\PSoC5/PSOC4.c ****                     /* CTRL_HD_SEND_BREAK - skip to send parity bit at Break signal in Full Duplex 
1537:.\Generated_Source\PSoC5/PSOC4.c ****                     #if( (PSOC4_PARITY_TYPE != PSOC4__B_UART__NONE_REVB) || \
1538:.\Generated_Source\PSoC5/PSOC4.c ****                                         (PSOC4_PARITY_TYPE_SW != 0u) )
1539:.\Generated_Source\PSoC5/PSOC4.c ****                         PSOC4_WriteControlRegister(PSOC4_ReadControlRegister() |
1540:.\Generated_Source\PSoC5/PSOC4.c ****                                                               PSOC4_CTRL_HD_SEND_BREAK);
1541:.\Generated_Source\PSoC5/PSOC4.c ****                     #endif /* End PSOC4_PARITY_TYPE != PSOC4__B_UART__NONE_REVB  */
1542:.\Generated_Source\PSoC5/PSOC4.c **** 
1543:.\Generated_Source\PSoC5/PSOC4.c ****                     #if(PSOC4_TXCLKGEN_DP)
1544:.\Generated_Source\PSoC5/PSOC4.c ****                         tx_period = PSOC4_TXBITCLKTX_COMPLETE_REG;
 1578              		.loc 1 1544 0 is_stmt 1
 1579 0024 46F23543 		movw	r3, #25653
 1580 0028 C4F20003 		movt	r3, 16384
 1581 002c 1B78     		ldrb	r3, [r3, #0]
 1582 002e DAB2     		uxtb	r2, r3
 1583 0030 40F20003 		movw	r3, #:lower16:tx_period.4944
 1584 0034 C0F20003 		movt	r3, #:upper16:tx_period.4944
 1585 0038 1A70     		strb	r2, [r3, #0]
1545:.\Generated_Source\PSoC5/PSOC4.c ****                         PSOC4_TXBITCLKTX_COMPLETE_REG = PSOC4_TXBITCTR_BREAKBITS;
 1586              		.loc 1 1545 0
ARM GAS  C:\Users\javier\AppData\Local\Temp\ccuiDKAi.s 			page 56


 1587 003a 46F23543 		movw	r3, #25653
 1588 003e C4F20003 		movt	r3, 16384
 1589 0042 4FF06702 		mov	r2, #103
 1590 0046 1A70     		strb	r2, [r3, #0]
1546:.\Generated_Source\PSoC5/PSOC4.c ****                     #else
1547:.\Generated_Source\PSoC5/PSOC4.c ****                         tx_period = PSOC4_TXBITCTR_PERIOD_REG;
1548:.\Generated_Source\PSoC5/PSOC4.c ****                         PSOC4_TXBITCTR_PERIOD_REG = PSOC4_TXBITCTR_BREAKBITS8X;
1549:.\Generated_Source\PSoC5/PSOC4.c ****                     #endif /* End PSOC4_TXCLKGEN_DP */
1550:.\Generated_Source\PSoC5/PSOC4.c **** 
1551:.\Generated_Source\PSoC5/PSOC4.c ****                     /* Send zeros*/
1552:.\Generated_Source\PSoC5/PSOC4.c ****                     PSOC4_TXDATA_REG = 0u;
 1591              		.loc 1 1552 0
 1592 0048 46F24443 		movw	r3, #25668
 1593 004c C4F20003 		movt	r3, 16384
 1594 0050 4FF00002 		mov	r2, #0
 1595 0054 1A70     		strb	r2, [r3, #0]
 1596              	.L67:
1553:.\Generated_Source\PSoC5/PSOC4.c **** 
1554:.\Generated_Source\PSoC5/PSOC4.c ****                     do /* wait until transmit starts */
1555:.\Generated_Source\PSoC5/PSOC4.c ****                     {
1556:.\Generated_Source\PSoC5/PSOC4.c ****                         tmpStat = PSOC4_TXSTATUS_REG;
 1597              		.loc 1 1556 0 discriminator 1
 1598 0056 46F26443 		movw	r3, #25700
 1599 005a C4F20003 		movt	r3, 16384
 1600 005e 1B78     		ldrb	r3, [r3, #0]
 1601 0060 FB73     		strb	r3, [r7, #15]
1557:.\Generated_Source\PSoC5/PSOC4.c ****                     }while((tmpStat & PSOC4_TX_STS_FIFO_EMPTY) != 0u);
 1602              		.loc 1 1557 0 discriminator 1
 1603 0062 FB7B     		ldrb	r3, [r7, #15]	@ zero_extendqisi2
 1604 0064 03F00203 		and	r3, r3, #2
 1605 0068 002B     		cmp	r3, #0
 1606 006a F4D1     		bne	.L67
 1607              	.L66:
1558:.\Generated_Source\PSoC5/PSOC4.c ****                 }
1559:.\Generated_Source\PSoC5/PSOC4.c **** 
1560:.\Generated_Source\PSoC5/PSOC4.c ****                 if( (retMode == PSOC4_WAIT_FOR_COMPLETE_REINIT) ||
 1608              		.loc 1 1560 0
 1609 006c FB79     		ldrb	r3, [r7, #7]	@ zero_extendqisi2
 1610 006e 012B     		cmp	r3, #1
 1611 0070 02D0     		beq	.L68
 1612              		.loc 1 1560 0 is_stmt 0 discriminator 1
 1613 0072 FB79     		ldrb	r3, [r7, #7]	@ zero_extendqisi2
 1614 0074 032B     		cmp	r3, #3
 1615 0076 0DD1     		bne	.L69
 1616              	.L68:
1561:.\Generated_Source\PSoC5/PSOC4.c ****                     (retMode == PSOC4_SEND_WAIT_REINIT) )
1562:.\Generated_Source\PSoC5/PSOC4.c ****                 {
1563:.\Generated_Source\PSoC5/PSOC4.c ****                     do /*wait until transmit complete*/
1564:.\Generated_Source\PSoC5/PSOC4.c ****                     {
1565:.\Generated_Source\PSoC5/PSOC4.c ****                         tmpStat = PSOC4_TXSTATUS_REG;
 1617              		.loc 1 1565 0 is_stmt 1 discriminator 1
 1618 0078 46F26443 		movw	r3, #25700
 1619 007c C4F20003 		movt	r3, 16384
 1620 0080 1B78     		ldrb	r3, [r3, #0]
 1621 0082 FB73     		strb	r3, [r7, #15]
1566:.\Generated_Source\PSoC5/PSOC4.c ****                     }while(((uint8)~tmpStat & PSOC4_TX_STS_COMPLETE) != 0u);
 1622              		.loc 1 1566 0 discriminator 1
ARM GAS  C:\Users\javier\AppData\Local\Temp\ccuiDKAi.s 			page 57


 1623 0084 FB7B     		ldrb	r3, [r7, #15]
 1624 0086 6FEA0303 		mvn	r3, r3
 1625 008a DBB2     		uxtb	r3, r3
 1626 008c 03F00103 		and	r3, r3, #1
 1627 0090 002B     		cmp	r3, #0
 1628 0092 F1D1     		bne	.L68
 1629              	.L69:
1567:.\Generated_Source\PSoC5/PSOC4.c ****                 }
1568:.\Generated_Source\PSoC5/PSOC4.c **** 
1569:.\Generated_Source\PSoC5/PSOC4.c ****                 if( (retMode == PSOC4_WAIT_FOR_COMPLETE_REINIT) ||
 1630              		.loc 1 1569 0
 1631 0094 FB79     		ldrb	r3, [r7, #7]	@ zero_extendqisi2
 1632 0096 012B     		cmp	r3, #1
 1633 0098 05D0     		beq	.L70
 1634              		.loc 1 1569 0 is_stmt 0 discriminator 1
 1635 009a FB79     		ldrb	r3, [r7, #7]	@ zero_extendqisi2
 1636 009c 022B     		cmp	r3, #2
 1637 009e 02D0     		beq	.L70
1570:.\Generated_Source\PSoC5/PSOC4.c ****                     (retMode == PSOC4_REINIT) ||
 1638              		.loc 1 1570 0 is_stmt 1
 1639 00a0 FB79     		ldrb	r3, [r7, #7]	@ zero_extendqisi2
 1640 00a2 032B     		cmp	r3, #3
 1641 00a4 09D1     		bne	.L63
 1642              	.L70:
1571:.\Generated_Source\PSoC5/PSOC4.c ****                     (retMode == PSOC4_SEND_WAIT_REINIT) )
1572:.\Generated_Source\PSoC5/PSOC4.c ****                 {
1573:.\Generated_Source\PSoC5/PSOC4.c **** 
1574:.\Generated_Source\PSoC5/PSOC4.c ****                     #if(PSOC4_TXCLKGEN_DP)
1575:.\Generated_Source\PSoC5/PSOC4.c ****                         PSOC4_TXBITCLKTX_COMPLETE_REG = tx_period;
 1643              		.loc 1 1575 0
 1644 00a6 46F23543 		movw	r3, #25653
 1645 00aa C4F20003 		movt	r3, 16384
 1646 00ae 40F20002 		movw	r2, #:lower16:tx_period.4944
 1647 00b2 C0F20002 		movt	r2, #:upper16:tx_period.4944
 1648 00b6 1278     		ldrb	r2, [r2, #0]	@ zero_extendqisi2
 1649 00b8 1A70     		strb	r2, [r3, #0]
 1650              	.L63:
 1651              	.LBE2:
1576:.\Generated_Source\PSoC5/PSOC4.c ****                     #else
1577:.\Generated_Source\PSoC5/PSOC4.c ****                         PSOC4_TXBITCTR_PERIOD_REG = tx_period;
1578:.\Generated_Source\PSoC5/PSOC4.c ****                     #endif /* End PSOC4_TXCLKGEN_DP */
1579:.\Generated_Source\PSoC5/PSOC4.c **** 
1580:.\Generated_Source\PSoC5/PSOC4.c ****                     #if( (PSOC4_PARITY_TYPE != PSOC4__B_UART__NONE_REVB) || \
1581:.\Generated_Source\PSoC5/PSOC4.c ****                          (PSOC4_PARITY_TYPE_SW != 0u) )
1582:.\Generated_Source\PSoC5/PSOC4.c ****                         PSOC4_WriteControlRegister(PSOC4_ReadControlRegister() &
1583:.\Generated_Source\PSoC5/PSOC4.c ****                                                       (uint8)~PSOC4_CTRL_HD_SEND_BREAK);
1584:.\Generated_Source\PSoC5/PSOC4.c ****                     #endif /* End PSOC4_PARITY_TYPE != NONE */
1585:.\Generated_Source\PSoC5/PSOC4.c ****                 }
1586:.\Generated_Source\PSoC5/PSOC4.c ****             #endif    /* End PSOC4_HD_ENABLED */
1587:.\Generated_Source\PSoC5/PSOC4.c ****         }
1588:.\Generated_Source\PSoC5/PSOC4.c ****     }
 1652              		.loc 1 1588 0
 1653 00ba 07F11407 		add	r7, r7, #20
 1654 00be BD46     		mov	sp, r7
 1655 00c0 80BC     		pop	{r7}
 1656 00c2 7047     		bx	lr
 1657              		.cfi_endproc
ARM GAS  C:\Users\javier\AppData\Local\Temp\ccuiDKAi.s 			page 58


 1658              	.LFE27:
 1659              		.size	PSOC4_SendBreak, .-PSOC4_SendBreak
 1660              		.section	.text.PSOC4_SetTxAddressMode,"ax",%progbits
 1661              		.align	2
 1662              		.global	PSOC4_SetTxAddressMode
 1663              		.thumb
 1664              		.thumb_func
 1665              		.type	PSOC4_SetTxAddressMode, %function
 1666              	PSOC4_SetTxAddressMode:
 1667              	.LFB28:
1589:.\Generated_Source\PSoC5/PSOC4.c **** 
1590:.\Generated_Source\PSoC5/PSOC4.c **** 
1591:.\Generated_Source\PSoC5/PSOC4.c ****     /*******************************************************************************
1592:.\Generated_Source\PSoC5/PSOC4.c ****     * Function Name: PSOC4_SetTxAddressMode
1593:.\Generated_Source\PSoC5/PSOC4.c ****     ********************************************************************************
1594:.\Generated_Source\PSoC5/PSOC4.c ****     *
1595:.\Generated_Source\PSoC5/PSOC4.c ****     * Summary:
1596:.\Generated_Source\PSoC5/PSOC4.c ****     *  Set the transmit addressing mode
1597:.\Generated_Source\PSoC5/PSOC4.c ****     *
1598:.\Generated_Source\PSoC5/PSOC4.c ****     * Parameters:
1599:.\Generated_Source\PSoC5/PSOC4.c ****     *  addressMode: 0 -> Space
1600:.\Generated_Source\PSoC5/PSOC4.c ****     *               1 -> Mark
1601:.\Generated_Source\PSoC5/PSOC4.c ****     *
1602:.\Generated_Source\PSoC5/PSOC4.c ****     * Return:
1603:.\Generated_Source\PSoC5/PSOC4.c ****     *  None.
1604:.\Generated_Source\PSoC5/PSOC4.c ****     *
1605:.\Generated_Source\PSoC5/PSOC4.c ****     *******************************************************************************/
1606:.\Generated_Source\PSoC5/PSOC4.c ****     void PSOC4_SetTxAddressMode(uint8 addressMode) 
1607:.\Generated_Source\PSoC5/PSOC4.c ****     {
 1668              		.loc 1 1607 0
 1669              		.cfi_startproc
 1670              		@ args = 0, pretend = 0, frame = 8
 1671              		@ frame_needed = 1, uses_anonymous_args = 0
 1672              		@ link register save eliminated.
 1673 0000 80B4     		push	{r7}
 1674              	.LCFI77:
 1675              		.cfi_def_cfa_offset 4
 1676              		.cfi_offset 7, -4
 1677 0002 83B0     		sub	sp, sp, #12
 1678              	.LCFI78:
 1679              		.cfi_def_cfa_offset 16
 1680 0004 00AF     		add	r7, sp, #0
 1681              	.LCFI79:
 1682              		.cfi_def_cfa_register 7
 1683 0006 0346     		mov	r3, r0
 1684 0008 FB71     		strb	r3, [r7, #7]
1608:.\Generated_Source\PSoC5/PSOC4.c ****         /* Mark/Space sending enable*/
1609:.\Generated_Source\PSoC5/PSOC4.c ****         if(addressMode != 0u)
1610:.\Generated_Source\PSoC5/PSOC4.c ****         {
1611:.\Generated_Source\PSoC5/PSOC4.c ****             #if( PSOC4_CONTROL_REG_REMOVED == 0u )
1612:.\Generated_Source\PSoC5/PSOC4.c ****                 PSOC4_WriteControlRegister(PSOC4_ReadControlRegister() |
1613:.\Generated_Source\PSoC5/PSOC4.c ****                                                       PSOC4_CTRL_MARK);
1614:.\Generated_Source\PSoC5/PSOC4.c ****             #endif /* End PSOC4_CONTROL_REG_REMOVED == 0u */
1615:.\Generated_Source\PSoC5/PSOC4.c ****         }
1616:.\Generated_Source\PSoC5/PSOC4.c ****         else
1617:.\Generated_Source\PSoC5/PSOC4.c ****         {
1618:.\Generated_Source\PSoC5/PSOC4.c ****             #if( PSOC4_CONTROL_REG_REMOVED == 0u )
ARM GAS  C:\Users\javier\AppData\Local\Temp\ccuiDKAi.s 			page 59


1619:.\Generated_Source\PSoC5/PSOC4.c ****                 PSOC4_WriteControlRegister(PSOC4_ReadControlRegister() &
1620:.\Generated_Source\PSoC5/PSOC4.c ****                                                     (uint8)~PSOC4_CTRL_MARK);
1621:.\Generated_Source\PSoC5/PSOC4.c ****             #endif /* End PSOC4_CONTROL_REG_REMOVED == 0u */
1622:.\Generated_Source\PSoC5/PSOC4.c ****         }
1623:.\Generated_Source\PSoC5/PSOC4.c ****     }
 1685              		.loc 1 1623 0
 1686 000a 07F10C07 		add	r7, r7, #12
 1687 000e BD46     		mov	sp, r7
 1688 0010 80BC     		pop	{r7}
 1689 0012 7047     		bx	lr
 1690              		.cfi_endproc
 1691              	.LFE28:
 1692              		.size	PSOC4_SetTxAddressMode, .-PSOC4_SetTxAddressMode
 1693              		.bss
 1694              	tx_period.4944:
 1695 0005 00       		.space	1
 1696              		.text
 1697              	.Letext0:
 1698              		.file 2 ".\\Generated_Source\\PSoC5\\cytypes.h"