ARM GAS  C:\Users\javier\AppData\Local\Temp\ccKJq17M.s 			page 1


   1              		.cpu cortex-m0
   2              		.fpu softvfp
   3              		.eabi_attribute 20, 1
   4              		.eabi_attribute 21, 1
   5              		.eabi_attribute 23, 3
   6              		.eabi_attribute 24, 1
   7              		.eabi_attribute 25, 1
   8              		.eabi_attribute 26, 1
   9              		.eabi_attribute 30, 6
  10              		.eabi_attribute 34, 0
  11              		.eabi_attribute 18, 4
  12              		.code	16
  13              		.file	"ADC_ACCELEROMETER_INT.c"
  14              		.text
  15              	.Ltext0:
  16              		.cfi_sections	.debug_frame
  17              		.section	.text.ADC_ACCELEROMETER_ISR,"ax",%progbits
  18              		.align	2
  19              		.global	ADC_ACCELEROMETER_ISR
  20              		.code	16
  21              		.thumb_func
  22              		.type	ADC_ACCELEROMETER_ISR, %function
  23              	ADC_ACCELEROMETER_ISR:
  24              	.LFB0:
  25              		.file 1 ".\\Generated_Source\\PSoC4\\ADC_ACCELEROMETER_INT.c"
   1:.\Generated_Source\PSoC4/ADC_ACCELEROMETER_INT.c **** /*******************************************************************************
   2:.\Generated_Source\PSoC4/ADC_ACCELEROMETER_INT.c **** * File Name: ADC_ACCELEROMETER_INT.c
   3:.\Generated_Source\PSoC4/ADC_ACCELEROMETER_INT.c **** * Version 1.10
   4:.\Generated_Source\PSoC4/ADC_ACCELEROMETER_INT.c **** *
   5:.\Generated_Source\PSoC4/ADC_ACCELEROMETER_INT.c **** *  Description:
   6:.\Generated_Source\PSoC4/ADC_ACCELEROMETER_INT.c **** *    This file contains the code that operates during the ADC_SAR interrupt
   7:.\Generated_Source\PSoC4/ADC_ACCELEROMETER_INT.c **** *    service routine.
   8:.\Generated_Source\PSoC4/ADC_ACCELEROMETER_INT.c **** *
   9:.\Generated_Source\PSoC4/ADC_ACCELEROMETER_INT.c **** *   Note:
  10:.\Generated_Source\PSoC4/ADC_ACCELEROMETER_INT.c **** *
  11:.\Generated_Source\PSoC4/ADC_ACCELEROMETER_INT.c **** ********************************************************************************
  12:.\Generated_Source\PSoC4/ADC_ACCELEROMETER_INT.c **** * Copyright 2008-2013, Cypress Semiconductor Corporation.  All rights reserved.
  13:.\Generated_Source\PSoC4/ADC_ACCELEROMETER_INT.c **** * You may use this file only in accordance with the license, terms, conditions,
  14:.\Generated_Source\PSoC4/ADC_ACCELEROMETER_INT.c **** * disclaimers, and limitations in the end user license agreement accompanying
  15:.\Generated_Source\PSoC4/ADC_ACCELEROMETER_INT.c **** * the software package with which this file was provided.
  16:.\Generated_Source\PSoC4/ADC_ACCELEROMETER_INT.c **** *******************************************************************************/
  17:.\Generated_Source\PSoC4/ADC_ACCELEROMETER_INT.c **** 
  18:.\Generated_Source\PSoC4/ADC_ACCELEROMETER_INT.c **** #include "CyLib.h"
  19:.\Generated_Source\PSoC4/ADC_ACCELEROMETER_INT.c **** #include "ADC_ACCELEROMETER.h"
  20:.\Generated_Source\PSoC4/ADC_ACCELEROMETER_INT.c **** 
  21:.\Generated_Source\PSoC4/ADC_ACCELEROMETER_INT.c **** 
  22:.\Generated_Source\PSoC4/ADC_ACCELEROMETER_INT.c **** /******************************************************************************
  23:.\Generated_Source\PSoC4/ADC_ACCELEROMETER_INT.c **** * Custom Declarations and Variables
  24:.\Generated_Source\PSoC4/ADC_ACCELEROMETER_INT.c **** * - add user inlcude files, prototypes and variables between the following
  25:.\Generated_Source\PSoC4/ADC_ACCELEROMETER_INT.c **** *   #START and #END tags
  26:.\Generated_Source\PSoC4/ADC_ACCELEROMETER_INT.c **** ******************************************************************************/
  27:.\Generated_Source\PSoC4/ADC_ACCELEROMETER_INT.c **** /* `#START ADC_SYS_VAR`  */
  28:.\Generated_Source\PSoC4/ADC_ACCELEROMETER_INT.c **** 
  29:.\Generated_Source\PSoC4/ADC_ACCELEROMETER_INT.c **** /* `#END`  */
  30:.\Generated_Source\PSoC4/ADC_ACCELEROMETER_INT.c **** 
  31:.\Generated_Source\PSoC4/ADC_ACCELEROMETER_INT.c **** #if(ADC_ACCELEROMETER_IRQ_REMOVE == 0u)
  32:.\Generated_Source\PSoC4/ADC_ACCELEROMETER_INT.c **** 
ARM GAS  C:\Users\javier\AppData\Local\Temp\ccKJq17M.s 			page 2


  33:.\Generated_Source\PSoC4/ADC_ACCELEROMETER_INT.c **** 
  34:.\Generated_Source\PSoC4/ADC_ACCELEROMETER_INT.c ****     /******************************************************************************
  35:.\Generated_Source\PSoC4/ADC_ACCELEROMETER_INT.c ****     * Function Name: ADC_ACCELEROMETER_ISR
  36:.\Generated_Source\PSoC4/ADC_ACCELEROMETER_INT.c ****     *******************************************************************************
  37:.\Generated_Source\PSoC4/ADC_ACCELEROMETER_INT.c ****     *
  38:.\Generated_Source\PSoC4/ADC_ACCELEROMETER_INT.c ****     * Summary:
  39:.\Generated_Source\PSoC4/ADC_ACCELEROMETER_INT.c ****     *  Handle Interrupt Service Routine.
  40:.\Generated_Source\PSoC4/ADC_ACCELEROMETER_INT.c ****     *
  41:.\Generated_Source\PSoC4/ADC_ACCELEROMETER_INT.c ****     * Parameters:
  42:.\Generated_Source\PSoC4/ADC_ACCELEROMETER_INT.c ****     *  None.
  43:.\Generated_Source\PSoC4/ADC_ACCELEROMETER_INT.c ****     *
  44:.\Generated_Source\PSoC4/ADC_ACCELEROMETER_INT.c ****     * Return:
  45:.\Generated_Source\PSoC4/ADC_ACCELEROMETER_INT.c ****     *  None.
  46:.\Generated_Source\PSoC4/ADC_ACCELEROMETER_INT.c ****     *
  47:.\Generated_Source\PSoC4/ADC_ACCELEROMETER_INT.c ****     * Reentrant:
  48:.\Generated_Source\PSoC4/ADC_ACCELEROMETER_INT.c ****     *  No.
  49:.\Generated_Source\PSoC4/ADC_ACCELEROMETER_INT.c ****     *
  50:.\Generated_Source\PSoC4/ADC_ACCELEROMETER_INT.c ****     ******************************************************************************/
  51:.\Generated_Source\PSoC4/ADC_ACCELEROMETER_INT.c ****     CY_ISR( ADC_ACCELEROMETER_ISR )
  52:.\Generated_Source\PSoC4/ADC_ACCELEROMETER_INT.c ****     {
  26              		.loc 1 52 0
  27              		.cfi_startproc
  28 0000 80B5     		push	{r7, lr}
  29              	.LCFI0:
  30              		.cfi_def_cfa_offset 8
  31              		.cfi_offset 7, -8
  32              		.cfi_offset 14, -4
  33 0002 82B0     		sub	sp, sp, #8
  34              	.LCFI1:
  35              		.cfi_def_cfa_offset 16
  36 0004 00AF     		add	r7, sp, #0
  37              	.LCFI2:
  38              		.cfi_def_cfa_register 7
  53:.\Generated_Source\PSoC4/ADC_ACCELEROMETER_INT.c ****         uint32 intr_status;
  54:.\Generated_Source\PSoC4/ADC_ACCELEROMETER_INT.c **** 
  55:.\Generated_Source\PSoC4/ADC_ACCELEROMETER_INT.c ****         /* Read interrupt status register */
  56:.\Generated_Source\PSoC4/ADC_ACCELEROMETER_INT.c ****         intr_status = ADC_ACCELEROMETER_SAR_INTR_REG;
  39              		.loc 1 56 0
  40 0006 044B     		ldr	r3, .L2
  41 0008 1B68     		ldr	r3, [r3]
  42 000a 7B60     		str	r3, [r7, #4]
  57:.\Generated_Source\PSoC4/ADC_ACCELEROMETER_INT.c **** 
  58:.\Generated_Source\PSoC4/ADC_ACCELEROMETER_INT.c ****         /************************************************************************
  59:.\Generated_Source\PSoC4/ADC_ACCELEROMETER_INT.c ****         *  Custom Code
  60:.\Generated_Source\PSoC4/ADC_ACCELEROMETER_INT.c ****         *  - add user ISR code between the following #START and #END tags
  61:.\Generated_Source\PSoC4/ADC_ACCELEROMETER_INT.c ****         *************************************************************************/
  62:.\Generated_Source\PSoC4/ADC_ACCELEROMETER_INT.c ****         /* `#START MAIN_ADC_ISR`  */
  63:.\Generated_Source\PSoC4/ADC_ACCELEROMETER_INT.c **** 
  64:.\Generated_Source\PSoC4/ADC_ACCELEROMETER_INT.c ****         /* `#END`  */
  65:.\Generated_Source\PSoC4/ADC_ACCELEROMETER_INT.c **** 
  66:.\Generated_Source\PSoC4/ADC_ACCELEROMETER_INT.c ****         /* Clear handled interrupt */
  67:.\Generated_Source\PSoC4/ADC_ACCELEROMETER_INT.c ****         ADC_ACCELEROMETER_SAR_INTR_REG = intr_status;
  43              		.loc 1 67 0
  44 000c 024B     		ldr	r3, .L2
  45 000e 7A68     		ldr	r2, [r7, #4]
  46 0010 1A60     		str	r2, [r3]
  68:.\Generated_Source\PSoC4/ADC_ACCELEROMETER_INT.c ****     }
ARM GAS  C:\Users\javier\AppData\Local\Temp\ccKJq17M.s 			page 3


  47              		.loc 1 68 0
  48 0012 BD46     		mov	sp, r7
  49 0014 02B0     		add	sp, sp, #8
  50              		@ sp needed for prologue
  51 0016 80BD     		pop	{r7, pc}
  52              	.L3:
  53              		.align	2
  54              	.L2:
  55 0018 10021A40 		.word	1075446288
  56              		.cfi_endproc
  57              	.LFE0:
  58              		.size	ADC_ACCELEROMETER_ISR, .-ADC_ACCELEROMETER_ISR
  59              		.text
  60              	.Letext0:
  61              		.file 2 ".\\Generated_Source\\PSoC4\\cytypes.h"