ARM GAS  C:\Users\javier\AppData\Local\Temp\ccEc0P7v.s 			page 1


   1              		.cpu cortex-m0
   2              		.fpu softvfp
   3              		.eabi_attribute 20, 1
   4              		.eabi_attribute 21, 1
   5              		.eabi_attribute 23, 3
   6              		.eabi_attribute 24, 1
   7              		.eabi_attribute 25, 1
   8              		.eabi_attribute 26, 1
   9              		.eabi_attribute 30, 6
  10              		.eabi_attribute 34, 0
  11              		.eabi_attribute 18, 4
  12              		.code	16
  13              		.file	"BLUE_PM.c"
  14              		.text
  15              	.Ltext0:
  16              		.cfi_sections	.debug_frame
  17              		.bss
  18              		.align	2
  19              	BLUE_backup:
  20 0000 000000   		.space	3
  21 0003 00       		.section	.text.BLUE_SaveConfig,"ax",%progbits
  22              		.align	2
  23              		.global	BLUE_SaveConfig
  24              		.code	16
  25              		.thumb_func
  26              		.type	BLUE_SaveConfig, %function
  27              	BLUE_SaveConfig:
  28              	.LFB0:
  29              		.file 1 ".\\Generated_Source\\PSoC4\\BLUE_PM.c"
   1:.\Generated_Source\PSoC4/BLUE_PM.c **** /*******************************************************************************
   2:.\Generated_Source\PSoC4/BLUE_PM.c **** * File Name: BLUE_PM.c
   3:.\Generated_Source\PSoC4/BLUE_PM.c **** * Version 2.30
   4:.\Generated_Source\PSoC4/BLUE_PM.c **** *
   5:.\Generated_Source\PSoC4/BLUE_PM.c **** * Description:
   6:.\Generated_Source\PSoC4/BLUE_PM.c **** *  This file provides Sleep/WakeUp APIs functionality.
   7:.\Generated_Source\PSoC4/BLUE_PM.c **** *
   8:.\Generated_Source\PSoC4/BLUE_PM.c **** * Note:
   9:.\Generated_Source\PSoC4/BLUE_PM.c **** *
  10:.\Generated_Source\PSoC4/BLUE_PM.c **** ********************************************************************************
  11:.\Generated_Source\PSoC4/BLUE_PM.c **** * Copyright 2008-2012, Cypress Semiconductor Corporation.  All rights reserved.
  12:.\Generated_Source\PSoC4/BLUE_PM.c **** * You may use this file only in accordance with the license, terms, conditions,
  13:.\Generated_Source\PSoC4/BLUE_PM.c **** * disclaimers, and limitations in the end user license agreement accompanying
  14:.\Generated_Source\PSoC4/BLUE_PM.c **** * the software package with which this file was provided.
  15:.\Generated_Source\PSoC4/BLUE_PM.c **** *******************************************************************************/
  16:.\Generated_Source\PSoC4/BLUE_PM.c **** 
  17:.\Generated_Source\PSoC4/BLUE_PM.c **** #include "BLUE.h"
  18:.\Generated_Source\PSoC4/BLUE_PM.c **** 
  19:.\Generated_Source\PSoC4/BLUE_PM.c **** 
  20:.\Generated_Source\PSoC4/BLUE_PM.c **** /***************************************
  21:.\Generated_Source\PSoC4/BLUE_PM.c **** * Local data allocation
  22:.\Generated_Source\PSoC4/BLUE_PM.c **** ***************************************/
  23:.\Generated_Source\PSoC4/BLUE_PM.c **** 
  24:.\Generated_Source\PSoC4/BLUE_PM.c **** static BLUE_BACKUP_STRUCT  BLUE_backup =
  25:.\Generated_Source\PSoC4/BLUE_PM.c **** {
  26:.\Generated_Source\PSoC4/BLUE_PM.c ****     /* enableState - disabled */
  27:.\Generated_Source\PSoC4/BLUE_PM.c ****     0u,
  28:.\Generated_Source\PSoC4/BLUE_PM.c **** };
ARM GAS  C:\Users\javier\AppData\Local\Temp\ccEc0P7v.s 			page 2


  29:.\Generated_Source\PSoC4/BLUE_PM.c **** 
  30:.\Generated_Source\PSoC4/BLUE_PM.c **** 
  31:.\Generated_Source\PSoC4/BLUE_PM.c **** 
  32:.\Generated_Source\PSoC4/BLUE_PM.c **** /*******************************************************************************
  33:.\Generated_Source\PSoC4/BLUE_PM.c **** * Function Name: BLUE_SaveConfig
  34:.\Generated_Source\PSoC4/BLUE_PM.c **** ********************************************************************************
  35:.\Generated_Source\PSoC4/BLUE_PM.c **** *
  36:.\Generated_Source\PSoC4/BLUE_PM.c **** * Summary:
  37:.\Generated_Source\PSoC4/BLUE_PM.c **** *  Saves the current user configuration.
  38:.\Generated_Source\PSoC4/BLUE_PM.c **** *
  39:.\Generated_Source\PSoC4/BLUE_PM.c **** * Parameters:
  40:.\Generated_Source\PSoC4/BLUE_PM.c **** *  None.
  41:.\Generated_Source\PSoC4/BLUE_PM.c **** *
  42:.\Generated_Source\PSoC4/BLUE_PM.c **** * Return:
  43:.\Generated_Source\PSoC4/BLUE_PM.c **** *  None.
  44:.\Generated_Source\PSoC4/BLUE_PM.c **** *
  45:.\Generated_Source\PSoC4/BLUE_PM.c **** * Global Variables:
  46:.\Generated_Source\PSoC4/BLUE_PM.c **** *  BLUE_backup - modified when non-retention registers are saved.
  47:.\Generated_Source\PSoC4/BLUE_PM.c **** *
  48:.\Generated_Source\PSoC4/BLUE_PM.c **** * Reentrant:
  49:.\Generated_Source\PSoC4/BLUE_PM.c **** *  No.
  50:.\Generated_Source\PSoC4/BLUE_PM.c **** *
  51:.\Generated_Source\PSoC4/BLUE_PM.c **** *******************************************************************************/
  52:.\Generated_Source\PSoC4/BLUE_PM.c **** void BLUE_SaveConfig(void)
  53:.\Generated_Source\PSoC4/BLUE_PM.c **** {
  30              		.loc 1 53 0
  31              		.cfi_startproc
  32 0000 80B5     		push	{r7, lr}
  33              	.LCFI0:
  34              		.cfi_def_cfa_offset 8
  35              		.cfi_offset 7, -8
  36              		.cfi_offset 14, -4
  37 0002 00AF     		add	r7, sp, #0
  38              	.LCFI1:
  39              		.cfi_def_cfa_register 7
  54:.\Generated_Source\PSoC4/BLUE_PM.c ****     #if (CY_UDB_V0)
  55:.\Generated_Source\PSoC4/BLUE_PM.c **** 
  56:.\Generated_Source\PSoC4/BLUE_PM.c ****         #if(BLUE_CONTROL_REG_REMOVED == 0u)
  57:.\Generated_Source\PSoC4/BLUE_PM.c ****             BLUE_backup.cr = BLUE_CONTROL_REG;
  58:.\Generated_Source\PSoC4/BLUE_PM.c ****         #endif /* End BLUE_CONTROL_REG_REMOVED */
  59:.\Generated_Source\PSoC4/BLUE_PM.c **** 
  60:.\Generated_Source\PSoC4/BLUE_PM.c ****         #if( (BLUE_RX_ENABLED) || (BLUE_HD_ENABLED) )
  61:.\Generated_Source\PSoC4/BLUE_PM.c ****             BLUE_backup.rx_period = BLUE_RXBITCTR_PERIOD_REG;
  62:.\Generated_Source\PSoC4/BLUE_PM.c ****             BLUE_backup.rx_mask = BLUE_RXSTATUS_MASK_REG;
  63:.\Generated_Source\PSoC4/BLUE_PM.c ****             #if (BLUE_RXHW_ADDRESS_ENABLED)
  64:.\Generated_Source\PSoC4/BLUE_PM.c ****                 BLUE_backup.rx_addr1 = BLUE_RXADDRESS1_REG;
  65:.\Generated_Source\PSoC4/BLUE_PM.c ****                 BLUE_backup.rx_addr2 = BLUE_RXADDRESS2_REG;
  66:.\Generated_Source\PSoC4/BLUE_PM.c ****             #endif /* End BLUE_RXHW_ADDRESS_ENABLED */
  67:.\Generated_Source\PSoC4/BLUE_PM.c ****         #endif /* End BLUE_RX_ENABLED | BLUE_HD_ENABLED*/
  68:.\Generated_Source\PSoC4/BLUE_PM.c **** 
  69:.\Generated_Source\PSoC4/BLUE_PM.c ****         #if(BLUE_TX_ENABLED)
  70:.\Generated_Source\PSoC4/BLUE_PM.c ****             #if(BLUE_TXCLKGEN_DP)
  71:.\Generated_Source\PSoC4/BLUE_PM.c ****                 BLUE_backup.tx_clk_ctr = BLUE_TXBITCLKGEN_CTR_REG;
  72:.\Generated_Source\PSoC4/BLUE_PM.c ****                 BLUE_backup.tx_clk_compl = BLUE_TXBITCLKTX_COMPLETE_REG;
  73:.\Generated_Source\PSoC4/BLUE_PM.c ****             #else
  74:.\Generated_Source\PSoC4/BLUE_PM.c ****                 BLUE_backup.tx_period = BLUE_TXBITCTR_PERIOD_REG;
  75:.\Generated_Source\PSoC4/BLUE_PM.c ****             #endif /*End BLUE_TXCLKGEN_DP */
ARM GAS  C:\Users\javier\AppData\Local\Temp\ccEc0P7v.s 			page 3


  76:.\Generated_Source\PSoC4/BLUE_PM.c ****             BLUE_backup.tx_mask = BLUE_TXSTATUS_MASK_REG;
  77:.\Generated_Source\PSoC4/BLUE_PM.c ****         #endif /*End BLUE_TX_ENABLED */
  78:.\Generated_Source\PSoC4/BLUE_PM.c **** 
  79:.\Generated_Source\PSoC4/BLUE_PM.c **** 
  80:.\Generated_Source\PSoC4/BLUE_PM.c ****     #else /* CY_UDB_V1 */
  81:.\Generated_Source\PSoC4/BLUE_PM.c **** 
  82:.\Generated_Source\PSoC4/BLUE_PM.c ****         #if(BLUE_CONTROL_REG_REMOVED == 0u)
  83:.\Generated_Source\PSoC4/BLUE_PM.c ****             BLUE_backup.cr = BLUE_CONTROL_REG;
  84:.\Generated_Source\PSoC4/BLUE_PM.c ****         #endif /* End BLUE_CONTROL_REG_REMOVED */
  85:.\Generated_Source\PSoC4/BLUE_PM.c **** 
  86:.\Generated_Source\PSoC4/BLUE_PM.c ****     #endif  /* End CY_UDB_V0 */
  87:.\Generated_Source\PSoC4/BLUE_PM.c **** }
  40              		.loc 1 87 0
  41 0004 BD46     		mov	sp, r7
  42              		@ sp needed for prologue
  43 0006 80BD     		pop	{r7, pc}
  44              		.cfi_endproc
  45              	.LFE0:
  46              		.size	BLUE_SaveConfig, .-BLUE_SaveConfig
  47              		.section	.text.BLUE_RestoreConfig,"ax",%progbits
  48              		.align	2
  49              		.global	BLUE_RestoreConfig
  50              		.code	16
  51              		.thumb_func
  52              		.type	BLUE_RestoreConfig, %function
  53              	BLUE_RestoreConfig:
  54              	.LFB1:
  88:.\Generated_Source\PSoC4/BLUE_PM.c **** 
  89:.\Generated_Source\PSoC4/BLUE_PM.c **** 
  90:.\Generated_Source\PSoC4/BLUE_PM.c **** /*******************************************************************************
  91:.\Generated_Source\PSoC4/BLUE_PM.c **** * Function Name: BLUE_RestoreConfig
  92:.\Generated_Source\PSoC4/BLUE_PM.c **** ********************************************************************************
  93:.\Generated_Source\PSoC4/BLUE_PM.c **** *
  94:.\Generated_Source\PSoC4/BLUE_PM.c **** * Summary:
  95:.\Generated_Source\PSoC4/BLUE_PM.c **** *  Restores the current user configuration.
  96:.\Generated_Source\PSoC4/BLUE_PM.c **** *
  97:.\Generated_Source\PSoC4/BLUE_PM.c **** * Parameters:
  98:.\Generated_Source\PSoC4/BLUE_PM.c **** *  None.
  99:.\Generated_Source\PSoC4/BLUE_PM.c **** *
 100:.\Generated_Source\PSoC4/BLUE_PM.c **** * Return:
 101:.\Generated_Source\PSoC4/BLUE_PM.c **** *  None.
 102:.\Generated_Source\PSoC4/BLUE_PM.c **** *
 103:.\Generated_Source\PSoC4/BLUE_PM.c **** * Global Variables:
 104:.\Generated_Source\PSoC4/BLUE_PM.c **** *  BLUE_backup - used when non-retention registers are restored.
 105:.\Generated_Source\PSoC4/BLUE_PM.c **** *
 106:.\Generated_Source\PSoC4/BLUE_PM.c **** * Reentrant:
 107:.\Generated_Source\PSoC4/BLUE_PM.c **** *  No.
 108:.\Generated_Source\PSoC4/BLUE_PM.c **** *
 109:.\Generated_Source\PSoC4/BLUE_PM.c **** *******************************************************************************/
 110:.\Generated_Source\PSoC4/BLUE_PM.c **** void BLUE_RestoreConfig(void)
 111:.\Generated_Source\PSoC4/BLUE_PM.c **** {
  55              		.loc 1 111 0
  56              		.cfi_startproc
  57 0000 80B5     		push	{r7, lr}
  58              	.LCFI2:
  59              		.cfi_def_cfa_offset 8
  60              		.cfi_offset 7, -8
ARM GAS  C:\Users\javier\AppData\Local\Temp\ccEc0P7v.s 			page 4


  61              		.cfi_offset 14, -4
  62 0002 00AF     		add	r7, sp, #0
  63              	.LCFI3:
  64              		.cfi_def_cfa_register 7
 112:.\Generated_Source\PSoC4/BLUE_PM.c **** 
 113:.\Generated_Source\PSoC4/BLUE_PM.c ****     #if (CY_UDB_V0)
 114:.\Generated_Source\PSoC4/BLUE_PM.c **** 
 115:.\Generated_Source\PSoC4/BLUE_PM.c ****         #if(BLUE_CONTROL_REG_REMOVED == 0u)
 116:.\Generated_Source\PSoC4/BLUE_PM.c ****             BLUE_CONTROL_REG = BLUE_backup.cr;
 117:.\Generated_Source\PSoC4/BLUE_PM.c ****         #endif /* End BLUE_CONTROL_REG_REMOVED */
 118:.\Generated_Source\PSoC4/BLUE_PM.c **** 
 119:.\Generated_Source\PSoC4/BLUE_PM.c ****         #if( (BLUE_RX_ENABLED) || (BLUE_HD_ENABLED) )
 120:.\Generated_Source\PSoC4/BLUE_PM.c ****             BLUE_RXBITCTR_PERIOD_REG = BLUE_backup.rx_period;
 121:.\Generated_Source\PSoC4/BLUE_PM.c ****             BLUE_RXSTATUS_MASK_REG = BLUE_backup.rx_mask;
 122:.\Generated_Source\PSoC4/BLUE_PM.c ****             #if (BLUE_RXHW_ADDRESS_ENABLED)
 123:.\Generated_Source\PSoC4/BLUE_PM.c ****                 BLUE_RXADDRESS1_REG = BLUE_backup.rx_addr1;
 124:.\Generated_Source\PSoC4/BLUE_PM.c ****                 BLUE_RXADDRESS2_REG = BLUE_backup.rx_addr2;
 125:.\Generated_Source\PSoC4/BLUE_PM.c ****             #endif /* End BLUE_RXHW_ADDRESS_ENABLED */
 126:.\Generated_Source\PSoC4/BLUE_PM.c ****         #endif  /* End (BLUE_RX_ENABLED) || (BLUE_HD_ENABLED) */
 127:.\Generated_Source\PSoC4/BLUE_PM.c **** 
 128:.\Generated_Source\PSoC4/BLUE_PM.c ****         #if(BLUE_TX_ENABLED)
 129:.\Generated_Source\PSoC4/BLUE_PM.c ****             #if(BLUE_TXCLKGEN_DP)
 130:.\Generated_Source\PSoC4/BLUE_PM.c ****                 BLUE_TXBITCLKGEN_CTR_REG = BLUE_backup.tx_clk_ctr;
 131:.\Generated_Source\PSoC4/BLUE_PM.c ****                 BLUE_TXBITCLKTX_COMPLETE_REG = BLUE_backup.tx_clk_compl;
 132:.\Generated_Source\PSoC4/BLUE_PM.c ****             #else
 133:.\Generated_Source\PSoC4/BLUE_PM.c ****                 BLUE_TXBITCTR_PERIOD_REG = BLUE_backup.tx_period;
 134:.\Generated_Source\PSoC4/BLUE_PM.c ****             #endif /*End BLUE_TXCLKGEN_DP */
 135:.\Generated_Source\PSoC4/BLUE_PM.c ****             BLUE_TXSTATUS_MASK_REG = BLUE_backup.tx_mask;
 136:.\Generated_Source\PSoC4/BLUE_PM.c ****         #endif /*End BLUE_TX_ENABLED */
 137:.\Generated_Source\PSoC4/BLUE_PM.c **** 
 138:.\Generated_Source\PSoC4/BLUE_PM.c ****     #else /* CY_UDB_V1 */
 139:.\Generated_Source\PSoC4/BLUE_PM.c **** 
 140:.\Generated_Source\PSoC4/BLUE_PM.c ****         #if(BLUE_CONTROL_REG_REMOVED == 0u)
 141:.\Generated_Source\PSoC4/BLUE_PM.c ****             BLUE_CONTROL_REG = BLUE_backup.cr;
 142:.\Generated_Source\PSoC4/BLUE_PM.c ****         #endif /* End BLUE_CONTROL_REG_REMOVED */
 143:.\Generated_Source\PSoC4/BLUE_PM.c **** 
 144:.\Generated_Source\PSoC4/BLUE_PM.c ****     #endif  /* End CY_UDB_V0 */
 145:.\Generated_Source\PSoC4/BLUE_PM.c **** }
  65              		.loc 1 145 0
  66 0004 BD46     		mov	sp, r7
  67              		@ sp needed for prologue
  68 0006 80BD     		pop	{r7, pc}
  69              		.cfi_endproc
  70              	.LFE1:
  71              		.size	BLUE_RestoreConfig, .-BLUE_RestoreConfig
  72              		.section	.text.BLUE_Sleep,"ax",%progbits
  73              		.align	2
  74              		.global	BLUE_Sleep
  75              		.code	16
  76              		.thumb_func
  77              		.type	BLUE_Sleep, %function
  78              	BLUE_Sleep:
  79              	.LFB2:
 146:.\Generated_Source\PSoC4/BLUE_PM.c **** 
 147:.\Generated_Source\PSoC4/BLUE_PM.c **** 
 148:.\Generated_Source\PSoC4/BLUE_PM.c **** /*******************************************************************************
 149:.\Generated_Source\PSoC4/BLUE_PM.c **** * Function Name: BLUE_Sleep
ARM GAS  C:\Users\javier\AppData\Local\Temp\ccEc0P7v.s 			page 5


 150:.\Generated_Source\PSoC4/BLUE_PM.c **** ********************************************************************************
 151:.\Generated_Source\PSoC4/BLUE_PM.c **** *
 152:.\Generated_Source\PSoC4/BLUE_PM.c **** * Summary:
 153:.\Generated_Source\PSoC4/BLUE_PM.c **** *  Stops and saves the user configuration. Should be called
 154:.\Generated_Source\PSoC4/BLUE_PM.c **** *  just prior to entering sleep.
 155:.\Generated_Source\PSoC4/BLUE_PM.c **** *
 156:.\Generated_Source\PSoC4/BLUE_PM.c **** *
 157:.\Generated_Source\PSoC4/BLUE_PM.c **** * Parameters:
 158:.\Generated_Source\PSoC4/BLUE_PM.c **** *  None.
 159:.\Generated_Source\PSoC4/BLUE_PM.c **** *
 160:.\Generated_Source\PSoC4/BLUE_PM.c **** * Return:
 161:.\Generated_Source\PSoC4/BLUE_PM.c **** *  None.
 162:.\Generated_Source\PSoC4/BLUE_PM.c **** *
 163:.\Generated_Source\PSoC4/BLUE_PM.c **** * Global Variables:
 164:.\Generated_Source\PSoC4/BLUE_PM.c **** *  BLUE_backup - modified when non-retention registers are saved.
 165:.\Generated_Source\PSoC4/BLUE_PM.c **** *
 166:.\Generated_Source\PSoC4/BLUE_PM.c **** * Reentrant:
 167:.\Generated_Source\PSoC4/BLUE_PM.c **** *  No.
 168:.\Generated_Source\PSoC4/BLUE_PM.c **** *
 169:.\Generated_Source\PSoC4/BLUE_PM.c **** *******************************************************************************/
 170:.\Generated_Source\PSoC4/BLUE_PM.c **** void BLUE_Sleep(void)
 171:.\Generated_Source\PSoC4/BLUE_PM.c **** {
  80              		.loc 1 171 0
  81              		.cfi_startproc
  82 0000 80B5     		push	{r7, lr}
  83              	.LCFI4:
  84              		.cfi_def_cfa_offset 8
  85              		.cfi_offset 7, -8
  86              		.cfi_offset 14, -4
  87 0002 00AF     		add	r7, sp, #0
  88              	.LCFI5:
  89              		.cfi_def_cfa_register 7
 172:.\Generated_Source\PSoC4/BLUE_PM.c **** 
 173:.\Generated_Source\PSoC4/BLUE_PM.c ****     #if(BLUE_RX_ENABLED || BLUE_HD_ENABLED)
 174:.\Generated_Source\PSoC4/BLUE_PM.c ****         if((BLUE_RXSTATUS_ACTL_REG  & BLUE_INT_ENABLE) != 0u)
  90              		.loc 1 174 0
  91 0004 094B     		ldr	r3, .L6
  92 0006 1B78     		ldrb	r3, [r3]
  93 0008 DBB2     		uxtb	r3, r3
  94 000a 1A1C     		mov	r2, r3
  95 000c 1023     		mov	r3, #16
  96 000e 1340     		and	r3, r2
  97 0010 03D0     		beq	.L4
 175:.\Generated_Source\PSoC4/BLUE_PM.c ****         {
 176:.\Generated_Source\PSoC4/BLUE_PM.c ****             BLUE_backup.enableState = 1u;
  98              		.loc 1 176 0
  99 0012 074B     		ldr	r3, .L6+4
 100 0014 0122     		mov	r2, #1
 101 0016 1A70     		strb	r2, [r3]
 102 0018 02E0     		b	.L5
 103              	.L4:
 177:.\Generated_Source\PSoC4/BLUE_PM.c ****         }
 178:.\Generated_Source\PSoC4/BLUE_PM.c ****         else
 179:.\Generated_Source\PSoC4/BLUE_PM.c ****         {
 180:.\Generated_Source\PSoC4/BLUE_PM.c ****             BLUE_backup.enableState = 0u;
 104              		.loc 1 180 0
 105 001a 054B     		ldr	r3, .L6+4
ARM GAS  C:\Users\javier\AppData\Local\Temp\ccEc0P7v.s 			page 6


 106 001c 0022     		mov	r2, #0
 107 001e 1A70     		strb	r2, [r3]
 108              	.L5:
 181:.\Generated_Source\PSoC4/BLUE_PM.c ****         }
 182:.\Generated_Source\PSoC4/BLUE_PM.c ****     #else
 183:.\Generated_Source\PSoC4/BLUE_PM.c ****         if((BLUE_TXSTATUS_ACTL_REG  & BLUE_INT_ENABLE) !=0u)
 184:.\Generated_Source\PSoC4/BLUE_PM.c ****         {
 185:.\Generated_Source\PSoC4/BLUE_PM.c ****             BLUE_backup.enableState = 1u;
 186:.\Generated_Source\PSoC4/BLUE_PM.c ****         }
 187:.\Generated_Source\PSoC4/BLUE_PM.c ****         else
 188:.\Generated_Source\PSoC4/BLUE_PM.c ****         {
 189:.\Generated_Source\PSoC4/BLUE_PM.c ****             BLUE_backup.enableState = 0u;
 190:.\Generated_Source\PSoC4/BLUE_PM.c ****         }
 191:.\Generated_Source\PSoC4/BLUE_PM.c ****     #endif /* End BLUE_RX_ENABLED || BLUE_HD_ENABLED*/
 192:.\Generated_Source\PSoC4/BLUE_PM.c **** 
 193:.\Generated_Source\PSoC4/BLUE_PM.c ****     BLUE_Stop();
 109              		.loc 1 193 0
 110 0020 FFF7FEFF 		bl	BLUE_Stop
 194:.\Generated_Source\PSoC4/BLUE_PM.c ****     BLUE_SaveConfig();
 111              		.loc 1 194 0
 112 0024 FFF7FEFF 		bl	BLUE_SaveConfig
 195:.\Generated_Source\PSoC4/BLUE_PM.c **** }
 113              		.loc 1 195 0
 114 0028 BD46     		mov	sp, r7
 115              		@ sp needed for prologue
 116 002a 80BD     		pop	{r7, pc}
 117              	.L7:
 118              		.align	2
 119              	.L6:
 120 002c 91000F40 		.word	1074725009
 121 0030 00000000 		.word	BLUE_backup
 122              		.cfi_endproc
 123              	.LFE2:
 124              		.size	BLUE_Sleep, .-BLUE_Sleep
 125              		.section	.text.BLUE_Wakeup,"ax",%progbits
 126              		.align	2
 127              		.global	BLUE_Wakeup
 128              		.code	16
 129              		.thumb_func
 130              		.type	BLUE_Wakeup, %function
 131              	BLUE_Wakeup:
 132              	.LFB3:
 196:.\Generated_Source\PSoC4/BLUE_PM.c **** 
 197:.\Generated_Source\PSoC4/BLUE_PM.c **** 
 198:.\Generated_Source\PSoC4/BLUE_PM.c **** /*******************************************************************************
 199:.\Generated_Source\PSoC4/BLUE_PM.c **** * Function Name: BLUE_Wakeup
 200:.\Generated_Source\PSoC4/BLUE_PM.c **** ********************************************************************************
 201:.\Generated_Source\PSoC4/BLUE_PM.c **** *
 202:.\Generated_Source\PSoC4/BLUE_PM.c **** * Summary:
 203:.\Generated_Source\PSoC4/BLUE_PM.c **** *  Restores and enables the user configuration. Should be called
 204:.\Generated_Source\PSoC4/BLUE_PM.c **** *  just after awaking from sleep.
 205:.\Generated_Source\PSoC4/BLUE_PM.c **** *
 206:.\Generated_Source\PSoC4/BLUE_PM.c **** * Parameters:
 207:.\Generated_Source\PSoC4/BLUE_PM.c **** *  None.
 208:.\Generated_Source\PSoC4/BLUE_PM.c **** *
 209:.\Generated_Source\PSoC4/BLUE_PM.c **** * Return:
 210:.\Generated_Source\PSoC4/BLUE_PM.c **** *  None.
ARM GAS  C:\Users\javier\AppData\Local\Temp\ccEc0P7v.s 			page 7


 211:.\Generated_Source\PSoC4/BLUE_PM.c **** *
 212:.\Generated_Source\PSoC4/BLUE_PM.c **** * Global Variables:
 213:.\Generated_Source\PSoC4/BLUE_PM.c **** *  BLUE_backup - used when non-retention registers are restored.
 214:.\Generated_Source\PSoC4/BLUE_PM.c **** *
 215:.\Generated_Source\PSoC4/BLUE_PM.c **** * Reentrant:
 216:.\Generated_Source\PSoC4/BLUE_PM.c **** *  No.
 217:.\Generated_Source\PSoC4/BLUE_PM.c **** *
 218:.\Generated_Source\PSoC4/BLUE_PM.c **** *******************************************************************************/
 219:.\Generated_Source\PSoC4/BLUE_PM.c **** void BLUE_Wakeup(void)
 220:.\Generated_Source\PSoC4/BLUE_PM.c **** {
 133              		.loc 1 220 0
 134              		.cfi_startproc
 135 0000 80B5     		push	{r7, lr}
 136              	.LCFI6:
 137              		.cfi_def_cfa_offset 8
 138              		.cfi_offset 7, -8
 139              		.cfi_offset 14, -4
 140 0002 00AF     		add	r7, sp, #0
 141              	.LCFI7:
 142              		.cfi_def_cfa_register 7
 221:.\Generated_Source\PSoC4/BLUE_PM.c ****     BLUE_RestoreConfig();
 143              		.loc 1 221 0
 144 0004 FFF7FEFF 		bl	BLUE_RestoreConfig
 222:.\Generated_Source\PSoC4/BLUE_PM.c ****     #if( (BLUE_RX_ENABLED) || (BLUE_HD_ENABLED) )
 223:.\Generated_Source\PSoC4/BLUE_PM.c ****         BLUE_ClearRxBuffer();
 145              		.loc 1 223 0
 146 0008 FFF7FEFF 		bl	BLUE_ClearRxBuffer
 224:.\Generated_Source\PSoC4/BLUE_PM.c ****     #endif /* End (BLUE_RX_ENABLED) || (BLUE_HD_ENABLED) */
 225:.\Generated_Source\PSoC4/BLUE_PM.c ****     #if(BLUE_TX_ENABLED || BLUE_HD_ENABLED)
 226:.\Generated_Source\PSoC4/BLUE_PM.c ****         BLUE_ClearTxBuffer();
 147              		.loc 1 226 0
 148 000c FFF7FEFF 		bl	BLUE_ClearTxBuffer
 227:.\Generated_Source\PSoC4/BLUE_PM.c ****     #endif /* End BLUE_TX_ENABLED || BLUE_HD_ENABLED */
 228:.\Generated_Source\PSoC4/BLUE_PM.c **** 
 229:.\Generated_Source\PSoC4/BLUE_PM.c ****     if(BLUE_backup.enableState != 0u)
 149              		.loc 1 229 0
 150 0010 034B     		ldr	r3, .L10
 151 0012 1B78     		ldrb	r3, [r3]
 152 0014 002B     		cmp	r3, #0
 153 0016 01D0     		beq	.L8
 230:.\Generated_Source\PSoC4/BLUE_PM.c ****     {
 231:.\Generated_Source\PSoC4/BLUE_PM.c ****         BLUE_Enable();
 154              		.loc 1 231 0
 155 0018 FFF7FEFF 		bl	BLUE_Enable
 156              	.L8:
 232:.\Generated_Source\PSoC4/BLUE_PM.c ****     }
 233:.\Generated_Source\PSoC4/BLUE_PM.c **** }
 157              		.loc 1 233 0
 158 001c BD46     		mov	sp, r7
 159              		@ sp needed for prologue
 160 001e 80BD     		pop	{r7, pc}
 161              	.L11:
 162              		.align	2
 163              	.L10:
 164 0020 00000000 		.word	BLUE_backup
 165              		.cfi_endproc
 166              	.LFE3:
ARM GAS  C:\Users\javier\AppData\Local\Temp\ccEc0P7v.s 			page 8


 167              		.size	BLUE_Wakeup, .-BLUE_Wakeup
 168              		.text
 169              	.Letext0:
 170              		.file 2 ".\\Generated_Source\\PSoC4\\cytypes.h"
 171              		.file 3 ".\\Generated_Source\\PSoC4\\BLUE.h"