ARM GAS  C:\Users\javier\AppData\Local\Temp\cccQLrBH.s 			page 1


   1              		.cpu cortex-m0
   2              		.fpu softvfp
   3              		.eabi_attribute 20, 1
   4              		.eabi_attribute 21, 1
   5              		.eabi_attribute 23, 3
   6              		.eabi_attribute 24, 1
   7              		.eabi_attribute 25, 1
   8              		.eabi_attribute 26, 1
   9              		.eabi_attribute 30, 6
  10              		.eabi_attribute 34, 0
  11              		.eabi_attribute 18, 4
  12              		.code	16
  13              		.file	"Buzz.c"
  14              		.text
  15              	.Ltext0:
  16              		.cfi_sections	.debug_frame
  17              		.global	Buzz_initVar
  18              		.bss
  19              		.type	Buzz_initVar, %object
  20              		.size	Buzz_initVar, 1
  21              	Buzz_initVar:
  22 0000 00       		.space	1
  23              		.section	.text.Buzz_Start,"ax",%progbits
  24              		.align	2
  25              		.global	Buzz_Start
  26              		.code	16
  27              		.thumb_func
  28              		.type	Buzz_Start, %function
  29              	Buzz_Start:
  30              	.LFB0:
  31              		.file 1 ".\\Generated_Source\\PSoC4\\Buzz.c"
   1:.\Generated_Source\PSoC4/Buzz.c **** /*******************************************************************************
   2:.\Generated_Source\PSoC4/Buzz.c **** * File Name: Buzz.c  
   3:.\Generated_Source\PSoC4/Buzz.c **** * Version 3.0
   4:.\Generated_Source\PSoC4/Buzz.c **** *
   5:.\Generated_Source\PSoC4/Buzz.c **** * Description:
   6:.\Generated_Source\PSoC4/Buzz.c **** *  The PWM User Module consist of an 8 or 16-bit counter with two 8 or 16-bit
   7:.\Generated_Source\PSoC4/Buzz.c **** *  comparitors. Each instance of this user module is capable of generating
   8:.\Generated_Source\PSoC4/Buzz.c **** *  two PWM outputs with the same period. The pulse width is selectable between
   9:.\Generated_Source\PSoC4/Buzz.c **** *  1 and 255/65535. The period is selectable between 2 and 255/65536 clocks. 
  10:.\Generated_Source\PSoC4/Buzz.c **** *  The compare value output may be configured to be active when the present 
  11:.\Generated_Source\PSoC4/Buzz.c **** *  counter is less than or less than/equal to the compare value.
  12:.\Generated_Source\PSoC4/Buzz.c **** *  A terminal count output is also provided. It generates a pulse one clock
  13:.\Generated_Source\PSoC4/Buzz.c **** *  width wide when the counter is equal to zero.
  14:.\Generated_Source\PSoC4/Buzz.c **** *
  15:.\Generated_Source\PSoC4/Buzz.c **** * Note:
  16:.\Generated_Source\PSoC4/Buzz.c **** *
  17:.\Generated_Source\PSoC4/Buzz.c **** *******************************************************************************
  18:.\Generated_Source\PSoC4/Buzz.c **** * Copyright 2008-2012, Cypress Semiconductor Corporation.  All rights reserved.
  19:.\Generated_Source\PSoC4/Buzz.c **** * You may use this file only in accordance with the license, terms, conditions, 
  20:.\Generated_Source\PSoC4/Buzz.c **** * disclaimers, and limitations in the end user license agreement accompanying 
  21:.\Generated_Source\PSoC4/Buzz.c **** * the software package with which this file was provided.
  22:.\Generated_Source\PSoC4/Buzz.c **** ********************************************************************************/
  23:.\Generated_Source\PSoC4/Buzz.c **** 
  24:.\Generated_Source\PSoC4/Buzz.c **** #include "cytypes.h"
  25:.\Generated_Source\PSoC4/Buzz.c **** #include "Buzz.h"
  26:.\Generated_Source\PSoC4/Buzz.c **** 
ARM GAS  C:\Users\javier\AppData\Local\Temp\cccQLrBH.s 			page 2


  27:.\Generated_Source\PSoC4/Buzz.c **** uint8 Buzz_initVar = 0u;
  28:.\Generated_Source\PSoC4/Buzz.c **** 
  29:.\Generated_Source\PSoC4/Buzz.c **** 
  30:.\Generated_Source\PSoC4/Buzz.c **** /*******************************************************************************
  31:.\Generated_Source\PSoC4/Buzz.c **** * Function Name: Buzz_Start
  32:.\Generated_Source\PSoC4/Buzz.c **** ********************************************************************************
  33:.\Generated_Source\PSoC4/Buzz.c **** *
  34:.\Generated_Source\PSoC4/Buzz.c **** * Summary:
  35:.\Generated_Source\PSoC4/Buzz.c **** *  The start function initializes the pwm with the default values, the 
  36:.\Generated_Source\PSoC4/Buzz.c **** *  enables the counter to begin counting.  It does not enable interrupts,
  37:.\Generated_Source\PSoC4/Buzz.c **** *  the EnableInt command should be called if interrupt generation is required.
  38:.\Generated_Source\PSoC4/Buzz.c **** *
  39:.\Generated_Source\PSoC4/Buzz.c **** * Parameters:  
  40:.\Generated_Source\PSoC4/Buzz.c **** *  None  
  41:.\Generated_Source\PSoC4/Buzz.c **** *
  42:.\Generated_Source\PSoC4/Buzz.c **** * Return: 
  43:.\Generated_Source\PSoC4/Buzz.c **** *  None
  44:.\Generated_Source\PSoC4/Buzz.c **** *
  45:.\Generated_Source\PSoC4/Buzz.c **** * Global variables:
  46:.\Generated_Source\PSoC4/Buzz.c **** *  Buzz_initVar: Is modified when this function is called for the 
  47:.\Generated_Source\PSoC4/Buzz.c **** *   first time. Is used to ensure that initialization happens only once.
  48:.\Generated_Source\PSoC4/Buzz.c **** *
  49:.\Generated_Source\PSoC4/Buzz.c **** *******************************************************************************/
  50:.\Generated_Source\PSoC4/Buzz.c **** void Buzz_Start(void) 
  51:.\Generated_Source\PSoC4/Buzz.c **** {
  32              		.loc 1 51 0
  33              		.cfi_startproc
  34 0000 80B5     		push	{r7, lr}
  35              	.LCFI0:
  36              		.cfi_def_cfa_offset 8
  37              		.cfi_offset 7, -8
  38              		.cfi_offset 14, -4
  39 0002 00AF     		add	r7, sp, #0
  40              	.LCFI1:
  41              		.cfi_def_cfa_register 7
  52:.\Generated_Source\PSoC4/Buzz.c ****     /* If not Initialized then initialize all required hardware and software */
  53:.\Generated_Source\PSoC4/Buzz.c ****     if(Buzz_initVar == 0u)
  42              		.loc 1 53 0
  43 0004 064B     		ldr	r3, .L3
  44 0006 1B78     		ldrb	r3, [r3]
  45 0008 002B     		cmp	r3, #0
  46 000a 04D1     		bne	.L2
  54:.\Generated_Source\PSoC4/Buzz.c ****     {
  55:.\Generated_Source\PSoC4/Buzz.c ****         Buzz_Init();
  47              		.loc 1 55 0
  48 000c FFF7FEFF 		bl	Buzz_Init
  56:.\Generated_Source\PSoC4/Buzz.c ****         Buzz_initVar = 1u;
  49              		.loc 1 56 0
  50 0010 034B     		ldr	r3, .L3
  51 0012 0122     		mov	r2, #1
  52 0014 1A70     		strb	r2, [r3]
  53              	.L2:
  57:.\Generated_Source\PSoC4/Buzz.c ****     }
  58:.\Generated_Source\PSoC4/Buzz.c ****     Buzz_Enable();
  54              		.loc 1 58 0
  55 0016 FFF7FEFF 		bl	Buzz_Enable
  59:.\Generated_Source\PSoC4/Buzz.c **** 
ARM GAS  C:\Users\javier\AppData\Local\Temp\cccQLrBH.s 			page 3


  60:.\Generated_Source\PSoC4/Buzz.c **** }
  56              		.loc 1 60 0
  57 001a BD46     		mov	sp, r7
  58              		@ sp needed for prologue
  59 001c 80BD     		pop	{r7, pc}
  60              	.L4:
  61 001e C046     		.align	2
  62              	.L3:
  63 0020 00000000 		.word	Buzz_initVar
  64              		.cfi_endproc
  65              	.LFE0:
  66              		.size	Buzz_Start, .-Buzz_Start
  67              		.section	.text.Buzz_Init,"ax",%progbits
  68              		.align	2
  69              		.global	Buzz_Init
  70              		.code	16
  71              		.thumb_func
  72              		.type	Buzz_Init, %function
  73              	Buzz_Init:
  74              	.LFB1:
  61:.\Generated_Source\PSoC4/Buzz.c **** 
  62:.\Generated_Source\PSoC4/Buzz.c **** 
  63:.\Generated_Source\PSoC4/Buzz.c **** /*******************************************************************************
  64:.\Generated_Source\PSoC4/Buzz.c **** * Function Name: Buzz_Init
  65:.\Generated_Source\PSoC4/Buzz.c **** ********************************************************************************
  66:.\Generated_Source\PSoC4/Buzz.c **** *
  67:.\Generated_Source\PSoC4/Buzz.c **** * Summary:
  68:.\Generated_Source\PSoC4/Buzz.c **** *  Initialize component's parameters to the parameters set by user in the 
  69:.\Generated_Source\PSoC4/Buzz.c **** *  customizer of the component placed onto schematic. Usually called in 
  70:.\Generated_Source\PSoC4/Buzz.c **** *  Buzz_Start().
  71:.\Generated_Source\PSoC4/Buzz.c **** *
  72:.\Generated_Source\PSoC4/Buzz.c **** * Parameters:  
  73:.\Generated_Source\PSoC4/Buzz.c **** *  None
  74:.\Generated_Source\PSoC4/Buzz.c **** *
  75:.\Generated_Source\PSoC4/Buzz.c **** * Return: 
  76:.\Generated_Source\PSoC4/Buzz.c **** *  None
  77:.\Generated_Source\PSoC4/Buzz.c **** *
  78:.\Generated_Source\PSoC4/Buzz.c **** *******************************************************************************/
  79:.\Generated_Source\PSoC4/Buzz.c **** void Buzz_Init(void) 
  80:.\Generated_Source\PSoC4/Buzz.c **** {
  75              		.loc 1 80 0
  76              		.cfi_startproc
  77 0000 80B5     		push	{r7, lr}
  78              	.LCFI2:
  79              		.cfi_def_cfa_offset 8
  80              		.cfi_offset 7, -8
  81              		.cfi_offset 14, -4
  82 0002 82B0     		sub	sp, sp, #8
  83              	.LCFI3:
  84              		.cfi_def_cfa_offset 16
  85 0004 00AF     		add	r7, sp, #0
  86              	.LCFI4:
  87              		.cfi_def_cfa_register 7
  81:.\Generated_Source\PSoC4/Buzz.c ****     #if (Buzz_UsingFixedFunction || Buzz_UseControl)
  82:.\Generated_Source\PSoC4/Buzz.c ****         uint8 ctrl;
  83:.\Generated_Source\PSoC4/Buzz.c ****     #endif /* (Buzz_UsingFixedFunction || Buzz_UseControl) */
  84:.\Generated_Source\PSoC4/Buzz.c ****     
ARM GAS  C:\Users\javier\AppData\Local\Temp\cccQLrBH.s 			page 4


  85:.\Generated_Source\PSoC4/Buzz.c ****     #if(!Buzz_UsingFixedFunction) 
  86:.\Generated_Source\PSoC4/Buzz.c ****         #if(Buzz_UseStatus)
  87:.\Generated_Source\PSoC4/Buzz.c ****             /* Interrupt State Backup for Critical Region*/
  88:.\Generated_Source\PSoC4/Buzz.c ****             uint8 Buzz_interruptState;
  89:.\Generated_Source\PSoC4/Buzz.c ****         #endif /* (Buzz_UseStatus) */
  90:.\Generated_Source\PSoC4/Buzz.c ****     #endif /* (!Buzz_UsingFixedFunction) */
  91:.\Generated_Source\PSoC4/Buzz.c ****     
  92:.\Generated_Source\PSoC4/Buzz.c ****     #if (Buzz_UsingFixedFunction)
  93:.\Generated_Source\PSoC4/Buzz.c ****         /* You are allowed to write the compare value (FF only) */
  94:.\Generated_Source\PSoC4/Buzz.c ****         Buzz_CONTROL |= Buzz_CFG0_MODE;
  95:.\Generated_Source\PSoC4/Buzz.c ****         #if (Buzz_DeadBand2_4)
  96:.\Generated_Source\PSoC4/Buzz.c ****             Buzz_CONTROL |= Buzz_CFG0_DB;
  97:.\Generated_Source\PSoC4/Buzz.c ****         #endif /* (Buzz_DeadBand2_4) */
  98:.\Generated_Source\PSoC4/Buzz.c ****                 
  99:.\Generated_Source\PSoC4/Buzz.c ****         ctrl = Buzz_CONTROL3 & ((uint8 )(~Buzz_CTRL_CMPMODE1_MASK));
 100:.\Generated_Source\PSoC4/Buzz.c ****         Buzz_CONTROL3 = ctrl | Buzz_DEFAULT_COMPARE1_MODE;
 101:.\Generated_Source\PSoC4/Buzz.c ****         
 102:.\Generated_Source\PSoC4/Buzz.c ****          /* Clear and Set SYNCTC and SYNCCMP bits of RT1 register */
 103:.\Generated_Source\PSoC4/Buzz.c ****         Buzz_RT1 &= ((uint8)(~Buzz_RT1_MASK));
 104:.\Generated_Source\PSoC4/Buzz.c ****         Buzz_RT1 |= Buzz_SYNC;     
 105:.\Generated_Source\PSoC4/Buzz.c ****                 
 106:.\Generated_Source\PSoC4/Buzz.c ****         /*Enable DSI Sync all all inputs of the PWM*/
 107:.\Generated_Source\PSoC4/Buzz.c ****         Buzz_RT1 &= ((uint8)(~Buzz_SYNCDSI_MASK));
 108:.\Generated_Source\PSoC4/Buzz.c ****         Buzz_RT1 |= Buzz_SYNCDSI_EN;
 109:.\Generated_Source\PSoC4/Buzz.c ****        
 110:.\Generated_Source\PSoC4/Buzz.c ****     #elif (Buzz_UseControl)
 111:.\Generated_Source\PSoC4/Buzz.c ****         /* Set the default compare mode defined in the parameter */
 112:.\Generated_Source\PSoC4/Buzz.c ****         ctrl = Buzz_CONTROL & ((uint8)(~Buzz_CTRL_CMPMODE2_MASK)) & ((uint8)(~Buzz_CTRL_CMPMODE1_MA
  88              		.loc 1 112 0
  89 0006 164B     		ldr	r3, .L6
  90 0008 1B78     		ldrb	r3, [r3]
  91 000a DAB2     		uxtb	r2, r3
  92 000c FB1D     		add	r3, r7, #7
  93 000e 3F21     		mov	r1, #63
  94 0010 8A43     		bic	r2, r1
  95 0012 1A70     		strb	r2, [r3]
 113:.\Generated_Source\PSoC4/Buzz.c ****         Buzz_CONTROL = ctrl | Buzz_DEFAULT_COMPARE2_MODE | 
  96              		.loc 1 113 0
  97 0014 124B     		ldr	r3, .L6
  98 0016 FA1D     		add	r2, r7, #7
  99 0018 1278     		ldrb	r2, [r2]
 100 001a 0921     		mov	r1, #9
 101 001c 0A43     		orr	r2, r1
 102 001e D2B2     		uxtb	r2, r2
 103 0020 1A70     		strb	r2, [r3]
 114:.\Generated_Source\PSoC4/Buzz.c ****                                    Buzz_DEFAULT_COMPARE1_MODE;
 115:.\Generated_Source\PSoC4/Buzz.c ****     #endif /* (Buzz_UsingFixedFunction) */
 116:.\Generated_Source\PSoC4/Buzz.c ****         
 117:.\Generated_Source\PSoC4/Buzz.c ****     #if (!Buzz_UsingFixedFunction)
 118:.\Generated_Source\PSoC4/Buzz.c ****         #if (Buzz_Resolution == 8)
 119:.\Generated_Source\PSoC4/Buzz.c ****             /* Set FIFO 0 to 1 byte register for period*/
 120:.\Generated_Source\PSoC4/Buzz.c ****             Buzz_AUX_CONTROLDP0 |= (Buzz_AUX_CTRL_FIFO0_CLR);
 121:.\Generated_Source\PSoC4/Buzz.c ****         #else /* (Buzz_Resolution == 16)*/
 122:.\Generated_Source\PSoC4/Buzz.c ****             /* Set FIFO 0 to 1 byte register for period */
 123:.\Generated_Source\PSoC4/Buzz.c ****             Buzz_AUX_CONTROLDP0 |= (Buzz_AUX_CTRL_FIFO0_CLR);
 104              		.loc 1 123 0
 105 0022 104B     		ldr	r3, .L6+4
ARM GAS  C:\Users\javier\AppData\Local\Temp\cccQLrBH.s 			page 5


 106 0024 0F4A     		ldr	r2, .L6+4
 107 0026 1278     		ldrb	r2, [r2]
 108 0028 D2B2     		uxtb	r2, r2
 109 002a 0121     		mov	r1, #1
 110 002c 0A43     		orr	r2, r1
 111 002e D2B2     		uxtb	r2, r2
 112 0030 1A70     		strb	r2, [r3]
 124:.\Generated_Source\PSoC4/Buzz.c ****             Buzz_AUX_CONTROLDP1 |= (Buzz_AUX_CTRL_FIFO0_CLR);
 113              		.loc 1 124 0
 114 0032 0D4B     		ldr	r3, .L6+8
 115 0034 0C4A     		ldr	r2, .L6+8
 116 0036 1278     		ldrb	r2, [r2]
 117 0038 D2B2     		uxtb	r2, r2
 118 003a 0121     		mov	r1, #1
 119 003c 0A43     		orr	r2, r1
 120 003e D2B2     		uxtb	r2, r2
 121 0040 1A70     		strb	r2, [r3]
 125:.\Generated_Source\PSoC4/Buzz.c ****         #endif /* (Buzz_Resolution == 8) */
 126:.\Generated_Source\PSoC4/Buzz.c **** 
 127:.\Generated_Source\PSoC4/Buzz.c ****         Buzz_WriteCounter(Buzz_INIT_PERIOD_VALUE);
 122              		.loc 1 127 0
 123 0042 0A4B     		ldr	r3, .L6+12
 124 0044 181C     		mov	r0, r3
 125 0046 FFF7FEFF 		bl	Buzz_WriteCounter
 128:.\Generated_Source\PSoC4/Buzz.c ****     #endif /* (!Buzz_UsingFixedFunction) */
 129:.\Generated_Source\PSoC4/Buzz.c ****         
 130:.\Generated_Source\PSoC4/Buzz.c ****     Buzz_WritePeriod(Buzz_INIT_PERIOD_VALUE);
 126              		.loc 1 130 0
 127 004a 084B     		ldr	r3, .L6+12
 128 004c 181C     		mov	r0, r3
 129 004e FFF7FEFF 		bl	Buzz_WritePeriod
 131:.\Generated_Source\PSoC4/Buzz.c **** 
 132:.\Generated_Source\PSoC4/Buzz.c ****         #if (Buzz_UseOneCompareMode)
 133:.\Generated_Source\PSoC4/Buzz.c ****             Buzz_WriteCompare(Buzz_INIT_COMPARE_VALUE1);
 130              		.loc 1 133 0
 131 0052 074B     		ldr	r3, .L6+16
 132 0054 181C     		mov	r0, r3
 133 0056 FFF7FEFF 		bl	Buzz_WriteCompare
 134:.\Generated_Source\PSoC4/Buzz.c ****         #else
 135:.\Generated_Source\PSoC4/Buzz.c ****             Buzz_WriteCompare1(Buzz_INIT_COMPARE_VALUE1);
 136:.\Generated_Source\PSoC4/Buzz.c ****             Buzz_WriteCompare2(Buzz_INIT_COMPARE_VALUE2);
 137:.\Generated_Source\PSoC4/Buzz.c ****         #endif /* (Buzz_UseOneCompareMode) */
 138:.\Generated_Source\PSoC4/Buzz.c ****         
 139:.\Generated_Source\PSoC4/Buzz.c ****         #if (Buzz_KillModeMinTime)
 140:.\Generated_Source\PSoC4/Buzz.c ****             Buzz_WriteKillTime(Buzz_MinimumKillTime);
 141:.\Generated_Source\PSoC4/Buzz.c ****         #endif /* (Buzz_KillModeMinTime) */
 142:.\Generated_Source\PSoC4/Buzz.c ****         
 143:.\Generated_Source\PSoC4/Buzz.c ****         #if (Buzz_DeadBandUsed)
 144:.\Generated_Source\PSoC4/Buzz.c ****             Buzz_WriteDeadTime(Buzz_INIT_DEAD_TIME);
 145:.\Generated_Source\PSoC4/Buzz.c ****         #endif /* (Buzz_DeadBandUsed) */
 146:.\Generated_Source\PSoC4/Buzz.c **** 
 147:.\Generated_Source\PSoC4/Buzz.c ****     #if (Buzz_UseStatus || Buzz_UsingFixedFunction)
 148:.\Generated_Source\PSoC4/Buzz.c ****         Buzz_SetInterruptMode(Buzz_INIT_INTERRUPTS_MODE);
 149:.\Generated_Source\PSoC4/Buzz.c ****     #endif /* (Buzz_UseStatus || Buzz_UsingFixedFunction) */
 150:.\Generated_Source\PSoC4/Buzz.c ****         
 151:.\Generated_Source\PSoC4/Buzz.c ****     #if (Buzz_UsingFixedFunction)
 152:.\Generated_Source\PSoC4/Buzz.c ****         /* Globally Enable the Fixed Function Block chosen */
ARM GAS  C:\Users\javier\AppData\Local\Temp\cccQLrBH.s 			page 6


 153:.\Generated_Source\PSoC4/Buzz.c ****         Buzz_GLOBAL_ENABLE |= Buzz_BLOCK_EN_MASK;
 154:.\Generated_Source\PSoC4/Buzz.c ****         /* Set the Interrupt source to come from the status register */
 155:.\Generated_Source\PSoC4/Buzz.c ****         Buzz_CONTROL2 |= Buzz_CTRL2_IRQ_SEL;
 156:.\Generated_Source\PSoC4/Buzz.c ****     #else
 157:.\Generated_Source\PSoC4/Buzz.c ****         #if(Buzz_UseStatus)
 158:.\Generated_Source\PSoC4/Buzz.c ****             
 159:.\Generated_Source\PSoC4/Buzz.c ****             /* CyEnterCriticalRegion and CyExitCriticalRegion are used to mark following region cri
 160:.\Generated_Source\PSoC4/Buzz.c ****             /* Enter Critical Region*/
 161:.\Generated_Source\PSoC4/Buzz.c ****             Buzz_interruptState = CyEnterCriticalSection();
 162:.\Generated_Source\PSoC4/Buzz.c ****             /* Use the interrupt output of the status register for IRQ output */
 163:.\Generated_Source\PSoC4/Buzz.c ****             Buzz_STATUS_AUX_CTRL |= Buzz_STATUS_ACTL_INT_EN_MASK;
 164:.\Generated_Source\PSoC4/Buzz.c ****             
 165:.\Generated_Source\PSoC4/Buzz.c ****              /* Exit Critical Region*/
 166:.\Generated_Source\PSoC4/Buzz.c ****             CyExitCriticalSection(Buzz_interruptState);
 167:.\Generated_Source\PSoC4/Buzz.c ****             
 168:.\Generated_Source\PSoC4/Buzz.c ****             /* Clear the FIFO to enable the Buzz_STATUS_FIFOFULL
 169:.\Generated_Source\PSoC4/Buzz.c ****                    bit to be set on FIFO full. */
 170:.\Generated_Source\PSoC4/Buzz.c ****             Buzz_ClearFIFO();
 171:.\Generated_Source\PSoC4/Buzz.c ****         #endif /* (Buzz_UseStatus) */
 172:.\Generated_Source\PSoC4/Buzz.c ****     #endif /* (Buzz_UsingFixedFunction) */
 173:.\Generated_Source\PSoC4/Buzz.c **** }
 134              		.loc 1 173 0
 135 005a BD46     		mov	sp, r7
 136 005c 02B0     		add	sp, sp, #8
 137              		@ sp needed for prologue
 138 005e 80BD     		pop	{r7, pc}
 139              	.L7:
 140              		.align	2
 141              	.L6:
 142 0060 71000F40 		.word	1074724977
 143 0064 90000F40 		.word	1074725008
 144 0068 91000F40 		.word	1074725009
 145 006c FFFF0000 		.word	65535
 146 0070 30750000 		.word	30000
 147              		.cfi_endproc
 148              	.LFE1:
 149              		.size	Buzz_Init, .-Buzz_Init
 150              		.section	.text.Buzz_Enable,"ax",%progbits
 151              		.align	2
 152              		.global	Buzz_Enable
 153              		.code	16
 154              		.thumb_func
 155              		.type	Buzz_Enable, %function
 156              	Buzz_Enable:
 157              	.LFB2:
 174:.\Generated_Source\PSoC4/Buzz.c **** 
 175:.\Generated_Source\PSoC4/Buzz.c **** 
 176:.\Generated_Source\PSoC4/Buzz.c **** /*******************************************************************************
 177:.\Generated_Source\PSoC4/Buzz.c **** * Function Name: Buzz_Enable
 178:.\Generated_Source\PSoC4/Buzz.c **** ********************************************************************************
 179:.\Generated_Source\PSoC4/Buzz.c **** *
 180:.\Generated_Source\PSoC4/Buzz.c **** * Summary: 
 181:.\Generated_Source\PSoC4/Buzz.c **** *  Enables the PWM block operation
 182:.\Generated_Source\PSoC4/Buzz.c **** *
 183:.\Generated_Source\PSoC4/Buzz.c **** * Parameters:  
 184:.\Generated_Source\PSoC4/Buzz.c **** *  None
 185:.\Generated_Source\PSoC4/Buzz.c **** *
ARM GAS  C:\Users\javier\AppData\Local\Temp\cccQLrBH.s 			page 7


 186:.\Generated_Source\PSoC4/Buzz.c **** * Return: 
 187:.\Generated_Source\PSoC4/Buzz.c **** *  None
 188:.\Generated_Source\PSoC4/Buzz.c **** *
 189:.\Generated_Source\PSoC4/Buzz.c **** * Side Effects: 
 190:.\Generated_Source\PSoC4/Buzz.c **** *  This works only if software enable mode is chosen
 191:.\Generated_Source\PSoC4/Buzz.c **** *
 192:.\Generated_Source\PSoC4/Buzz.c **** *******************************************************************************/
 193:.\Generated_Source\PSoC4/Buzz.c **** void Buzz_Enable(void) 
 194:.\Generated_Source\PSoC4/Buzz.c **** {
 158              		.loc 1 194 0
 159              		.cfi_startproc
 160 0000 80B5     		push	{r7, lr}
 161              	.LCFI5:
 162              		.cfi_def_cfa_offset 8
 163              		.cfi_offset 7, -8
 164              		.cfi_offset 14, -4
 165 0002 00AF     		add	r7, sp, #0
 166              	.LCFI6:
 167              		.cfi_def_cfa_register 7
 195:.\Generated_Source\PSoC4/Buzz.c ****     /* Globally Enable the Fixed Function Block chosen */
 196:.\Generated_Source\PSoC4/Buzz.c ****     #if (Buzz_UsingFixedFunction)
 197:.\Generated_Source\PSoC4/Buzz.c ****         Buzz_GLOBAL_ENABLE |= Buzz_BLOCK_EN_MASK;
 198:.\Generated_Source\PSoC4/Buzz.c ****         Buzz_GLOBAL_STBY_ENABLE |= Buzz_BLOCK_STBY_EN_MASK;
 199:.\Generated_Source\PSoC4/Buzz.c ****     #endif /* (Buzz_UsingFixedFunction) */
 200:.\Generated_Source\PSoC4/Buzz.c ****     
 201:.\Generated_Source\PSoC4/Buzz.c ****     /* Enable the PWM from the control register  */
 202:.\Generated_Source\PSoC4/Buzz.c ****     #if (Buzz_UseControl || Buzz_UsingFixedFunction)
 203:.\Generated_Source\PSoC4/Buzz.c ****         Buzz_CONTROL |= Buzz_CTRL_ENABLE;
 168              		.loc 1 203 0
 169 0004 054B     		ldr	r3, .L9
 170 0006 054A     		ldr	r2, .L9
 171 0008 1278     		ldrb	r2, [r2]
 172 000a D2B2     		uxtb	r2, r2
 173 000c 8021     		mov	r1, #128
 174 000e 4942     		neg	r1, r1
 175 0010 0A43     		orr	r2, r1
 176 0012 D2B2     		uxtb	r2, r2
 177 0014 1A70     		strb	r2, [r3]
 204:.\Generated_Source\PSoC4/Buzz.c ****     #endif /* (Buzz_UseControl || Buzz_UsingFixedFunction) */
 205:.\Generated_Source\PSoC4/Buzz.c **** }
 178              		.loc 1 205 0
 179 0016 BD46     		mov	sp, r7
 180              		@ sp needed for prologue
 181 0018 80BD     		pop	{r7, pc}
 182              	.L10:
 183 001a C046     		.align	2
 184              	.L9:
 185 001c 71000F40 		.word	1074724977
 186              		.cfi_endproc
 187              	.LFE2:
 188              		.size	Buzz_Enable, .-Buzz_Enable
 189              		.section	.text.Buzz_Stop,"ax",%progbits
 190              		.align	2
 191              		.global	Buzz_Stop
 192              		.code	16
 193              		.thumb_func
 194              		.type	Buzz_Stop, %function
ARM GAS  C:\Users\javier\AppData\Local\Temp\cccQLrBH.s 			page 8


 195              	Buzz_Stop:
 196              	.LFB3:
 206:.\Generated_Source\PSoC4/Buzz.c **** 
 207:.\Generated_Source\PSoC4/Buzz.c **** 
 208:.\Generated_Source\PSoC4/Buzz.c **** /*******************************************************************************
 209:.\Generated_Source\PSoC4/Buzz.c **** * Function Name: Buzz_Stop
 210:.\Generated_Source\PSoC4/Buzz.c **** ********************************************************************************
 211:.\Generated_Source\PSoC4/Buzz.c **** *
 212:.\Generated_Source\PSoC4/Buzz.c **** * Summary:
 213:.\Generated_Source\PSoC4/Buzz.c **** *  The stop function halts the PWM, but does not change any modes or disable
 214:.\Generated_Source\PSoC4/Buzz.c **** *  interrupts.
 215:.\Generated_Source\PSoC4/Buzz.c **** *
 216:.\Generated_Source\PSoC4/Buzz.c **** * Parameters:  
 217:.\Generated_Source\PSoC4/Buzz.c **** *  None  
 218:.\Generated_Source\PSoC4/Buzz.c **** *
 219:.\Generated_Source\PSoC4/Buzz.c **** * Return: 
 220:.\Generated_Source\PSoC4/Buzz.c **** *  None
 221:.\Generated_Source\PSoC4/Buzz.c **** *
 222:.\Generated_Source\PSoC4/Buzz.c **** * Side Effects:
 223:.\Generated_Source\PSoC4/Buzz.c **** *  If the Enable mode is set to Hardware only then this function
 224:.\Generated_Source\PSoC4/Buzz.c **** *  has no effect on the operation of the PWM
 225:.\Generated_Source\PSoC4/Buzz.c **** *
 226:.\Generated_Source\PSoC4/Buzz.c **** *******************************************************************************/
 227:.\Generated_Source\PSoC4/Buzz.c **** void Buzz_Stop(void) 
 228:.\Generated_Source\PSoC4/Buzz.c **** {
 197              		.loc 1 228 0
 198              		.cfi_startproc
 199 0000 80B5     		push	{r7, lr}
 200              	.LCFI7:
 201              		.cfi_def_cfa_offset 8
 202              		.cfi_offset 7, -8
 203              		.cfi_offset 14, -4
 204 0002 00AF     		add	r7, sp, #0
 205              	.LCFI8:
 206              		.cfi_def_cfa_register 7
 229:.\Generated_Source\PSoC4/Buzz.c ****     #if (Buzz_UseControl || Buzz_UsingFixedFunction)
 230:.\Generated_Source\PSoC4/Buzz.c ****         Buzz_CONTROL &= ((uint8)(~Buzz_CTRL_ENABLE));
 207              		.loc 1 230 0
 208 0004 044B     		ldr	r3, .L12
 209 0006 044A     		ldr	r2, .L12
 210 0008 1278     		ldrb	r2, [r2]
 211 000a D1B2     		uxtb	r1, r2
 212 000c 7F22     		mov	r2, #127
 213 000e 0A40     		and	r2, r1
 214 0010 D2B2     		uxtb	r2, r2
 215 0012 1A70     		strb	r2, [r3]
 231:.\Generated_Source\PSoC4/Buzz.c ****     #endif /* (Buzz_UseControl || Buzz_UsingFixedFunction) */
 232:.\Generated_Source\PSoC4/Buzz.c ****     
 233:.\Generated_Source\PSoC4/Buzz.c ****     /* Globally disable the Fixed Function Block chosen */
 234:.\Generated_Source\PSoC4/Buzz.c ****     #if (Buzz_UsingFixedFunction)
 235:.\Generated_Source\PSoC4/Buzz.c ****         Buzz_GLOBAL_ENABLE &= ((uint8)(~Buzz_BLOCK_EN_MASK));
 236:.\Generated_Source\PSoC4/Buzz.c ****         Buzz_GLOBAL_STBY_ENABLE &= ((uint8)(~Buzz_BLOCK_STBY_EN_MASK));
 237:.\Generated_Source\PSoC4/Buzz.c ****     #endif /* (Buzz_UsingFixedFunction) */
 238:.\Generated_Source\PSoC4/Buzz.c **** }
 216              		.loc 1 238 0
 217 0014 BD46     		mov	sp, r7
 218              		@ sp needed for prologue
ARM GAS  C:\Users\javier\AppData\Local\Temp\cccQLrBH.s 			page 9


 219 0016 80BD     		pop	{r7, pc}
 220              	.L13:
 221              		.align	2
 222              	.L12:
 223 0018 71000F40 		.word	1074724977
 224              		.cfi_endproc
 225              	.LFE3:
 226              		.size	Buzz_Stop, .-Buzz_Stop
 227              		.section	.text.Buzz_WriteCounter,"ax",%progbits
 228              		.align	2
 229              		.global	Buzz_WriteCounter
 230              		.code	16
 231              		.thumb_func
 232              		.type	Buzz_WriteCounter, %function
 233              	Buzz_WriteCounter:
 234              	.LFB4:
 239:.\Generated_Source\PSoC4/Buzz.c **** 
 240:.\Generated_Source\PSoC4/Buzz.c **** 
 241:.\Generated_Source\PSoC4/Buzz.c **** #if (Buzz_UseOneCompareMode)
 242:.\Generated_Source\PSoC4/Buzz.c **** 	#if (Buzz_CompareMode1SW)
 243:.\Generated_Source\PSoC4/Buzz.c **** 
 244:.\Generated_Source\PSoC4/Buzz.c **** 
 245:.\Generated_Source\PSoC4/Buzz.c **** 		/*******************************************************************************
 246:.\Generated_Source\PSoC4/Buzz.c **** 		* Function Name: Buzz_SetCompareMode
 247:.\Generated_Source\PSoC4/Buzz.c **** 		********************************************************************************
 248:.\Generated_Source\PSoC4/Buzz.c **** 		* 
 249:.\Generated_Source\PSoC4/Buzz.c **** 		* Summary:
 250:.\Generated_Source\PSoC4/Buzz.c **** 		*  This function writes the Compare Mode for the pwm output when in Dither mode,
 251:.\Generated_Source\PSoC4/Buzz.c **** 		*  Center Align Mode or One Output Mode.
 252:.\Generated_Source\PSoC4/Buzz.c **** 		*
 253:.\Generated_Source\PSoC4/Buzz.c **** 		* Parameters:
 254:.\Generated_Source\PSoC4/Buzz.c **** 		*  comparemode:  The new compare mode for the PWM output. Use the compare types
 255:.\Generated_Source\PSoC4/Buzz.c **** 		*                defined in the H file as input arguments.
 256:.\Generated_Source\PSoC4/Buzz.c **** 		*
 257:.\Generated_Source\PSoC4/Buzz.c **** 		* Return:
 258:.\Generated_Source\PSoC4/Buzz.c **** 		*  None
 259:.\Generated_Source\PSoC4/Buzz.c **** 		*
 260:.\Generated_Source\PSoC4/Buzz.c **** 		*******************************************************************************/
 261:.\Generated_Source\PSoC4/Buzz.c **** 		void Buzz_SetCompareMode(uint8 comparemode) 
 262:.\Generated_Source\PSoC4/Buzz.c **** 		{
 263:.\Generated_Source\PSoC4/Buzz.c **** 		    #if(Buzz_UsingFixedFunction)
 264:.\Generated_Source\PSoC4/Buzz.c ****             
 265:.\Generated_Source\PSoC4/Buzz.c ****                 #if(0 != Buzz_CTRL_CMPMODE1_SHIFT)
 266:.\Generated_Source\PSoC4/Buzz.c ****                     uint8 comparemodemasked = ((uint8)((uint8)comparemode << Buzz_CTRL_CMPMODE1_SHI
 267:.\Generated_Source\PSoC4/Buzz.c ****                 #else
 268:.\Generated_Source\PSoC4/Buzz.c ****                     uint8 comparemodemasked = comparemode;
 269:.\Generated_Source\PSoC4/Buzz.c ****                 #endif /* (0 != Buzz_CTRL_CMPMODE1_SHIFT) */
 270:.\Generated_Source\PSoC4/Buzz.c ****             
 271:.\Generated_Source\PSoC4/Buzz.c **** 	            Buzz_CONTROL3 &= ((uint8)(~Buzz_CTRL_CMPMODE1_MASK)); /*Clear Existing Data */
 272:.\Generated_Source\PSoC4/Buzz.c **** 	            Buzz_CONTROL3 |= comparemodemasked;     
 273:.\Generated_Source\PSoC4/Buzz.c **** 		                
 274:.\Generated_Source\PSoC4/Buzz.c **** 		    #elif (Buzz_UseControl)
 275:.\Generated_Source\PSoC4/Buzz.c **** 		        
 276:.\Generated_Source\PSoC4/Buzz.c ****                 #if(0 != Buzz_CTRL_CMPMODE1_SHIFT)
 277:.\Generated_Source\PSoC4/Buzz.c ****                     uint8 comparemode1masked = ((uint8)((uint8)comparemode << Buzz_CTRL_CMPMODE1_SH
 278:.\Generated_Source\PSoC4/Buzz.c ****     		                                    Buzz_CTRL_CMPMODE1_MASK;
 279:.\Generated_Source\PSoC4/Buzz.c ****                 #else
ARM GAS  C:\Users\javier\AppData\Local\Temp\cccQLrBH.s 			page 10


 280:.\Generated_Source\PSoC4/Buzz.c ****                     uint8 comparemode1masked = comparemode & Buzz_CTRL_CMPMODE1_MASK;              
 281:.\Generated_Source\PSoC4/Buzz.c ****                 #endif /* (0 != Buzz_CTRL_CMPMODE1_SHIFT) */
 282:.\Generated_Source\PSoC4/Buzz.c ****                 
 283:.\Generated_Source\PSoC4/Buzz.c ****                 #if(0 != Buzz_CTRL_CMPMODE2_SHIFT)                            
 284:.\Generated_Source\PSoC4/Buzz.c ****     		        uint8 comparemode2masked = ((uint8)((uint8)comparemode << Buzz_CTRL_CMPMODE2_SHIFT)) 
 285:.\Generated_Source\PSoC4/Buzz.c ****     		                                   Buzz_CTRL_CMPMODE2_MASK;
 286:.\Generated_Source\PSoC4/Buzz.c ****                 #else
 287:.\Generated_Source\PSoC4/Buzz.c ****     		        uint8 comparemode2masked = comparemode & Buzz_CTRL_CMPMODE2_MASK;                
 288:.\Generated_Source\PSoC4/Buzz.c ****                 #endif /* (0 != Buzz_CTRL_CMPMODE2_SHIFT) */
 289:.\Generated_Source\PSoC4/Buzz.c ****                 
 290:.\Generated_Source\PSoC4/Buzz.c **** 		        /*Clear existing mode */
 291:.\Generated_Source\PSoC4/Buzz.c **** 		        Buzz_CONTROL &= ((uint8)(~(Buzz_CTRL_CMPMODE1_MASK | Buzz_CTRL_CMPMODE2_MASK))); 
 292:.\Generated_Source\PSoC4/Buzz.c **** 		        Buzz_CONTROL |= (comparemode1masked | comparemode2masked);
 293:.\Generated_Source\PSoC4/Buzz.c **** 		        
 294:.\Generated_Source\PSoC4/Buzz.c **** 		    #else
 295:.\Generated_Source\PSoC4/Buzz.c **** 		        uint8 temp = comparemode;
 296:.\Generated_Source\PSoC4/Buzz.c **** 		    #endif /* (Buzz_UsingFixedFunction) */
 297:.\Generated_Source\PSoC4/Buzz.c **** 		}
 298:.\Generated_Source\PSoC4/Buzz.c **** 	#endif /* Buzz_CompareMode1SW */
 299:.\Generated_Source\PSoC4/Buzz.c **** 
 300:.\Generated_Source\PSoC4/Buzz.c **** #else /* UseOneCompareMode */
 301:.\Generated_Source\PSoC4/Buzz.c **** 
 302:.\Generated_Source\PSoC4/Buzz.c **** 	#if (Buzz_CompareMode1SW)
 303:.\Generated_Source\PSoC4/Buzz.c **** 
 304:.\Generated_Source\PSoC4/Buzz.c **** 
 305:.\Generated_Source\PSoC4/Buzz.c **** 		/*******************************************************************************
 306:.\Generated_Source\PSoC4/Buzz.c **** 		* Function Name: Buzz_SetCompareMode1
 307:.\Generated_Source\PSoC4/Buzz.c **** 		********************************************************************************
 308:.\Generated_Source\PSoC4/Buzz.c **** 		* 
 309:.\Generated_Source\PSoC4/Buzz.c **** 		* Summary:
 310:.\Generated_Source\PSoC4/Buzz.c **** 		*  This function writes the Compare Mode for the pwm or pwm1 output
 311:.\Generated_Source\PSoC4/Buzz.c **** 		*
 312:.\Generated_Source\PSoC4/Buzz.c **** 		* Parameters:  
 313:.\Generated_Source\PSoC4/Buzz.c **** 		*  comparemode:  The new compare mode for the PWM output. Use the compare types
 314:.\Generated_Source\PSoC4/Buzz.c **** 		*                defined in the H file as input arguments.
 315:.\Generated_Source\PSoC4/Buzz.c **** 		*
 316:.\Generated_Source\PSoC4/Buzz.c **** 		* Return: 
 317:.\Generated_Source\PSoC4/Buzz.c **** 		*  None
 318:.\Generated_Source\PSoC4/Buzz.c **** 		*
 319:.\Generated_Source\PSoC4/Buzz.c **** 		*******************************************************************************/
 320:.\Generated_Source\PSoC4/Buzz.c **** 		void Buzz_SetCompareMode1(uint8 comparemode) 
 321:.\Generated_Source\PSoC4/Buzz.c **** 		{
 322:.\Generated_Source\PSoC4/Buzz.c **** 		    #if(0 != Buzz_CTRL_CMPMODE1_SHIFT)
 323:.\Generated_Source\PSoC4/Buzz.c ****                 uint8 comparemodemasked = ((uint8)((uint8)comparemode << Buzz_CTRL_CMPMODE1_SHIFT))
 324:.\Generated_Source\PSoC4/Buzz.c ****     		                               Buzz_CTRL_CMPMODE1_MASK;
 325:.\Generated_Source\PSoC4/Buzz.c **** 		    #else
 326:.\Generated_Source\PSoC4/Buzz.c ****                 uint8 comparemodemasked = comparemode & Buzz_CTRL_CMPMODE1_MASK;                
 327:.\Generated_Source\PSoC4/Buzz.c ****             #endif /* (0 != Buzz_CTRL_CMPMODE1_SHIFT) */
 328:.\Generated_Source\PSoC4/Buzz.c ****                    
 329:.\Generated_Source\PSoC4/Buzz.c **** 		    #if (Buzz_UseControl)
 330:.\Generated_Source\PSoC4/Buzz.c **** 		        Buzz_CONTROL &= ((uint8)(~Buzz_CTRL_CMPMODE1_MASK)); /*Clear existing mode */
 331:.\Generated_Source\PSoC4/Buzz.c **** 		        Buzz_CONTROL |= comparemodemasked;
 332:.\Generated_Source\PSoC4/Buzz.c **** 		    #endif /* (Buzz_UseControl) */
 333:.\Generated_Source\PSoC4/Buzz.c **** 		}
 334:.\Generated_Source\PSoC4/Buzz.c **** 	#endif /* Buzz_CompareMode1SW */
 335:.\Generated_Source\PSoC4/Buzz.c **** 
 336:.\Generated_Source\PSoC4/Buzz.c **** #if (Buzz_CompareMode2SW)
ARM GAS  C:\Users\javier\AppData\Local\Temp\cccQLrBH.s 			page 11


 337:.\Generated_Source\PSoC4/Buzz.c **** 
 338:.\Generated_Source\PSoC4/Buzz.c **** 
 339:.\Generated_Source\PSoC4/Buzz.c ****     /*******************************************************************************
 340:.\Generated_Source\PSoC4/Buzz.c ****     * Function Name: Buzz_SetCompareMode2
 341:.\Generated_Source\PSoC4/Buzz.c ****     ********************************************************************************
 342:.\Generated_Source\PSoC4/Buzz.c ****     * 
 343:.\Generated_Source\PSoC4/Buzz.c ****     * Summary:
 344:.\Generated_Source\PSoC4/Buzz.c ****     *  This function writes the Compare Mode for the pwm or pwm2 output
 345:.\Generated_Source\PSoC4/Buzz.c ****     *
 346:.\Generated_Source\PSoC4/Buzz.c ****     * Parameters:  
 347:.\Generated_Source\PSoC4/Buzz.c ****     *  comparemode:  The new compare mode for the PWM output. Use the compare types
 348:.\Generated_Source\PSoC4/Buzz.c ****     *                defined in the H file as input arguments.
 349:.\Generated_Source\PSoC4/Buzz.c ****     *
 350:.\Generated_Source\PSoC4/Buzz.c ****     * Return: 
 351:.\Generated_Source\PSoC4/Buzz.c ****     *  None
 352:.\Generated_Source\PSoC4/Buzz.c ****     *
 353:.\Generated_Source\PSoC4/Buzz.c ****     *******************************************************************************/
 354:.\Generated_Source\PSoC4/Buzz.c ****     void Buzz_SetCompareMode2(uint8 comparemode) 
 355:.\Generated_Source\PSoC4/Buzz.c ****     {
 356:.\Generated_Source\PSoC4/Buzz.c **** 
 357:.\Generated_Source\PSoC4/Buzz.c ****         #if(0 != Buzz_CTRL_CMPMODE2_SHIFT)
 358:.\Generated_Source\PSoC4/Buzz.c ****             uint8 comparemodemasked = ((uint8)((uint8)comparemode << Buzz_CTRL_CMPMODE2_SHIFT)) & 
 359:.\Generated_Source\PSoC4/Buzz.c ****                                                  Buzz_CTRL_CMPMODE2_MASK;
 360:.\Generated_Source\PSoC4/Buzz.c ****         #else
 361:.\Generated_Source\PSoC4/Buzz.c ****             uint8 comparemodemasked = comparemode & Buzz_CTRL_CMPMODE2_MASK;            
 362:.\Generated_Source\PSoC4/Buzz.c ****         #endif /* (0 != Buzz_CTRL_CMPMODE2_SHIFT) */
 363:.\Generated_Source\PSoC4/Buzz.c ****         
 364:.\Generated_Source\PSoC4/Buzz.c ****         #if (Buzz_UseControl)
 365:.\Generated_Source\PSoC4/Buzz.c ****             Buzz_CONTROL &= ((uint8)(~Buzz_CTRL_CMPMODE2_MASK)); /*Clear existing mode */
 366:.\Generated_Source\PSoC4/Buzz.c ****             Buzz_CONTROL |= comparemodemasked;
 367:.\Generated_Source\PSoC4/Buzz.c ****         #endif /* (Buzz_UseControl) */
 368:.\Generated_Source\PSoC4/Buzz.c ****     }
 369:.\Generated_Source\PSoC4/Buzz.c ****     #endif /*Buzz_CompareMode2SW */
 370:.\Generated_Source\PSoC4/Buzz.c **** 
 371:.\Generated_Source\PSoC4/Buzz.c **** #endif /* UseOneCompareMode */
 372:.\Generated_Source\PSoC4/Buzz.c **** 
 373:.\Generated_Source\PSoC4/Buzz.c **** 
 374:.\Generated_Source\PSoC4/Buzz.c **** #if (!Buzz_UsingFixedFunction)
 375:.\Generated_Source\PSoC4/Buzz.c **** 
 376:.\Generated_Source\PSoC4/Buzz.c **** 
 377:.\Generated_Source\PSoC4/Buzz.c ****     /*******************************************************************************
 378:.\Generated_Source\PSoC4/Buzz.c ****     * Function Name: Buzz_WriteCounter
 379:.\Generated_Source\PSoC4/Buzz.c ****     ********************************************************************************
 380:.\Generated_Source\PSoC4/Buzz.c ****     * 
 381:.\Generated_Source\PSoC4/Buzz.c ****     * Summary:
 382:.\Generated_Source\PSoC4/Buzz.c ****     *  Writes a new counter value directly to the counter register. This will be 
 383:.\Generated_Source\PSoC4/Buzz.c ****     *  implemented for that currently running period and only that period. This API 
 384:.\Generated_Source\PSoC4/Buzz.c ****     *  is valid only for UDB implementation and not available for fixed function 
 385:.\Generated_Source\PSoC4/Buzz.c ****     *  PWM implementation.    
 386:.\Generated_Source\PSoC4/Buzz.c ****     *
 387:.\Generated_Source\PSoC4/Buzz.c ****     * Parameters:  
 388:.\Generated_Source\PSoC4/Buzz.c ****     *  counter:  The period new period counter value.
 389:.\Generated_Source\PSoC4/Buzz.c ****     *
 390:.\Generated_Source\PSoC4/Buzz.c ****     * Return: 
 391:.\Generated_Source\PSoC4/Buzz.c ****     *  None
 392:.\Generated_Source\PSoC4/Buzz.c ****     *
 393:.\Generated_Source\PSoC4/Buzz.c ****     * Side Effects: 
ARM GAS  C:\Users\javier\AppData\Local\Temp\cccQLrBH.s 			page 12


 394:.\Generated_Source\PSoC4/Buzz.c ****     *  The PWM Period will be reloaded when a counter value will be a zero
 395:.\Generated_Source\PSoC4/Buzz.c ****     *
 396:.\Generated_Source\PSoC4/Buzz.c ****     *******************************************************************************/
 397:.\Generated_Source\PSoC4/Buzz.c ****     void Buzz_WriteCounter(uint16 counter) \
 398:.\Generated_Source\PSoC4/Buzz.c ****                                        
 399:.\Generated_Source\PSoC4/Buzz.c ****     {
 235              		.loc 1 399 0
 236              		.cfi_startproc
 237 0000 80B5     		push	{r7, lr}
 238              	.LCFI9:
 239              		.cfi_def_cfa_offset 8
 240              		.cfi_offset 7, -8
 241              		.cfi_offset 14, -4
 242 0002 82B0     		sub	sp, sp, #8
 243              	.LCFI10:
 244              		.cfi_def_cfa_offset 16
 245 0004 00AF     		add	r7, sp, #0
 246              	.LCFI11:
 247              		.cfi_def_cfa_register 7
 248 0006 021C     		mov	r2, r0
 249 0008 BB1D     		add	r3, r7, #6
 250 000a 1A80     		strh	r2, [r3]
 400:.\Generated_Source\PSoC4/Buzz.c ****         CY_SET_REG16(Buzz_COUNTER_LSB_PTR, counter);
 251              		.loc 1 400 0
 252 000c 034B     		ldr	r3, .L15
 253 000e BA1D     		add	r2, r7, #6
 254 0010 1288     		ldrh	r2, [r2]
 255 0012 1A80     		strh	r2, [r3]
 401:.\Generated_Source\PSoC4/Buzz.c ****     }
 256              		.loc 1 401 0
 257 0014 BD46     		mov	sp, r7
 258 0016 02B0     		add	sp, sp, #8
 259              		@ sp needed for prologue
 260 0018 80BD     		pop	{r7, pc}
 261              	.L16:
 262 001a C046     		.align	2
 263              	.L15:
 264 001c 00100F40 		.word	1074728960
 265              		.cfi_endproc
 266              	.LFE4:
 267              		.size	Buzz_WriteCounter, .-Buzz_WriteCounter
 268              		.section	.text.Buzz_ReadCounter,"ax",%progbits
 269              		.align	2
 270              		.global	Buzz_ReadCounter
 271              		.code	16
 272              		.thumb_func
 273              		.type	Buzz_ReadCounter, %function
 274              	Buzz_ReadCounter:
 275              	.LFB5:
 402:.\Generated_Source\PSoC4/Buzz.c **** 
 403:.\Generated_Source\PSoC4/Buzz.c **** 
 404:.\Generated_Source\PSoC4/Buzz.c ****     /*******************************************************************************
 405:.\Generated_Source\PSoC4/Buzz.c ****     * Function Name: Buzz_ReadCounter
 406:.\Generated_Source\PSoC4/Buzz.c ****     ********************************************************************************
 407:.\Generated_Source\PSoC4/Buzz.c ****     * 
 408:.\Generated_Source\PSoC4/Buzz.c ****     * Summary:
 409:.\Generated_Source\PSoC4/Buzz.c ****     *  This function returns the current value of the counter.  It doesn't matter
ARM GAS  C:\Users\javier\AppData\Local\Temp\cccQLrBH.s 			page 13


 410:.\Generated_Source\PSoC4/Buzz.c ****     *  if the counter is enabled or running.
 411:.\Generated_Source\PSoC4/Buzz.c ****     *
 412:.\Generated_Source\PSoC4/Buzz.c ****     * Parameters:  
 413:.\Generated_Source\PSoC4/Buzz.c ****     *  None  
 414:.\Generated_Source\PSoC4/Buzz.c ****     *
 415:.\Generated_Source\PSoC4/Buzz.c ****     * Return: 
 416:.\Generated_Source\PSoC4/Buzz.c ****     *  The current value of the counter.
 417:.\Generated_Source\PSoC4/Buzz.c ****     *
 418:.\Generated_Source\PSoC4/Buzz.c ****     *******************************************************************************/
 419:.\Generated_Source\PSoC4/Buzz.c ****     uint16 Buzz_ReadCounter(void) 
 420:.\Generated_Source\PSoC4/Buzz.c ****     {
 276              		.loc 1 420 0
 277              		.cfi_startproc
 278 0000 80B5     		push	{r7, lr}
 279              	.LCFI12:
 280              		.cfi_def_cfa_offset 8
 281              		.cfi_offset 7, -8
 282              		.cfi_offset 14, -4
 283 0002 00AF     		add	r7, sp, #0
 284              	.LCFI13:
 285              		.cfi_def_cfa_register 7
 421:.\Generated_Source\PSoC4/Buzz.c ****         /* Force capture by reading Accumulator */
 422:.\Generated_Source\PSoC4/Buzz.c ****         /* Must first do a software capture to be able to read the counter */
 423:.\Generated_Source\PSoC4/Buzz.c ****         /* It is up to the user code to make sure there isn't already captured data in the FIFO */
 424:.\Generated_Source\PSoC4/Buzz.c ****         (void)Buzz_COUNTERCAP_LSB;
 286              		.loc 1 424 0
 287 0004 034B     		ldr	r3, .L19
 288 0006 1B88     		ldrh	r3, [r3]
 425:.\Generated_Source\PSoC4/Buzz.c ****         
 426:.\Generated_Source\PSoC4/Buzz.c ****         /* Read the data from the FIFO (or capture register for Fixed Function)*/
 427:.\Generated_Source\PSoC4/Buzz.c ****         return (CY_GET_REG16(Buzz_CAPTURE_LSB_PTR));
 289              		.loc 1 427 0
 290 0008 034B     		ldr	r3, .L19+4
 291 000a 1B88     		ldrh	r3, [r3]
 292 000c 9BB2     		uxth	r3, r3
 428:.\Generated_Source\PSoC4/Buzz.c ****     }
 293              		.loc 1 428 0
 294 000e 181C     		mov	r0, r3
 295 0010 BD46     		mov	sp, r7
 296              		@ sp needed for prologue
 297 0012 80BD     		pop	{r7, pc}
 298              	.L20:
 299              		.align	2
 300              	.L19:
 301 0014 20100F40 		.word	1074728992
 302 0018 A0100F40 		.word	1074729120
 303              		.cfi_endproc
 304              	.LFE5:
 305              		.size	Buzz_ReadCounter, .-Buzz_ReadCounter
 306              		.section	.text.Buzz_WritePeriod,"ax",%progbits
 307              		.align	2
 308              		.global	Buzz_WritePeriod
 309              		.code	16
 310              		.thumb_func
 311              		.type	Buzz_WritePeriod, %function
 312              	Buzz_WritePeriod:
 313              	.LFB6:
ARM GAS  C:\Users\javier\AppData\Local\Temp\cccQLrBH.s 			page 14


 429:.\Generated_Source\PSoC4/Buzz.c **** 
 430:.\Generated_Source\PSoC4/Buzz.c ****         #if (Buzz_UseStatus)
 431:.\Generated_Source\PSoC4/Buzz.c **** 
 432:.\Generated_Source\PSoC4/Buzz.c **** 
 433:.\Generated_Source\PSoC4/Buzz.c ****             /*******************************************************************************
 434:.\Generated_Source\PSoC4/Buzz.c ****             * Function Name: Buzz_ClearFIFO
 435:.\Generated_Source\PSoC4/Buzz.c ****             ********************************************************************************
 436:.\Generated_Source\PSoC4/Buzz.c ****             * 
 437:.\Generated_Source\PSoC4/Buzz.c ****             * Summary:
 438:.\Generated_Source\PSoC4/Buzz.c ****             *  This function clears all capture data from the capture FIFO
 439:.\Generated_Source\PSoC4/Buzz.c ****             *
 440:.\Generated_Source\PSoC4/Buzz.c ****             * Parameters:  
 441:.\Generated_Source\PSoC4/Buzz.c ****             *  None
 442:.\Generated_Source\PSoC4/Buzz.c ****             *
 443:.\Generated_Source\PSoC4/Buzz.c ****             * Return: 
 444:.\Generated_Source\PSoC4/Buzz.c ****             *  None
 445:.\Generated_Source\PSoC4/Buzz.c ****             *
 446:.\Generated_Source\PSoC4/Buzz.c ****             *******************************************************************************/
 447:.\Generated_Source\PSoC4/Buzz.c ****             void Buzz_ClearFIFO(void) 
 448:.\Generated_Source\PSoC4/Buzz.c ****             {
 449:.\Generated_Source\PSoC4/Buzz.c ****                 while(0u != (Buzz_ReadStatusRegister() & Buzz_STATUS_FIFONEMPTY))
 450:.\Generated_Source\PSoC4/Buzz.c ****                 {
 451:.\Generated_Source\PSoC4/Buzz.c ****                     (void)Buzz_ReadCapture();
 452:.\Generated_Source\PSoC4/Buzz.c ****                 }
 453:.\Generated_Source\PSoC4/Buzz.c ****             }
 454:.\Generated_Source\PSoC4/Buzz.c **** 
 455:.\Generated_Source\PSoC4/Buzz.c ****         #endif /* Buzz_UseStatus */
 456:.\Generated_Source\PSoC4/Buzz.c **** 
 457:.\Generated_Source\PSoC4/Buzz.c **** #endif /* !Buzz_UsingFixedFunction */
 458:.\Generated_Source\PSoC4/Buzz.c **** 
 459:.\Generated_Source\PSoC4/Buzz.c **** 
 460:.\Generated_Source\PSoC4/Buzz.c **** /*******************************************************************************
 461:.\Generated_Source\PSoC4/Buzz.c **** * Function Name: Buzz_WritePeriod
 462:.\Generated_Source\PSoC4/Buzz.c **** ********************************************************************************
 463:.\Generated_Source\PSoC4/Buzz.c **** * 
 464:.\Generated_Source\PSoC4/Buzz.c **** * Summary:
 465:.\Generated_Source\PSoC4/Buzz.c **** *  This function is used to change the period of the counter.  The new period 
 466:.\Generated_Source\PSoC4/Buzz.c **** *  will be loaded the next time terminal count is detected.
 467:.\Generated_Source\PSoC4/Buzz.c **** *
 468:.\Generated_Source\PSoC4/Buzz.c **** * Parameters:  
 469:.\Generated_Source\PSoC4/Buzz.c **** *  period:  Period value. May be between 1 and (2^Resolution)-1.  A value of 0 
 470:.\Generated_Source\PSoC4/Buzz.c **** *           will result in the counter remaining at zero.
 471:.\Generated_Source\PSoC4/Buzz.c **** *
 472:.\Generated_Source\PSoC4/Buzz.c **** * Return: 
 473:.\Generated_Source\PSoC4/Buzz.c **** *  None
 474:.\Generated_Source\PSoC4/Buzz.c **** *
 475:.\Generated_Source\PSoC4/Buzz.c **** *******************************************************************************/
 476:.\Generated_Source\PSoC4/Buzz.c **** void Buzz_WritePeriod(uint16 period) 
 477:.\Generated_Source\PSoC4/Buzz.c **** {
 314              		.loc 1 477 0
 315              		.cfi_startproc
 316 0000 80B5     		push	{r7, lr}
 317              	.LCFI14:
 318              		.cfi_def_cfa_offset 8
 319              		.cfi_offset 7, -8
 320              		.cfi_offset 14, -4
 321 0002 82B0     		sub	sp, sp, #8
ARM GAS  C:\Users\javier\AppData\Local\Temp\cccQLrBH.s 			page 15


 322              	.LCFI15:
 323              		.cfi_def_cfa_offset 16
 324 0004 00AF     		add	r7, sp, #0
 325              	.LCFI16:
 326              		.cfi_def_cfa_register 7
 327 0006 021C     		mov	r2, r0
 328 0008 BB1D     		add	r3, r7, #6
 329 000a 1A80     		strh	r2, [r3]
 478:.\Generated_Source\PSoC4/Buzz.c ****     #if(Buzz_UsingFixedFunction)
 479:.\Generated_Source\PSoC4/Buzz.c ****         CY_SET_REG16(Buzz_PERIOD_LSB_PTR, (uint16)period);
 480:.\Generated_Source\PSoC4/Buzz.c ****     #else
 481:.\Generated_Source\PSoC4/Buzz.c ****         CY_SET_REG16(Buzz_PERIOD_LSB_PTR, period);
 330              		.loc 1 481 0
 331 000c 034B     		ldr	r3, .L22
 332 000e BA1D     		add	r2, r7, #6
 333 0010 1288     		ldrh	r2, [r2]
 334 0012 1A80     		strh	r2, [r3]
 482:.\Generated_Source\PSoC4/Buzz.c ****     #endif /* (Buzz_UsingFixedFunction) */
 483:.\Generated_Source\PSoC4/Buzz.c **** }
 335              		.loc 1 483 0
 336 0014 BD46     		mov	sp, r7
 337 0016 02B0     		add	sp, sp, #8
 338              		@ sp needed for prologue
 339 0018 80BD     		pop	{r7, pc}
 340              	.L23:
 341 001a C046     		.align	2
 342              	.L22:
 343 001c 80100F40 		.word	1074729088
 344              		.cfi_endproc
 345              	.LFE6:
 346              		.size	Buzz_WritePeriod, .-Buzz_WritePeriod
 347              		.section	.text.Buzz_WriteCompare,"ax",%progbits
 348              		.align	2
 349              		.global	Buzz_WriteCompare
 350              		.code	16
 351              		.thumb_func
 352              		.type	Buzz_WriteCompare, %function
 353              	Buzz_WriteCompare:
 354              	.LFB7:
 484:.\Generated_Source\PSoC4/Buzz.c **** 
 485:.\Generated_Source\PSoC4/Buzz.c **** #if (Buzz_UseOneCompareMode)
 486:.\Generated_Source\PSoC4/Buzz.c **** 
 487:.\Generated_Source\PSoC4/Buzz.c **** 
 488:.\Generated_Source\PSoC4/Buzz.c ****     /*******************************************************************************
 489:.\Generated_Source\PSoC4/Buzz.c ****     * Function Name: Buzz_WriteCompare
 490:.\Generated_Source\PSoC4/Buzz.c ****     ********************************************************************************
 491:.\Generated_Source\PSoC4/Buzz.c ****     * 
 492:.\Generated_Source\PSoC4/Buzz.c ****     * Summary:
 493:.\Generated_Source\PSoC4/Buzz.c ****     *  This funtion is used to change the compare1 value when the PWM is in Dither
 494:.\Generated_Source\PSoC4/Buzz.c ****     *  mode. The compare output will reflect the new value on the next UDB clock. 
 495:.\Generated_Source\PSoC4/Buzz.c ****     *  The compare output will be driven high when the present counter value is 
 496:.\Generated_Source\PSoC4/Buzz.c ****     *  compared to the compare value based on the compare mode defined in 
 497:.\Generated_Source\PSoC4/Buzz.c ****     *  Dither Mode.
 498:.\Generated_Source\PSoC4/Buzz.c ****     *
 499:.\Generated_Source\PSoC4/Buzz.c ****     * Parameters:  
 500:.\Generated_Source\PSoC4/Buzz.c ****     *  compare:  New compare value.  
 501:.\Generated_Source\PSoC4/Buzz.c ****     *
ARM GAS  C:\Users\javier\AppData\Local\Temp\cccQLrBH.s 			page 16


 502:.\Generated_Source\PSoC4/Buzz.c ****     * Return: 
 503:.\Generated_Source\PSoC4/Buzz.c ****     *  None
 504:.\Generated_Source\PSoC4/Buzz.c ****     *
 505:.\Generated_Source\PSoC4/Buzz.c ****     * Side Effects:
 506:.\Generated_Source\PSoC4/Buzz.c ****     *  This function is only available if the PWM mode parameter is set to
 507:.\Generated_Source\PSoC4/Buzz.c ****     *  Dither Mode, Center Aligned Mode or One Output Mode
 508:.\Generated_Source\PSoC4/Buzz.c ****     *
 509:.\Generated_Source\PSoC4/Buzz.c ****     *******************************************************************************/
 510:.\Generated_Source\PSoC4/Buzz.c ****     void Buzz_WriteCompare(uint16 compare) \
 511:.\Generated_Source\PSoC4/Buzz.c ****                                        
 512:.\Generated_Source\PSoC4/Buzz.c ****     {	
 355              		.loc 1 512 0
 356              		.cfi_startproc
 357 0000 80B5     		push	{r7, lr}
 358              	.LCFI17:
 359              		.cfi_def_cfa_offset 8
 360              		.cfi_offset 7, -8
 361              		.cfi_offset 14, -4
 362 0002 82B0     		sub	sp, sp, #8
 363              	.LCFI18:
 364              		.cfi_def_cfa_offset 16
 365 0004 00AF     		add	r7, sp, #0
 366              	.LCFI19:
 367              		.cfi_def_cfa_register 7
 368 0006 021C     		mov	r2, r0
 369 0008 BB1D     		add	r3, r7, #6
 370 000a 1A80     		strh	r2, [r3]
 513:.\Generated_Source\PSoC4/Buzz.c **** 		#if(Buzz_UsingFixedFunction)
 514:.\Generated_Source\PSoC4/Buzz.c **** 			CY_SET_REG16(Buzz_COMPARE1_LSB_PTR, (uint16)compare);
 515:.\Generated_Source\PSoC4/Buzz.c **** 		#else
 516:.\Generated_Source\PSoC4/Buzz.c **** 	        CY_SET_REG16(Buzz_COMPARE1_LSB_PTR, compare);	
 371              		.loc 1 516 0
 372 000c 034B     		ldr	r3, .L25
 373 000e BA1D     		add	r2, r7, #6
 374 0010 1288     		ldrh	r2, [r2]
 375 0012 1A80     		strh	r2, [r3]
 517:.\Generated_Source\PSoC4/Buzz.c **** 		#endif /* (Buzz_UsingFixedFunction) */
 518:.\Generated_Source\PSoC4/Buzz.c ****         
 519:.\Generated_Source\PSoC4/Buzz.c ****         #if (Buzz_PWMMode == Buzz__B_PWM__DITHER)
 520:.\Generated_Source\PSoC4/Buzz.c ****             #if(Buzz_UsingFixedFunction)
 521:.\Generated_Source\PSoC4/Buzz.c ****     			CY_SET_REG16(Buzz_COMPARE2_LSB_PTR, (uint16)(compare + 1u));
 522:.\Generated_Source\PSoC4/Buzz.c ****     		#else
 523:.\Generated_Source\PSoC4/Buzz.c ****     	        CY_SET_REG16(Buzz_COMPARE2_LSB_PTR, (compare + 1u));	
 524:.\Generated_Source\PSoC4/Buzz.c ****     		#endif /* (Buzz_UsingFixedFunction) */
 525:.\Generated_Source\PSoC4/Buzz.c ****         #endif /* (Buzz_PWMMode == Buzz__B_PWM__DITHER) */
 526:.\Generated_Source\PSoC4/Buzz.c ****     }
 376              		.loc 1 526 0
 377 0014 BD46     		mov	sp, r7
 378 0016 02B0     		add	sp, sp, #8
 379              		@ sp needed for prologue
 380 0018 80BD     		pop	{r7, pc}
 381              	.L26:
 382 001a C046     		.align	2
 383              	.L25:
 384 001c 40100F40 		.word	1074729024
 385              		.cfi_endproc
 386              	.LFE7:
ARM GAS  C:\Users\javier\AppData\Local\Temp\cccQLrBH.s 			page 17


 387              		.size	Buzz_WriteCompare, .-Buzz_WriteCompare
 388              		.section	.text.Buzz_ReadControlRegister,"ax",%progbits
 389              		.align	2
 390              		.global	Buzz_ReadControlRegister
 391              		.code	16
 392              		.thumb_func
 393              		.type	Buzz_ReadControlRegister, %function
 394              	Buzz_ReadControlRegister:
 395              	.LFB8:
 527:.\Generated_Source\PSoC4/Buzz.c **** 
 528:.\Generated_Source\PSoC4/Buzz.c **** 
 529:.\Generated_Source\PSoC4/Buzz.c **** #else
 530:.\Generated_Source\PSoC4/Buzz.c **** 
 531:.\Generated_Source\PSoC4/Buzz.c **** 
 532:.\Generated_Source\PSoC4/Buzz.c ****     /*******************************************************************************
 533:.\Generated_Source\PSoC4/Buzz.c ****     * Function Name: Buzz_WriteCompare1
 534:.\Generated_Source\PSoC4/Buzz.c ****     ********************************************************************************
 535:.\Generated_Source\PSoC4/Buzz.c ****     * 
 536:.\Generated_Source\PSoC4/Buzz.c ****     * Summary:
 537:.\Generated_Source\PSoC4/Buzz.c ****     *  This funtion is used to change the compare1 value.  The compare output will 
 538:.\Generated_Source\PSoC4/Buzz.c ****     *  reflect the new value on the next UDB clock.  The compare output will be 
 539:.\Generated_Source\PSoC4/Buzz.c ****     *  driven high when the present counter value is less than or less than or 
 540:.\Generated_Source\PSoC4/Buzz.c ****     *  equal to the compare register, depending on the mode.
 541:.\Generated_Source\PSoC4/Buzz.c ****     *
 542:.\Generated_Source\PSoC4/Buzz.c ****     * Parameters:  
 543:.\Generated_Source\PSoC4/Buzz.c ****     *  compare:  New compare value.  
 544:.\Generated_Source\PSoC4/Buzz.c ****     *
 545:.\Generated_Source\PSoC4/Buzz.c ****     * Return: 
 546:.\Generated_Source\PSoC4/Buzz.c ****     *  None
 547:.\Generated_Source\PSoC4/Buzz.c ****     *
 548:.\Generated_Source\PSoC4/Buzz.c ****     *******************************************************************************/
 549:.\Generated_Source\PSoC4/Buzz.c ****     void Buzz_WriteCompare1(uint16 compare) \
 550:.\Generated_Source\PSoC4/Buzz.c ****                                         
 551:.\Generated_Source\PSoC4/Buzz.c ****     {
 552:.\Generated_Source\PSoC4/Buzz.c ****         #if(Buzz_UsingFixedFunction)
 553:.\Generated_Source\PSoC4/Buzz.c ****             CY_SET_REG16(Buzz_COMPARE1_LSB_PTR, (uint16)compare);
 554:.\Generated_Source\PSoC4/Buzz.c ****         #else
 555:.\Generated_Source\PSoC4/Buzz.c ****             CY_SET_REG16(Buzz_COMPARE1_LSB_PTR, compare);
 556:.\Generated_Source\PSoC4/Buzz.c ****         #endif /* (Buzz_UsingFixedFunction) */
 557:.\Generated_Source\PSoC4/Buzz.c ****     }
 558:.\Generated_Source\PSoC4/Buzz.c **** 
 559:.\Generated_Source\PSoC4/Buzz.c **** 
 560:.\Generated_Source\PSoC4/Buzz.c ****     /*******************************************************************************
 561:.\Generated_Source\PSoC4/Buzz.c ****     * Function Name: Buzz_WriteCompare2
 562:.\Generated_Source\PSoC4/Buzz.c ****     ********************************************************************************
 563:.\Generated_Source\PSoC4/Buzz.c ****     * 
 564:.\Generated_Source\PSoC4/Buzz.c ****     * Summary:
 565:.\Generated_Source\PSoC4/Buzz.c ****     *  This funtion is used to change the compare value, for compare1 output.  
 566:.\Generated_Source\PSoC4/Buzz.c ****     *  The compare output will reflect the new value on the next UDB clock.  
 567:.\Generated_Source\PSoC4/Buzz.c ****     *  The compare output will be driven high when the present counter value is 
 568:.\Generated_Source\PSoC4/Buzz.c ****     *  less than or less than or equal to the compare register, depending on the 
 569:.\Generated_Source\PSoC4/Buzz.c ****     *  mode.
 570:.\Generated_Source\PSoC4/Buzz.c ****     *
 571:.\Generated_Source\PSoC4/Buzz.c ****     * Parameters:  
 572:.\Generated_Source\PSoC4/Buzz.c ****     *  compare:  New compare value.  
 573:.\Generated_Source\PSoC4/Buzz.c ****     *
 574:.\Generated_Source\PSoC4/Buzz.c ****     * Return: 
ARM GAS  C:\Users\javier\AppData\Local\Temp\cccQLrBH.s 			page 18


 575:.\Generated_Source\PSoC4/Buzz.c ****     *  None
 576:.\Generated_Source\PSoC4/Buzz.c ****     *
 577:.\Generated_Source\PSoC4/Buzz.c ****     *******************************************************************************/
 578:.\Generated_Source\PSoC4/Buzz.c ****     void Buzz_WriteCompare2(uint16 compare) \
 579:.\Generated_Source\PSoC4/Buzz.c ****                                         
 580:.\Generated_Source\PSoC4/Buzz.c ****     {
 581:.\Generated_Source\PSoC4/Buzz.c ****         #if(Buzz_UsingFixedFunction)
 582:.\Generated_Source\PSoC4/Buzz.c ****             CY_SET_REG16(Buzz_COMPARE2_LSB_PTR, compare);
 583:.\Generated_Source\PSoC4/Buzz.c ****         #else
 584:.\Generated_Source\PSoC4/Buzz.c ****             CY_SET_REG16(Buzz_COMPARE2_LSB_PTR, compare);
 585:.\Generated_Source\PSoC4/Buzz.c ****         #endif /* (Buzz_UsingFixedFunction) */
 586:.\Generated_Source\PSoC4/Buzz.c ****     }
 587:.\Generated_Source\PSoC4/Buzz.c **** #endif /* UseOneCompareMode */
 588:.\Generated_Source\PSoC4/Buzz.c **** 
 589:.\Generated_Source\PSoC4/Buzz.c **** #if (Buzz_DeadBandUsed)
 590:.\Generated_Source\PSoC4/Buzz.c **** 
 591:.\Generated_Source\PSoC4/Buzz.c **** 
 592:.\Generated_Source\PSoC4/Buzz.c ****     /*******************************************************************************
 593:.\Generated_Source\PSoC4/Buzz.c ****     * Function Name: Buzz_WriteDeadTime
 594:.\Generated_Source\PSoC4/Buzz.c ****     ********************************************************************************
 595:.\Generated_Source\PSoC4/Buzz.c ****     * 
 596:.\Generated_Source\PSoC4/Buzz.c ****     * Summary:
 597:.\Generated_Source\PSoC4/Buzz.c ****     *  This function writes the dead-band counts to the corresponding register
 598:.\Generated_Source\PSoC4/Buzz.c ****     *
 599:.\Generated_Source\PSoC4/Buzz.c ****     * Parameters:  
 600:.\Generated_Source\PSoC4/Buzz.c ****     *  deadtime:  Number of counts for dead time 
 601:.\Generated_Source\PSoC4/Buzz.c ****     *
 602:.\Generated_Source\PSoC4/Buzz.c ****     * Return: 
 603:.\Generated_Source\PSoC4/Buzz.c ****     *  None
 604:.\Generated_Source\PSoC4/Buzz.c ****     *
 605:.\Generated_Source\PSoC4/Buzz.c ****     *******************************************************************************/
 606:.\Generated_Source\PSoC4/Buzz.c ****     void Buzz_WriteDeadTime(uint8 deadtime) 
 607:.\Generated_Source\PSoC4/Buzz.c ****     {
 608:.\Generated_Source\PSoC4/Buzz.c ****         /* If using the Dead Band 1-255 mode then just write the register */
 609:.\Generated_Source\PSoC4/Buzz.c ****         #if(!Buzz_DeadBand2_4)
 610:.\Generated_Source\PSoC4/Buzz.c ****             CY_SET_REG8(Buzz_DEADBAND_COUNT_PTR, deadtime);
 611:.\Generated_Source\PSoC4/Buzz.c ****         #else
 612:.\Generated_Source\PSoC4/Buzz.c ****             /* Otherwise the data has to be masked and offset */        
 613:.\Generated_Source\PSoC4/Buzz.c ****             /* Clear existing data */
 614:.\Generated_Source\PSoC4/Buzz.c ****             Buzz_DEADBAND_COUNT &= ((uint8)(~Buzz_DEADBAND_COUNT_MASK));
 615:.\Generated_Source\PSoC4/Buzz.c ****             
 616:.\Generated_Source\PSoC4/Buzz.c ****             /* Set new dead time */
 617:.\Generated_Source\PSoC4/Buzz.c ****             #if(Buzz_DEADBAND_COUNT_SHIFT)        
 618:.\Generated_Source\PSoC4/Buzz.c ****                 Buzz_DEADBAND_COUNT |= ((uint8)((uint8)deadtime << Buzz_DEADBAND_COUNT_SHIFT)) & 
 619:.\Generated_Source\PSoC4/Buzz.c ****                                                     Buzz_DEADBAND_COUNT_MASK;
 620:.\Generated_Source\PSoC4/Buzz.c ****             #else
 621:.\Generated_Source\PSoC4/Buzz.c ****                 Buzz_DEADBAND_COUNT |= deadtime & Buzz_DEADBAND_COUNT_MASK;        
 622:.\Generated_Source\PSoC4/Buzz.c ****             #endif /* (Buzz_DEADBAND_COUNT_SHIFT) */
 623:.\Generated_Source\PSoC4/Buzz.c ****         
 624:.\Generated_Source\PSoC4/Buzz.c ****         #endif /* (!Buzz_DeadBand2_4) */
 625:.\Generated_Source\PSoC4/Buzz.c ****     }
 626:.\Generated_Source\PSoC4/Buzz.c **** 
 627:.\Generated_Source\PSoC4/Buzz.c **** 
 628:.\Generated_Source\PSoC4/Buzz.c ****     /*******************************************************************************
 629:.\Generated_Source\PSoC4/Buzz.c ****     * Function Name: Buzz_ReadDeadTime
 630:.\Generated_Source\PSoC4/Buzz.c ****     ********************************************************************************
 631:.\Generated_Source\PSoC4/Buzz.c ****     * 
ARM GAS  C:\Users\javier\AppData\Local\Temp\cccQLrBH.s 			page 19


 632:.\Generated_Source\PSoC4/Buzz.c ****     * Summary:
 633:.\Generated_Source\PSoC4/Buzz.c ****     *  This function reads the dead-band counts from the corresponding register
 634:.\Generated_Source\PSoC4/Buzz.c ****     *
 635:.\Generated_Source\PSoC4/Buzz.c ****     * Parameters:  
 636:.\Generated_Source\PSoC4/Buzz.c ****     *  None
 637:.\Generated_Source\PSoC4/Buzz.c ****     *
 638:.\Generated_Source\PSoC4/Buzz.c ****     * Return: 
 639:.\Generated_Source\PSoC4/Buzz.c ****     *  Dead Band Counts
 640:.\Generated_Source\PSoC4/Buzz.c ****     *
 641:.\Generated_Source\PSoC4/Buzz.c ****     *******************************************************************************/
 642:.\Generated_Source\PSoC4/Buzz.c ****     uint8 Buzz_ReadDeadTime(void) 
 643:.\Generated_Source\PSoC4/Buzz.c ****     {
 644:.\Generated_Source\PSoC4/Buzz.c ****         /* If using the Dead Band 1-255 mode then just read the register */
 645:.\Generated_Source\PSoC4/Buzz.c ****         #if(!Buzz_DeadBand2_4)
 646:.\Generated_Source\PSoC4/Buzz.c ****             return (CY_GET_REG8(Buzz_DEADBAND_COUNT_PTR));
 647:.\Generated_Source\PSoC4/Buzz.c ****         #else
 648:.\Generated_Source\PSoC4/Buzz.c ****         
 649:.\Generated_Source\PSoC4/Buzz.c ****             /* Otherwise the data has to be masked and offset */
 650:.\Generated_Source\PSoC4/Buzz.c ****             #if(Buzz_DEADBAND_COUNT_SHIFT)      
 651:.\Generated_Source\PSoC4/Buzz.c ****                 return ((uint8)(((uint8)(Buzz_DEADBAND_COUNT & Buzz_DEADBAND_COUNT_MASK)) >> 
 652:.\Generated_Source\PSoC4/Buzz.c ****                                                                            Buzz_DEADBAND_COUNT_SHIF
 653:.\Generated_Source\PSoC4/Buzz.c ****             #else
 654:.\Generated_Source\PSoC4/Buzz.c ****                 return (Buzz_DEADBAND_COUNT & Buzz_DEADBAND_COUNT_MASK);
 655:.\Generated_Source\PSoC4/Buzz.c ****             #endif /* (Buzz_DEADBAND_COUNT_SHIFT) */
 656:.\Generated_Source\PSoC4/Buzz.c ****         #endif /* (!Buzz_DeadBand2_4) */
 657:.\Generated_Source\PSoC4/Buzz.c ****     }
 658:.\Generated_Source\PSoC4/Buzz.c **** #endif /* DeadBandUsed */
 659:.\Generated_Source\PSoC4/Buzz.c **** 
 660:.\Generated_Source\PSoC4/Buzz.c **** #if (Buzz_UseStatus || Buzz_UsingFixedFunction)
 661:.\Generated_Source\PSoC4/Buzz.c **** 
 662:.\Generated_Source\PSoC4/Buzz.c **** 
 663:.\Generated_Source\PSoC4/Buzz.c ****     /*******************************************************************************
 664:.\Generated_Source\PSoC4/Buzz.c ****     * Function Name: Buzz_SetInterruptMode
 665:.\Generated_Source\PSoC4/Buzz.c ****     ********************************************************************************
 666:.\Generated_Source\PSoC4/Buzz.c ****     * 
 667:.\Generated_Source\PSoC4/Buzz.c ****     * Summary:
 668:.\Generated_Source\PSoC4/Buzz.c ****     *  This function configures the interrupts mask control of theinterrupt 
 669:.\Generated_Source\PSoC4/Buzz.c ****     *  source status register.
 670:.\Generated_Source\PSoC4/Buzz.c ****     *
 671:.\Generated_Source\PSoC4/Buzz.c ****     * Parameters:  
 672:.\Generated_Source\PSoC4/Buzz.c ****     *  uint8 interruptMode: Bit field containing the interrupt sources enabled 
 673:.\Generated_Source\PSoC4/Buzz.c ****     *
 674:.\Generated_Source\PSoC4/Buzz.c ****     * Return: 
 675:.\Generated_Source\PSoC4/Buzz.c ****     *  None
 676:.\Generated_Source\PSoC4/Buzz.c ****     *
 677:.\Generated_Source\PSoC4/Buzz.c ****     *******************************************************************************/
 678:.\Generated_Source\PSoC4/Buzz.c ****     void Buzz_SetInterruptMode(uint8 interruptMode)  
 679:.\Generated_Source\PSoC4/Buzz.c ****     {
 680:.\Generated_Source\PSoC4/Buzz.c ****     	CY_SET_REG8(Buzz_STATUS_MASK_PTR, interruptMode);
 681:.\Generated_Source\PSoC4/Buzz.c ****     }
 682:.\Generated_Source\PSoC4/Buzz.c **** 
 683:.\Generated_Source\PSoC4/Buzz.c **** 
 684:.\Generated_Source\PSoC4/Buzz.c ****     /*******************************************************************************
 685:.\Generated_Source\PSoC4/Buzz.c ****     * Function Name: Buzz_ReadStatusRegister
 686:.\Generated_Source\PSoC4/Buzz.c ****     ********************************************************************************
 687:.\Generated_Source\PSoC4/Buzz.c ****     * 
 688:.\Generated_Source\PSoC4/Buzz.c ****     * Summary:
ARM GAS  C:\Users\javier\AppData\Local\Temp\cccQLrBH.s 			page 20


 689:.\Generated_Source\PSoC4/Buzz.c ****     *  This function returns the current state of the status register. 
 690:.\Generated_Source\PSoC4/Buzz.c ****     *
 691:.\Generated_Source\PSoC4/Buzz.c ****     * Parameters:  
 692:.\Generated_Source\PSoC4/Buzz.c ****     *  None
 693:.\Generated_Source\PSoC4/Buzz.c ****     *
 694:.\Generated_Source\PSoC4/Buzz.c ****     * Return: 
 695:.\Generated_Source\PSoC4/Buzz.c ****     *  uint8 : Current status register value. The status register bits are:
 696:.\Generated_Source\PSoC4/Buzz.c ****     *  [7:6] : Unused(0)
 697:.\Generated_Source\PSoC4/Buzz.c ****     *  [5]   : Kill event output
 698:.\Generated_Source\PSoC4/Buzz.c ****     *  [4]   : FIFO not empty
 699:.\Generated_Source\PSoC4/Buzz.c ****     *  [3]   : FIFO full
 700:.\Generated_Source\PSoC4/Buzz.c ****     *  [2]   : Terminal count
 701:.\Generated_Source\PSoC4/Buzz.c ****     *  [1]   : Compare output 2
 702:.\Generated_Source\PSoC4/Buzz.c ****     *  [0]   : Compare output 1
 703:.\Generated_Source\PSoC4/Buzz.c ****     *
 704:.\Generated_Source\PSoC4/Buzz.c ****     *******************************************************************************/
 705:.\Generated_Source\PSoC4/Buzz.c ****     uint8 Buzz_ReadStatusRegister(void)   
 706:.\Generated_Source\PSoC4/Buzz.c ****     {
 707:.\Generated_Source\PSoC4/Buzz.c ****     	uint8 result;
 708:.\Generated_Source\PSoC4/Buzz.c ****     	
 709:.\Generated_Source\PSoC4/Buzz.c ****     	result = CY_GET_REG8(Buzz_STATUS_PTR);
 710:.\Generated_Source\PSoC4/Buzz.c ****     	return (result);
 711:.\Generated_Source\PSoC4/Buzz.c ****     }
 712:.\Generated_Source\PSoC4/Buzz.c **** 
 713:.\Generated_Source\PSoC4/Buzz.c **** #endif /* (Buzz_UseStatus || Buzz_UsingFixedFunction) */
 714:.\Generated_Source\PSoC4/Buzz.c **** 
 715:.\Generated_Source\PSoC4/Buzz.c **** 
 716:.\Generated_Source\PSoC4/Buzz.c **** #if (Buzz_UseControl)
 717:.\Generated_Source\PSoC4/Buzz.c **** 
 718:.\Generated_Source\PSoC4/Buzz.c **** 
 719:.\Generated_Source\PSoC4/Buzz.c ****     /*******************************************************************************
 720:.\Generated_Source\PSoC4/Buzz.c ****     * Function Name: Buzz_ReadControlRegister
 721:.\Generated_Source\PSoC4/Buzz.c ****     ********************************************************************************
 722:.\Generated_Source\PSoC4/Buzz.c ****     * 
 723:.\Generated_Source\PSoC4/Buzz.c ****     * Summary:
 724:.\Generated_Source\PSoC4/Buzz.c ****     *  Returns the current state of the control register. This API is available 
 725:.\Generated_Source\PSoC4/Buzz.c ****     *  only if the control register is not removed.
 726:.\Generated_Source\PSoC4/Buzz.c ****     *
 727:.\Generated_Source\PSoC4/Buzz.c ****     * Parameters:  
 728:.\Generated_Source\PSoC4/Buzz.c ****     *  None 
 729:.\Generated_Source\PSoC4/Buzz.c ****     *
 730:.\Generated_Source\PSoC4/Buzz.c ****     * Return: 
 731:.\Generated_Source\PSoC4/Buzz.c ****     *  uint8 : Current control register value
 732:.\Generated_Source\PSoC4/Buzz.c ****     *
 733:.\Generated_Source\PSoC4/Buzz.c ****     *******************************************************************************/    
 734:.\Generated_Source\PSoC4/Buzz.c ****     uint8 Buzz_ReadControlRegister(void) 
 735:.\Generated_Source\PSoC4/Buzz.c ****     {
 396              		.loc 1 735 0
 397              		.cfi_startproc
 398 0000 80B5     		push	{r7, lr}
 399              	.LCFI20:
 400              		.cfi_def_cfa_offset 8
 401              		.cfi_offset 7, -8
 402              		.cfi_offset 14, -4
 403 0002 82B0     		sub	sp, sp, #8
 404              	.LCFI21:
 405              		.cfi_def_cfa_offset 16
ARM GAS  C:\Users\javier\AppData\Local\Temp\cccQLrBH.s 			page 21


 406 0004 00AF     		add	r7, sp, #0
 407              	.LCFI22:
 408              		.cfi_def_cfa_register 7
 736:.\Generated_Source\PSoC4/Buzz.c ****     	uint8 result;
 737:.\Generated_Source\PSoC4/Buzz.c ****     	
 738:.\Generated_Source\PSoC4/Buzz.c ****     	result = CY_GET_REG8(Buzz_CONTROL_PTR);
 409              		.loc 1 738 0
 410 0006 054A     		ldr	r2, .L29
 411 0008 FB1D     		add	r3, r7, #7
 412 000a 1278     		ldrb	r2, [r2]
 413 000c 1A70     		strb	r2, [r3]
 739:.\Generated_Source\PSoC4/Buzz.c ****     	return (result);
 414              		.loc 1 739 0
 415 000e FB1D     		add	r3, r7, #7
 416 0010 1B78     		ldrb	r3, [r3]
 740:.\Generated_Source\PSoC4/Buzz.c ****     }
 417              		.loc 1 740 0
 418 0012 181C     		mov	r0, r3
 419 0014 BD46     		mov	sp, r7
 420 0016 02B0     		add	sp, sp, #8
 421              		@ sp needed for prologue
 422 0018 80BD     		pop	{r7, pc}
 423              	.L30:
 424 001a C046     		.align	2
 425              	.L29:
 426 001c 71000F40 		.word	1074724977
 427              		.cfi_endproc
 428              	.LFE8:
 429              		.size	Buzz_ReadControlRegister, .-Buzz_ReadControlRegister
 430              		.section	.text.Buzz_WriteControlRegister,"ax",%progbits
 431              		.align	2
 432              		.global	Buzz_WriteControlRegister
 433              		.code	16
 434              		.thumb_func
 435              		.type	Buzz_WriteControlRegister, %function
 436              	Buzz_WriteControlRegister:
 437              	.LFB9:
 741:.\Generated_Source\PSoC4/Buzz.c **** 
 742:.\Generated_Source\PSoC4/Buzz.c **** 
 743:.\Generated_Source\PSoC4/Buzz.c ****     /*******************************************************************************
 744:.\Generated_Source\PSoC4/Buzz.c ****     * Function Name: Buzz_WriteControlRegister
 745:.\Generated_Source\PSoC4/Buzz.c ****     ********************************************************************************
 746:.\Generated_Source\PSoC4/Buzz.c ****     * 
 747:.\Generated_Source\PSoC4/Buzz.c ****     * Summary:
 748:.\Generated_Source\PSoC4/Buzz.c ****     *  Sets the bit field of the control register. This API is available only if 
 749:.\Generated_Source\PSoC4/Buzz.c ****     *  the control register is not removed.
 750:.\Generated_Source\PSoC4/Buzz.c ****     *
 751:.\Generated_Source\PSoC4/Buzz.c ****     * Parameters:  
 752:.\Generated_Source\PSoC4/Buzz.c ****     *  uint8 control: Control register bit field, The status register bits are:
 753:.\Generated_Source\PSoC4/Buzz.c ****     *  [7]   : PWM Enable
 754:.\Generated_Source\PSoC4/Buzz.c ****     *  [6]   : Reset
 755:.\Generated_Source\PSoC4/Buzz.c ****     *  [5:3] : Compare Mode2
 756:.\Generated_Source\PSoC4/Buzz.c ****     *  [2:0] : Compare Mode2
 757:.\Generated_Source\PSoC4/Buzz.c ****     *
 758:.\Generated_Source\PSoC4/Buzz.c ****     * Return: 
 759:.\Generated_Source\PSoC4/Buzz.c ****     *  None
 760:.\Generated_Source\PSoC4/Buzz.c ****     *
ARM GAS  C:\Users\javier\AppData\Local\Temp\cccQLrBH.s 			page 22


 761:.\Generated_Source\PSoC4/Buzz.c ****     *******************************************************************************/  
 762:.\Generated_Source\PSoC4/Buzz.c ****     void Buzz_WriteControlRegister(uint8 control) 
 763:.\Generated_Source\PSoC4/Buzz.c ****     {
 438              		.loc 1 763 0
 439              		.cfi_startproc
 440 0000 80B5     		push	{r7, lr}
 441              	.LCFI23:
 442              		.cfi_def_cfa_offset 8
 443              		.cfi_offset 7, -8
 444              		.cfi_offset 14, -4
 445 0002 82B0     		sub	sp, sp, #8
 446              	.LCFI24:
 447              		.cfi_def_cfa_offset 16
 448 0004 00AF     		add	r7, sp, #0
 449              	.LCFI25:
 450              		.cfi_def_cfa_register 7
 451 0006 021C     		mov	r2, r0
 452 0008 FB1D     		add	r3, r7, #7
 453 000a 1A70     		strb	r2, [r3]
 764:.\Generated_Source\PSoC4/Buzz.c ****     	CY_SET_REG8(Buzz_CONTROL_PTR, control);
 454              		.loc 1 764 0
 455 000c 034B     		ldr	r3, .L32
 456 000e FA1D     		add	r2, r7, #7
 457 0010 1278     		ldrb	r2, [r2]
 458 0012 1A70     		strb	r2, [r3]
 765:.\Generated_Source\PSoC4/Buzz.c ****     }
 459              		.loc 1 765 0
 460 0014 BD46     		mov	sp, r7
 461 0016 02B0     		add	sp, sp, #8
 462              		@ sp needed for prologue
 463 0018 80BD     		pop	{r7, pc}
 464              	.L33:
 465 001a C046     		.align	2
 466              	.L32:
 467 001c 71000F40 		.word	1074724977
 468              		.cfi_endproc
 469              	.LFE9:
 470              		.size	Buzz_WriteControlRegister, .-Buzz_WriteControlRegister
 471              		.section	.text.Buzz_ReadCapture,"ax",%progbits
 472              		.align	2
 473              		.global	Buzz_ReadCapture
 474              		.code	16
 475              		.thumb_func
 476              		.type	Buzz_ReadCapture, %function
 477              	Buzz_ReadCapture:
 478              	.LFB10:
 766:.\Generated_Source\PSoC4/Buzz.c **** 	
 767:.\Generated_Source\PSoC4/Buzz.c **** #endif /* (Buzz_UseControl) */
 768:.\Generated_Source\PSoC4/Buzz.c **** 
 769:.\Generated_Source\PSoC4/Buzz.c **** 
 770:.\Generated_Source\PSoC4/Buzz.c **** #if (!Buzz_UsingFixedFunction)
 771:.\Generated_Source\PSoC4/Buzz.c **** 
 772:.\Generated_Source\PSoC4/Buzz.c **** 
 773:.\Generated_Source\PSoC4/Buzz.c ****     /*******************************************************************************
 774:.\Generated_Source\PSoC4/Buzz.c ****     * Function Name: Buzz_ReadCapture
 775:.\Generated_Source\PSoC4/Buzz.c ****     ********************************************************************************
 776:.\Generated_Source\PSoC4/Buzz.c ****     * 
ARM GAS  C:\Users\javier\AppData\Local\Temp\cccQLrBH.s 			page 23


 777:.\Generated_Source\PSoC4/Buzz.c ****     * Summary:
 778:.\Generated_Source\PSoC4/Buzz.c ****     *  Reads the capture value from the capture FIFO.
 779:.\Generated_Source\PSoC4/Buzz.c ****     *
 780:.\Generated_Source\PSoC4/Buzz.c ****     * Parameters:  
 781:.\Generated_Source\PSoC4/Buzz.c ****     *  None
 782:.\Generated_Source\PSoC4/Buzz.c ****     *
 783:.\Generated_Source\PSoC4/Buzz.c ****     * Return: 
 784:.\Generated_Source\PSoC4/Buzz.c ****     *  uint8/uint16: The current capture value
 785:.\Generated_Source\PSoC4/Buzz.c ****     *
 786:.\Generated_Source\PSoC4/Buzz.c ****     *******************************************************************************/  
 787:.\Generated_Source\PSoC4/Buzz.c ****     uint16 Buzz_ReadCapture(void)  
 788:.\Generated_Source\PSoC4/Buzz.c ****     {
 479              		.loc 1 788 0
 480              		.cfi_startproc
 481 0000 80B5     		push	{r7, lr}
 482              	.LCFI26:
 483              		.cfi_def_cfa_offset 8
 484              		.cfi_offset 7, -8
 485              		.cfi_offset 14, -4
 486 0002 00AF     		add	r7, sp, #0
 487              	.LCFI27:
 488              		.cfi_def_cfa_register 7
 789:.\Generated_Source\PSoC4/Buzz.c ****     	return (CY_GET_REG16(Buzz_CAPTURE_LSB_PTR));
 489              		.loc 1 789 0
 490 0004 024B     		ldr	r3, .L36
 491 0006 1B88     		ldrh	r3, [r3]
 492 0008 9BB2     		uxth	r3, r3
 790:.\Generated_Source\PSoC4/Buzz.c ****     }
 493              		.loc 1 790 0
 494 000a 181C     		mov	r0, r3
 495 000c BD46     		mov	sp, r7
 496              		@ sp needed for prologue
 497 000e 80BD     		pop	{r7, pc}
 498              	.L37:
 499              		.align	2
 500              	.L36:
 501 0010 A0100F40 		.word	1074729120
 502              		.cfi_endproc
 503              	.LFE10:
 504              		.size	Buzz_ReadCapture, .-Buzz_ReadCapture
 505              		.section	.text.Buzz_ReadCompare,"ax",%progbits
 506              		.align	2
 507              		.global	Buzz_ReadCompare
 508              		.code	16
 509              		.thumb_func
 510              		.type	Buzz_ReadCompare, %function
 511              	Buzz_ReadCompare:
 512              	.LFB11:
 791:.\Generated_Source\PSoC4/Buzz.c **** 	
 792:.\Generated_Source\PSoC4/Buzz.c **** #endif /* (!Buzz_UsingFixedFunction) */
 793:.\Generated_Source\PSoC4/Buzz.c **** 
 794:.\Generated_Source\PSoC4/Buzz.c **** 
 795:.\Generated_Source\PSoC4/Buzz.c **** #if (Buzz_UseOneCompareMode)
 796:.\Generated_Source\PSoC4/Buzz.c **** 
 797:.\Generated_Source\PSoC4/Buzz.c **** 
 798:.\Generated_Source\PSoC4/Buzz.c ****     /*******************************************************************************
 799:.\Generated_Source\PSoC4/Buzz.c ****     * Function Name: Buzz_ReadCompare
ARM GAS  C:\Users\javier\AppData\Local\Temp\cccQLrBH.s 			page 24


 800:.\Generated_Source\PSoC4/Buzz.c ****     ********************************************************************************
 801:.\Generated_Source\PSoC4/Buzz.c ****     * 
 802:.\Generated_Source\PSoC4/Buzz.c ****     * Summary:
 803:.\Generated_Source\PSoC4/Buzz.c ****     *  Reads the compare value for the compare output when the PWM Mode parameter is 
 804:.\Generated_Source\PSoC4/Buzz.c ****     *  set to Dither mode, Center Aligned mode, or One Output mode.
 805:.\Generated_Source\PSoC4/Buzz.c ****     *
 806:.\Generated_Source\PSoC4/Buzz.c ****     * Parameters:  
 807:.\Generated_Source\PSoC4/Buzz.c ****     *  None
 808:.\Generated_Source\PSoC4/Buzz.c ****     *
 809:.\Generated_Source\PSoC4/Buzz.c ****     * Return: 
 810:.\Generated_Source\PSoC4/Buzz.c ****     *  uint8/uint16: Current compare value
 811:.\Generated_Source\PSoC4/Buzz.c ****     *
 812:.\Generated_Source\PSoC4/Buzz.c ****     *******************************************************************************/  
 813:.\Generated_Source\PSoC4/Buzz.c ****     uint16 Buzz_ReadCompare(void)  
 814:.\Generated_Source\PSoC4/Buzz.c ****     {
 513              		.loc 1 814 0
 514              		.cfi_startproc
 515 0000 80B5     		push	{r7, lr}
 516              	.LCFI28:
 517              		.cfi_def_cfa_offset 8
 518              		.cfi_offset 7, -8
 519              		.cfi_offset 14, -4
 520 0002 00AF     		add	r7, sp, #0
 521              	.LCFI29:
 522              		.cfi_def_cfa_register 7
 815:.\Generated_Source\PSoC4/Buzz.c **** 		#if(Buzz_UsingFixedFunction)
 816:.\Generated_Source\PSoC4/Buzz.c ****             return ((uint16)CY_GET_REG16(Buzz_COMPARE1_LSB_PTR));
 817:.\Generated_Source\PSoC4/Buzz.c ****         #else
 818:.\Generated_Source\PSoC4/Buzz.c ****             return (CY_GET_REG16(Buzz_COMPARE1_LSB_PTR));
 523              		.loc 1 818 0
 524 0004 024B     		ldr	r3, .L40
 525 0006 1B88     		ldrh	r3, [r3]
 526 0008 9BB2     		uxth	r3, r3
 819:.\Generated_Source\PSoC4/Buzz.c ****         #endif /* (Buzz_UsingFixedFunction) */
 820:.\Generated_Source\PSoC4/Buzz.c ****     }
 527              		.loc 1 820 0
 528 000a 181C     		mov	r0, r3
 529 000c BD46     		mov	sp, r7
 530              		@ sp needed for prologue
 531 000e 80BD     		pop	{r7, pc}
 532              	.L41:
 533              		.align	2
 534              	.L40:
 535 0010 40100F40 		.word	1074729024
 536              		.cfi_endproc
 537              	.LFE11:
 538              		.size	Buzz_ReadCompare, .-Buzz_ReadCompare
 539              		.section	.text.Buzz_ReadPeriod,"ax",%progbits
 540              		.align	2
 541              		.global	Buzz_ReadPeriod
 542              		.code	16
 543              		.thumb_func
 544              		.type	Buzz_ReadPeriod, %function
 545              	Buzz_ReadPeriod:
 546              	.LFB12:
 821:.\Generated_Source\PSoC4/Buzz.c **** 
 822:.\Generated_Source\PSoC4/Buzz.c **** #else
ARM GAS  C:\Users\javier\AppData\Local\Temp\cccQLrBH.s 			page 25


 823:.\Generated_Source\PSoC4/Buzz.c **** 
 824:.\Generated_Source\PSoC4/Buzz.c **** 
 825:.\Generated_Source\PSoC4/Buzz.c ****     /*******************************************************************************
 826:.\Generated_Source\PSoC4/Buzz.c ****     * Function Name: Buzz_ReadCompare1
 827:.\Generated_Source\PSoC4/Buzz.c ****     ********************************************************************************
 828:.\Generated_Source\PSoC4/Buzz.c ****     * 
 829:.\Generated_Source\PSoC4/Buzz.c ****     * Summary:
 830:.\Generated_Source\PSoC4/Buzz.c ****     *  Reads the compare value for the compare1 output.
 831:.\Generated_Source\PSoC4/Buzz.c ****     *
 832:.\Generated_Source\PSoC4/Buzz.c ****     * Parameters:  
 833:.\Generated_Source\PSoC4/Buzz.c ****     *  None
 834:.\Generated_Source\PSoC4/Buzz.c ****     *
 835:.\Generated_Source\PSoC4/Buzz.c ****     * Return: 
 836:.\Generated_Source\PSoC4/Buzz.c ****     *  uint8/uint16: Current compare value.
 837:.\Generated_Source\PSoC4/Buzz.c ****     *
 838:.\Generated_Source\PSoC4/Buzz.c ****     *******************************************************************************/  
 839:.\Generated_Source\PSoC4/Buzz.c ****     uint16 Buzz_ReadCompare1(void) 
 840:.\Generated_Source\PSoC4/Buzz.c ****     {
 841:.\Generated_Source\PSoC4/Buzz.c **** 		return (CY_GET_REG16(Buzz_COMPARE1_LSB_PTR));
 842:.\Generated_Source\PSoC4/Buzz.c ****     }
 843:.\Generated_Source\PSoC4/Buzz.c **** 
 844:.\Generated_Source\PSoC4/Buzz.c **** 
 845:.\Generated_Source\PSoC4/Buzz.c ****     /*******************************************************************************
 846:.\Generated_Source\PSoC4/Buzz.c ****     * Function Name: Buzz_ReadCompare2
 847:.\Generated_Source\PSoC4/Buzz.c ****     ********************************************************************************
 848:.\Generated_Source\PSoC4/Buzz.c ****     * 
 849:.\Generated_Source\PSoC4/Buzz.c ****     * Summary:
 850:.\Generated_Source\PSoC4/Buzz.c ****     *  Reads the compare value for the compare2 output.
 851:.\Generated_Source\PSoC4/Buzz.c ****     *
 852:.\Generated_Source\PSoC4/Buzz.c ****     * Parameters:  
 853:.\Generated_Source\PSoC4/Buzz.c ****     *  None
 854:.\Generated_Source\PSoC4/Buzz.c ****     *
 855:.\Generated_Source\PSoC4/Buzz.c ****     * Return: 
 856:.\Generated_Source\PSoC4/Buzz.c ****     *  uint8/uint16: Current compare value.
 857:.\Generated_Source\PSoC4/Buzz.c ****     *
 858:.\Generated_Source\PSoC4/Buzz.c ****     *******************************************************************************/  
 859:.\Generated_Source\PSoC4/Buzz.c ****     uint16 Buzz_ReadCompare2(void)  
 860:.\Generated_Source\PSoC4/Buzz.c ****     {
 861:.\Generated_Source\PSoC4/Buzz.c **** 		return (CY_GET_REG16(Buzz_COMPARE2_LSB_PTR));
 862:.\Generated_Source\PSoC4/Buzz.c ****     }
 863:.\Generated_Source\PSoC4/Buzz.c **** 
 864:.\Generated_Source\PSoC4/Buzz.c **** #endif /* (Buzz_UseOneCompareMode) */
 865:.\Generated_Source\PSoC4/Buzz.c **** 
 866:.\Generated_Source\PSoC4/Buzz.c **** 
 867:.\Generated_Source\PSoC4/Buzz.c **** /*******************************************************************************
 868:.\Generated_Source\PSoC4/Buzz.c **** * Function Name: Buzz_ReadPeriod
 869:.\Generated_Source\PSoC4/Buzz.c **** ********************************************************************************
 870:.\Generated_Source\PSoC4/Buzz.c **** * 
 871:.\Generated_Source\PSoC4/Buzz.c **** * Summary:
 872:.\Generated_Source\PSoC4/Buzz.c **** *  Reads the period value used by the PWM hardware.
 873:.\Generated_Source\PSoC4/Buzz.c **** *
 874:.\Generated_Source\PSoC4/Buzz.c **** * Parameters:  
 875:.\Generated_Source\PSoC4/Buzz.c **** *  None
 876:.\Generated_Source\PSoC4/Buzz.c **** *
 877:.\Generated_Source\PSoC4/Buzz.c **** * Return: 
 878:.\Generated_Source\PSoC4/Buzz.c **** *  uint8/16: Period value
 879:.\Generated_Source\PSoC4/Buzz.c **** *
ARM GAS  C:\Users\javier\AppData\Local\Temp\cccQLrBH.s 			page 26


 880:.\Generated_Source\PSoC4/Buzz.c **** *******************************************************************************/ 
 881:.\Generated_Source\PSoC4/Buzz.c **** uint16 Buzz_ReadPeriod(void) 
 882:.\Generated_Source\PSoC4/Buzz.c **** {
 547              		.loc 1 882 0
 548              		.cfi_startproc
 549 0000 80B5     		push	{r7, lr}
 550              	.LCFI30:
 551              		.cfi_def_cfa_offset 8
 552              		.cfi_offset 7, -8
 553              		.cfi_offset 14, -4
 554 0002 00AF     		add	r7, sp, #0
 555              	.LCFI31:
 556              		.cfi_def_cfa_register 7
 883:.\Generated_Source\PSoC4/Buzz.c **** 	#if(Buzz_UsingFixedFunction)
 884:.\Generated_Source\PSoC4/Buzz.c ****         return ((uint16)CY_GET_REG16(Buzz_PERIOD_LSB_PTR));
 885:.\Generated_Source\PSoC4/Buzz.c ****     #else
 886:.\Generated_Source\PSoC4/Buzz.c ****         return (CY_GET_REG16(Buzz_PERIOD_LSB_PTR));
 557              		.loc 1 886 0
 558 0004 024B     		ldr	r3, .L44
 559 0006 1B88     		ldrh	r3, [r3]
 560 0008 9BB2     		uxth	r3, r3
 887:.\Generated_Source\PSoC4/Buzz.c ****     #endif /* (Buzz_UsingFixedFunction) */
 888:.\Generated_Source\PSoC4/Buzz.c **** }
 561              		.loc 1 888 0
 562 000a 181C     		mov	r0, r3
 563 000c BD46     		mov	sp, r7
 564              		@ sp needed for prologue
 565 000e 80BD     		pop	{r7, pc}
 566              	.L45:
 567              		.align	2
 568              	.L44:
 569 0010 80100F40 		.word	1074729088
 570              		.cfi_endproc
 571              	.LFE12:
 572              		.size	Buzz_ReadPeriod, .-Buzz_ReadPeriod
 573              		.text
 574              	.Letext0:
 575              		.file 2 ".\\Generated_Source\\PSoC4\\cytypes.h"