ARM GAS  C:\Users\javier\AppData\Local\Temp\cc7eJWl8.s 			page 1


   1              		.cpu cortex-m0
   2              		.fpu softvfp
   3              		.eabi_attribute 20, 1
   4              		.eabi_attribute 21, 1
   5              		.eabi_attribute 23, 3
   6              		.eabi_attribute 24, 1
   7              		.eabi_attribute 25, 1
   8              		.eabi_attribute 26, 1
   9              		.eabi_attribute 30, 6
  10              		.eabi_attribute 34, 0
  11              		.eabi_attribute 18, 4
  12              		.code	16
  13              		.file	"IDAC_1_PM.c"
  14              		.text
  15              	.Ltext0:
  16              		.cfi_sections	.debug_frame
  17              		.bss
  18              		.align	2
  19              	IDAC_1_backup:
  20 0000 00       		.space	1
  21 0001 000000   		.section	.text.IDAC_1_SaveConfig,"ax",%progbits
  22              		.align	2
  23              		.global	IDAC_1_SaveConfig
  24              		.code	16
  25              		.thumb_func
  26              		.type	IDAC_1_SaveConfig, %function
  27              	IDAC_1_SaveConfig:
  28              	.LFB0:
  29              		.file 1 ".\\Generated_Source\\PSoC4\\IDAC_1_PM.c"
   1:.\Generated_Source\PSoC4/IDAC_1_PM.c **** /*******************************************************************************
   2:.\Generated_Source\PSoC4/IDAC_1_PM.c **** * File Name: IDAC_1_PM.c
   3:.\Generated_Source\PSoC4/IDAC_1_PM.c **** * Version 1.0
   4:.\Generated_Source\PSoC4/IDAC_1_PM.c **** *
   5:.\Generated_Source\PSoC4/IDAC_1_PM.c **** * Description:
   6:.\Generated_Source\PSoC4/IDAC_1_PM.c **** *  This file provides Low power mode APIs for IDAC_P4 component.
   7:.\Generated_Source\PSoC4/IDAC_1_PM.c **** *
   8:.\Generated_Source\PSoC4/IDAC_1_PM.c **** ********************************************************************************
   9:.\Generated_Source\PSoC4/IDAC_1_PM.c **** * Copyright 2013, Cypress Semiconductor Corporation.  All rights reserved.
  10:.\Generated_Source\PSoC4/IDAC_1_PM.c **** * You may use this file only in accordance with the license, terms, conditions,
  11:.\Generated_Source\PSoC4/IDAC_1_PM.c **** * disclaimers, and limitations in the end user license agreement accompanying
  12:.\Generated_Source\PSoC4/IDAC_1_PM.c **** * the software package with which this file was provided.
  13:.\Generated_Source\PSoC4/IDAC_1_PM.c **** *******************************************************************************/
  14:.\Generated_Source\PSoC4/IDAC_1_PM.c **** 
  15:.\Generated_Source\PSoC4/IDAC_1_PM.c **** #include "IDAC_1.h"
  16:.\Generated_Source\PSoC4/IDAC_1_PM.c **** 
  17:.\Generated_Source\PSoC4/IDAC_1_PM.c **** 
  18:.\Generated_Source\PSoC4/IDAC_1_PM.c **** static IDAC_1_BACKUP_STRUCT IDAC_1_backup;
  19:.\Generated_Source\PSoC4/IDAC_1_PM.c **** 
  20:.\Generated_Source\PSoC4/IDAC_1_PM.c **** 
  21:.\Generated_Source\PSoC4/IDAC_1_PM.c **** /*******************************************************************************
  22:.\Generated_Source\PSoC4/IDAC_1_PM.c **** * Function Name: IDAC_1_SaveConfig
  23:.\Generated_Source\PSoC4/IDAC_1_PM.c **** ********************************************************************************
  24:.\Generated_Source\PSoC4/IDAC_1_PM.c **** *
  25:.\Generated_Source\PSoC4/IDAC_1_PM.c **** * Summary:
  26:.\Generated_Source\PSoC4/IDAC_1_PM.c **** *  Saves component state before sleep
  27:.\Generated_Source\PSoC4/IDAC_1_PM.c **** * Parameters:
  28:.\Generated_Source\PSoC4/IDAC_1_PM.c **** *  None
ARM GAS  C:\Users\javier\AppData\Local\Temp\cc7eJWl8.s 			page 2


  29:.\Generated_Source\PSoC4/IDAC_1_PM.c **** *
  30:.\Generated_Source\PSoC4/IDAC_1_PM.c **** * Return:
  31:.\Generated_Source\PSoC4/IDAC_1_PM.c **** *  None
  32:.\Generated_Source\PSoC4/IDAC_1_PM.c **** *
  33:.\Generated_Source\PSoC4/IDAC_1_PM.c **** * Global Variables:
  34:.\Generated_Source\PSoC4/IDAC_1_PM.c **** *  None
  35:.\Generated_Source\PSoC4/IDAC_1_PM.c **** *
  36:.\Generated_Source\PSoC4/IDAC_1_PM.c **** *******************************************************************************/
  37:.\Generated_Source\PSoC4/IDAC_1_PM.c **** void IDAC_1_SaveConfig(void)
  38:.\Generated_Source\PSoC4/IDAC_1_PM.c **** {
  30              		.loc 1 38 0
  31              		.cfi_startproc
  32 0000 80B5     		push	{r7, lr}
  33              	.LCFI0:
  34              		.cfi_def_cfa_offset 8
  35              		.cfi_offset 7, -8
  36              		.cfi_offset 14, -4
  37 0002 00AF     		add	r7, sp, #0
  38              	.LCFI1:
  39              		.cfi_def_cfa_register 7
  39:.\Generated_Source\PSoC4/IDAC_1_PM.c ****     /* All registers are retention - nothing to save */
  40:.\Generated_Source\PSoC4/IDAC_1_PM.c **** }
  40              		.loc 1 40 0
  41 0004 BD46     		mov	sp, r7
  42              		@ sp needed for prologue
  43 0006 80BD     		pop	{r7, pc}
  44              		.cfi_endproc
  45              	.LFE0:
  46              		.size	IDAC_1_SaveConfig, .-IDAC_1_SaveConfig
  47              		.section	.text.IDAC_1_Sleep,"ax",%progbits
  48              		.align	2
  49              		.global	IDAC_1_Sleep
  50              		.code	16
  51              		.thumb_func
  52              		.type	IDAC_1_Sleep, %function
  53              	IDAC_1_Sleep:
  54              	.LFB1:
  41:.\Generated_Source\PSoC4/IDAC_1_PM.c **** 
  42:.\Generated_Source\PSoC4/IDAC_1_PM.c **** 
  43:.\Generated_Source\PSoC4/IDAC_1_PM.c **** /*******************************************************************************
  44:.\Generated_Source\PSoC4/IDAC_1_PM.c **** * Function Name: IDAC_1_Sleep
  45:.\Generated_Source\PSoC4/IDAC_1_PM.c **** ********************************************************************************
  46:.\Generated_Source\PSoC4/IDAC_1_PM.c **** *
  47:.\Generated_Source\PSoC4/IDAC_1_PM.c **** * Summary:
  48:.\Generated_Source\PSoC4/IDAC_1_PM.c **** *  Calls _SaveConfig() function
  49:.\Generated_Source\PSoC4/IDAC_1_PM.c **** * Parameters:
  50:.\Generated_Source\PSoC4/IDAC_1_PM.c **** *  None
  51:.\Generated_Source\PSoC4/IDAC_1_PM.c **** *
  52:.\Generated_Source\PSoC4/IDAC_1_PM.c **** * Return:
  53:.\Generated_Source\PSoC4/IDAC_1_PM.c **** *  None
  54:.\Generated_Source\PSoC4/IDAC_1_PM.c **** *
  55:.\Generated_Source\PSoC4/IDAC_1_PM.c **** *******************************************************************************/
  56:.\Generated_Source\PSoC4/IDAC_1_PM.c **** void IDAC_1_Sleep(void)
  57:.\Generated_Source\PSoC4/IDAC_1_PM.c **** {
  55              		.loc 1 57 0
  56              		.cfi_startproc
  57 0000 80B5     		push	{r7, lr}
ARM GAS  C:\Users\javier\AppData\Local\Temp\cc7eJWl8.s 			page 3


  58              	.LCFI2:
  59              		.cfi_def_cfa_offset 8
  60              		.cfi_offset 7, -8
  61              		.cfi_offset 14, -4
  62 0002 00AF     		add	r7, sp, #0
  63              	.LCFI3:
  64              		.cfi_def_cfa_register 7
  58:.\Generated_Source\PSoC4/IDAC_1_PM.c ****         if(0u != (IDAC_1_IDAC_CONTROL_REG & ((uint32)IDAC_1_IDAC_MODE_MASK <<
  65              		.loc 1 58 0
  66 0004 094B     		ldr	r3, .L5
  67 0006 1A68     		ldr	r2, [r3]
  68 0008 C023     		mov	r3, #192
  69 000a 9B00     		lsl	r3, r3, #2
  70 000c 1340     		and	r3, r2
  71 000e 03D0     		beq	.L3
  59:.\Generated_Source\PSoC4/IDAC_1_PM.c ****         IDAC_1_IDAC_MODE_POSITION)))
  60:.\Generated_Source\PSoC4/IDAC_1_PM.c ****         {
  61:.\Generated_Source\PSoC4/IDAC_1_PM.c ****             IDAC_1_backup.enableState = 1u;
  72              		.loc 1 61 0
  73 0010 074B     		ldr	r3, .L5+4
  74 0012 0122     		mov	r2, #1
  75 0014 1A70     		strb	r2, [r3]
  76 0016 02E0     		b	.L4
  77              	.L3:
  62:.\Generated_Source\PSoC4/IDAC_1_PM.c ****         }
  63:.\Generated_Source\PSoC4/IDAC_1_PM.c ****         else
  64:.\Generated_Source\PSoC4/IDAC_1_PM.c ****         {
  65:.\Generated_Source\PSoC4/IDAC_1_PM.c ****             IDAC_1_backup.enableState = 0u;
  78              		.loc 1 65 0
  79 0018 054B     		ldr	r3, .L5+4
  80 001a 0022     		mov	r2, #0
  81 001c 1A70     		strb	r2, [r3]
  82              	.L4:
  66:.\Generated_Source\PSoC4/IDAC_1_PM.c ****         }
  67:.\Generated_Source\PSoC4/IDAC_1_PM.c **** 
  68:.\Generated_Source\PSoC4/IDAC_1_PM.c ****     IDAC_1_Stop();
  83              		.loc 1 68 0
  84 001e FFF7FEFF 		bl	IDAC_1_Stop
  69:.\Generated_Source\PSoC4/IDAC_1_PM.c ****     IDAC_1_SaveConfig();
  85              		.loc 1 69 0
  86 0022 FFF7FEFF 		bl	IDAC_1_SaveConfig
  70:.\Generated_Source\PSoC4/IDAC_1_PM.c **** }
  87              		.loc 1 70 0
  88 0026 BD46     		mov	sp, r7
  89              		@ sp needed for prologue
  90 0028 80BD     		pop	{r7, pc}
  91              	.L6:
  92 002a C046     		.align	2
  93              	.L5:
  94 002c 08000840 		.word	1074266120
  95 0030 00000000 		.word	IDAC_1_backup
  96              		.cfi_endproc
  97              	.LFE1:
  98              		.size	IDAC_1_Sleep, .-IDAC_1_Sleep
  99              		.section	.text.IDAC_1_RestoreConfig,"ax",%progbits
 100              		.align	2
 101              		.global	IDAC_1_RestoreConfig
ARM GAS  C:\Users\javier\AppData\Local\Temp\cc7eJWl8.s 			page 4


 102              		.code	16
 103              		.thumb_func
 104              		.type	IDAC_1_RestoreConfig, %function
 105              	IDAC_1_RestoreConfig:
 106              	.LFB2:
  71:.\Generated_Source\PSoC4/IDAC_1_PM.c **** 
  72:.\Generated_Source\PSoC4/IDAC_1_PM.c **** 
  73:.\Generated_Source\PSoC4/IDAC_1_PM.c **** /*******************************************************************************
  74:.\Generated_Source\PSoC4/IDAC_1_PM.c **** * Function Name: IDAC_1_RestoreConfig
  75:.\Generated_Source\PSoC4/IDAC_1_PM.c **** ********************************************************************************
  76:.\Generated_Source\PSoC4/IDAC_1_PM.c **** *
  77:.\Generated_Source\PSoC4/IDAC_1_PM.c **** * Summary:
  78:.\Generated_Source\PSoC4/IDAC_1_PM.c **** *  Restores component state after wakeup
  79:.\Generated_Source\PSoC4/IDAC_1_PM.c **** * Parameters:
  80:.\Generated_Source\PSoC4/IDAC_1_PM.c **** *  None
  81:.\Generated_Source\PSoC4/IDAC_1_PM.c **** *
  82:.\Generated_Source\PSoC4/IDAC_1_PM.c **** * Return:
  83:.\Generated_Source\PSoC4/IDAC_1_PM.c **** *  None
  84:.\Generated_Source\PSoC4/IDAC_1_PM.c **** *
  85:.\Generated_Source\PSoC4/IDAC_1_PM.c **** * Global Variables:
  86:.\Generated_Source\PSoC4/IDAC_1_PM.c **** *  None
  87:.\Generated_Source\PSoC4/IDAC_1_PM.c **** *
  88:.\Generated_Source\PSoC4/IDAC_1_PM.c **** *******************************************************************************/
  89:.\Generated_Source\PSoC4/IDAC_1_PM.c **** void IDAC_1_RestoreConfig(void)
  90:.\Generated_Source\PSoC4/IDAC_1_PM.c **** {
 107              		.loc 1 90 0
 108              		.cfi_startproc
 109 0000 80B5     		push	{r7, lr}
 110              	.LCFI4:
 111              		.cfi_def_cfa_offset 8
 112              		.cfi_offset 7, -8
 113              		.cfi_offset 14, -4
 114 0002 00AF     		add	r7, sp, #0
 115              	.LCFI5:
 116              		.cfi_def_cfa_register 7
  91:.\Generated_Source\PSoC4/IDAC_1_PM.c ****     /* All registers are retention - nothing to save */
  92:.\Generated_Source\PSoC4/IDAC_1_PM.c **** }
 117              		.loc 1 92 0
 118 0004 BD46     		mov	sp, r7
 119              		@ sp needed for prologue
 120 0006 80BD     		pop	{r7, pc}
 121              		.cfi_endproc
 122              	.LFE2:
 123              		.size	IDAC_1_RestoreConfig, .-IDAC_1_RestoreConfig
 124              		.section	.text.IDAC_1_Wakeup,"ax",%progbits
 125              		.align	2
 126              		.global	IDAC_1_Wakeup
 127              		.code	16
 128              		.thumb_func
 129              		.type	IDAC_1_Wakeup, %function
 130              	IDAC_1_Wakeup:
 131              	.LFB3:
  93:.\Generated_Source\PSoC4/IDAC_1_PM.c **** 
  94:.\Generated_Source\PSoC4/IDAC_1_PM.c **** 
  95:.\Generated_Source\PSoC4/IDAC_1_PM.c **** /*******************************************************************************
  96:.\Generated_Source\PSoC4/IDAC_1_PM.c **** * Function Name: IDAC_1_Wakeup
  97:.\Generated_Source\PSoC4/IDAC_1_PM.c **** ********************************************************************************
ARM GAS  C:\Users\javier\AppData\Local\Temp\cc7eJWl8.s 			page 5


  98:.\Generated_Source\PSoC4/IDAC_1_PM.c **** *
  99:.\Generated_Source\PSoC4/IDAC_1_PM.c **** * Summary:
 100:.\Generated_Source\PSoC4/IDAC_1_PM.c **** *  Calls _RestoreConfig() function
 101:.\Generated_Source\PSoC4/IDAC_1_PM.c **** * Parameters:
 102:.\Generated_Source\PSoC4/IDAC_1_PM.c **** *  None
 103:.\Generated_Source\PSoC4/IDAC_1_PM.c **** *
 104:.\Generated_Source\PSoC4/IDAC_1_PM.c **** * Return:
 105:.\Generated_Source\PSoC4/IDAC_1_PM.c **** *  None
 106:.\Generated_Source\PSoC4/IDAC_1_PM.c **** *
 107:.\Generated_Source\PSoC4/IDAC_1_PM.c **** *******************************************************************************/
 108:.\Generated_Source\PSoC4/IDAC_1_PM.c **** void IDAC_1_Wakeup(void)
 109:.\Generated_Source\PSoC4/IDAC_1_PM.c **** {
 132              		.loc 1 109 0
 133              		.cfi_startproc
 134 0000 80B5     		push	{r7, lr}
 135              	.LCFI6:
 136              		.cfi_def_cfa_offset 8
 137              		.cfi_offset 7, -8
 138              		.cfi_offset 14, -4
 139 0002 00AF     		add	r7, sp, #0
 140              	.LCFI7:
 141              		.cfi_def_cfa_register 7
 110:.\Generated_Source\PSoC4/IDAC_1_PM.c ****     /* Restore IDAC register settings */
 111:.\Generated_Source\PSoC4/IDAC_1_PM.c ****     IDAC_1_RestoreConfig();
 142              		.loc 1 111 0
 143 0004 FFF7FEFF 		bl	IDAC_1_RestoreConfig
 112:.\Generated_Source\PSoC4/IDAC_1_PM.c ****     if(IDAC_1_backup.enableState == 1u)
 144              		.loc 1 112 0
 145 0008 034B     		ldr	r3, .L10
 146 000a 1B78     		ldrb	r3, [r3]
 147 000c 012B     		cmp	r3, #1
 148 000e 01D1     		bne	.L8
 113:.\Generated_Source\PSoC4/IDAC_1_PM.c ****     {
 114:.\Generated_Source\PSoC4/IDAC_1_PM.c ****         /* Enable operation */
 115:.\Generated_Source\PSoC4/IDAC_1_PM.c ****         IDAC_1_Enable();
 149              		.loc 1 115 0
 150 0010 FFF7FEFF 		bl	IDAC_1_Enable
 151              	.L8:
 116:.\Generated_Source\PSoC4/IDAC_1_PM.c ****     } /* Do nothing if the component was disabled before */
 117:.\Generated_Source\PSoC4/IDAC_1_PM.c **** 
 118:.\Generated_Source\PSoC4/IDAC_1_PM.c **** }
 152              		.loc 1 118 0
 153 0014 BD46     		mov	sp, r7
 154              		@ sp needed for prologue
 155 0016 80BD     		pop	{r7, pc}
 156              	.L11:
 157              		.align	2
 158              	.L10:
 159 0018 00000000 		.word	IDAC_1_backup
 160              		.cfi_endproc
 161              	.LFE3:
 162              		.size	IDAC_1_Wakeup, .-IDAC_1_Wakeup
 163              		.text
 164              	.Letext0:
 165              		.file 2 ".\\Generated_Source\\PSoC4\\cytypes.h"
 166              		.file 3 ".\\Generated_Source\\PSoC4\\IDAC_1.h"