ARM GAS  C:\Users\javier\AppData\Local\Temp\ccca5Vw8.s 			page 1


   1              		.cpu cortex-m0
   2              		.fpu softvfp
   3              		.eabi_attribute 20, 1
   4              		.eabi_attribute 21, 1
   5              		.eabi_attribute 23, 3
   6              		.eabi_attribute 24, 1
   7              		.eabi_attribute 25, 1
   8              		.eabi_attribute 26, 1
   9              		.eabi_attribute 30, 6
  10              		.eabi_attribute 34, 0
  11              		.eabi_attribute 18, 4
  12              		.code	16
  13              		.file	"main.c"
  14              		.text
  15              	.Ltext0:
  16              		.cfi_sections	.debug_frame
  17              		.global	MAX_STR
  18              		.section	.rodata
  19              		.align	2
  20              		.type	MAX_STR, %object
  21              		.size	MAX_STR, 4
  22              	MAX_STR:
  23 0000 96000000 		.word	150
  24              		.comm	psoc5_msg,60,4
  25              		.comm	accStatus,6,4
  26              		.section	.text.initAccelerometer,"ax",%progbits
  27              		.align	2
  28              		.global	initAccelerometer
  29              		.code	16
  30              		.thumb_func
  31              		.type	initAccelerometer, %function
  32              	initAccelerometer:
  33              	.LFB33:
  34              		.file 1 ".\\main.c"
   1:.\main.c      **** /* ========================================
   2:.\main.c      ****  *
   3:.\main.c      ****  * Copyright YOUR COMPANY, THE YEAR
   4:.\main.c      ****  * All Rights Reserved
   5:.\main.c      ****  * UNPUBLISHED, LICENSED SOFTWARE.
   6:.\main.c      ****  *
   7:.\main.c      ****  * CONFIDENTIAL AND PROPRIETARY INFORMATION
   8:.\main.c      ****  * WHICH IS THE PROPERTY OF your company.
   9:.\main.c      ****  *
  10:.\main.c      ****  * ========================================
  11:.\main.c      **** */
  12:.\main.c      **** //#include <project.h>
  13:.\main.c      **** 
  14:.\main.c      **** #include <device.h>
  15:.\main.c      **** #include <stdio.h>            //definitions for all standard io functions
  16:.\main.c      **** 
  17:.\main.c      **** #define AXIS_X 0
  18:.\main.c      **** #define AXIS_Y 1
  19:.\main.c      **** #define AXIS_Z 2
  20:.\main.c      **** #define PSOC5_MSG_MAX 60
  21:.\main.c      **** //uint32 i;
  22:.\main.c      **** //char * fnam;
  23:.\main.c      **** //uint32 siz;
ARM GAS  C:\Users\javier\AppData\Local\Temp\ccca5Vw8.s 			page 2


  24:.\main.c      **** //uint8 no,fcnt,fre,j,bufnn;
  25:.\main.c      **** 
  26:.\main.c      **** //Buffer for PSOC5 Communication
  27:.\main.c      **** const int MAX_STR = 150;
  28:.\main.c      **** char psoc5_msg[PSOC5_MSG_MAX];
  29:.\main.c      **** 
  30:.\main.c      **** struct _ADC {
  31:.\main.c      ****     uint16 X;
  32:.\main.c      ****     uint16 Y;
  33:.\main.c      ****     uint16 Z;
  34:.\main.c      **** }accStatus;
  35:.\main.c      **** 
  36:.\main.c      **** //Functions declaration
  37:.\main.c      **** void send2PSoC5( char *msg );
  38:.\main.c      **** void initPSoC5();
  39:.\main.c      **** 
  40:.\main.c      **** void initAccelerometer(){
  35              		.loc 1 40 0
  36              		.cfi_startproc
  37 0000 80B5     		push	{r7, lr}
  38              	.LCFI0:
  39              		.cfi_def_cfa_offset 8
  40              		.cfi_offset 7, -8
  41              		.cfi_offset 14, -4
  42 0002 00AF     		add	r7, sp, #0
  43              	.LCFI1:
  44              		.cfi_def_cfa_register 7
  41:.\main.c      ****     /* Place your initialization/startup code here (e.g. MyInst_Start()) */
  42:.\main.c      ****     ADC_ACCELEROMETER_Start();
  45              		.loc 1 42 0
  46 0004 FFF7FEFF 		bl	ADC_ACCELEROMETER_Start
  43:.\main.c      ****     ADC_ACCELEROMETER_StartConvert();
  47              		.loc 1 43 0
  48 0008 FFF7FEFF 		bl	ADC_ACCELEROMETER_StartConvert
  44:.\main.c      ****     ADC_ACCELEROMETER_IsEndConversion( ADC_ACCELEROMETER_WAIT_FOR_RESULT); 
  49              		.loc 1 44 0
  50 000c 0220     		mov	r0, #2
  51 000e FFF7FEFF 		bl	ADC_ACCELEROMETER_IsEndConversion
  45:.\main.c      ****     
  46:.\main.c      **** }
  52              		.loc 1 46 0
  53 0012 BD46     		mov	sp, r7
  54              		@ sp needed for prologue
  55 0014 80BD     		pop	{r7, pc}
  56              		.cfi_endproc
  57              	.LFE33:
  58              		.size	initAccelerometer, .-initAccelerometer
  59 0016 C046     		.section	.text.getAccelerometer,"ax",%progbits
  60              		.align	2
  61              		.global	getAccelerometer
  62              		.code	16
  63              		.thumb_func
  64              		.type	getAccelerometer, %function
  65              	getAccelerometer:
  66              	.LFB34:
  47:.\main.c      **** 
  48:.\main.c      **** void getAccelerometer( struct _ADC *out )
ARM GAS  C:\Users\javier\AppData\Local\Temp\ccca5Vw8.s 			page 3


  49:.\main.c      **** {
  67              		.loc 1 49 0
  68              		.cfi_startproc
  69 0000 80B5     		push	{r7, lr}
  70              	.LCFI2:
  71              		.cfi_def_cfa_offset 8
  72              		.cfi_offset 7, -8
  73              		.cfi_offset 14, -4
  74 0002 82B0     		sub	sp, sp, #8
  75              	.LCFI3:
  76              		.cfi_def_cfa_offset 16
  77 0004 00AF     		add	r7, sp, #0
  78              	.LCFI4:
  79              		.cfi_def_cfa_register 7
  80 0006 7860     		str	r0, [r7, #4]
  50:.\main.c      ****     ADC_ACCELEROMETER_IsEndConversion( ADC_ACCELEROMETER_WAIT_FOR_RESULT); 
  81              		.loc 1 50 0
  82 0008 0220     		mov	r0, #2
  83 000a FFF7FEFF 		bl	ADC_ACCELEROMETER_IsEndConversion
  51:.\main.c      ****     out->X = ADC_ACCELEROMETER_GetResult16(AXIS_X);
  84              		.loc 1 51 0
  85 000e 0020     		mov	r0, #0
  86 0010 FFF7FEFF 		bl	ADC_ACCELEROMETER_GetResult16
  87 0014 031C     		mov	r3, r0
  88 0016 9AB2     		uxth	r2, r3
  89 0018 7B68     		ldr	r3, [r7, #4]
  90 001a 1A80     		strh	r2, [r3]
  52:.\main.c      ****     out->Y = ADC_ACCELEROMETER_GetResult16(AXIS_Y);
  91              		.loc 1 52 0
  92 001c 0120     		mov	r0, #1
  93 001e FFF7FEFF 		bl	ADC_ACCELEROMETER_GetResult16
  94 0022 031C     		mov	r3, r0
  95 0024 9AB2     		uxth	r2, r3
  96 0026 7B68     		ldr	r3, [r7, #4]
  97 0028 5A80     		strh	r2, [r3, #2]
  53:.\main.c      ****     out->Z = ADC_ACCELEROMETER_GetResult16(AXIS_Z);
  98              		.loc 1 53 0
  99 002a 0220     		mov	r0, #2
 100 002c FFF7FEFF 		bl	ADC_ACCELEROMETER_GetResult16
 101 0030 031C     		mov	r3, r0
 102 0032 9AB2     		uxth	r2, r3
 103 0034 7B68     		ldr	r3, [r7, #4]
 104 0036 9A80     		strh	r2, [r3, #4]
  54:.\main.c      **** }
 105              		.loc 1 54 0
 106 0038 BD46     		mov	sp, r7
 107 003a 02B0     		add	sp, sp, #8
 108              		@ sp needed for prologue
 109 003c 80BD     		pop	{r7, pc}
 110              		.cfi_endproc
 111              	.LFE34:
 112              		.size	getAccelerometer, .-getAccelerometer
 113 003e C046     		.section	.rodata
 114              		.align	2
 115              	.LC0:
 116 0004 3A25642C 		.ascii	":%d,%d,%d\000"
 116      25642C25 
ARM GAS  C:\Users\javier\AppData\Local\Temp\ccca5Vw8.s 			page 4


 116      6400
 117 000e 0000     		.section	.text.buildMsg,"ax",%progbits
 118              		.align	2
 119              		.global	buildMsg
 120              		.code	16
 121              		.thumb_func
 122              		.type	buildMsg, %function
 123              	buildMsg:
 124              	.LFB35:
  55:.\main.c      **** 
  56:.\main.c      **** int buildMsg(struct _ADC *accelData, char outMsg[] ){    
 125              		.loc 1 56 0
 126              		.cfi_startproc
 127 0000 90B5     		push	{r4, r7, lr}
 128              	.LCFI5:
 129              		.cfi_def_cfa_offset 12
 130              		.cfi_offset 4, -12
 131              		.cfi_offset 7, -8
 132              		.cfi_offset 14, -4
 133 0002 85B0     		sub	sp, sp, #20
 134              	.LCFI6:
 135              		.cfi_def_cfa_offset 32
 136 0004 02AF     		add	r7, sp, #8
 137              	.LCFI7:
 138              		.cfi_def_cfa 7, 24
 139 0006 7860     		str	r0, [r7, #4]
 140 0008 3960     		str	r1, [r7]
  57:.\main.c      ****     memset(outMsg, 0, sizeof(char)*PSOC5_MSG_MAX  );
 141              		.loc 1 57 0
 142 000a 3B68     		ldr	r3, [r7]
 143 000c 181C     		mov	r0, r3
 144 000e 0021     		mov	r1, #0
 145 0010 3C22     		mov	r2, #60
 146 0012 FFF7FEFF 		bl	memset
  58:.\main.c      ****     sprintf( outMsg, ":%d,%d,%d", accelData->X, accelData->Y, accelData->Z );
 147              		.loc 1 58 0
 148 0016 7B68     		ldr	r3, [r7, #4]
 149 0018 1B88     		ldrh	r3, [r3]
 150 001a 1A1C     		mov	r2, r3
 151 001c 7B68     		ldr	r3, [r7, #4]
 152 001e 5B88     		ldrh	r3, [r3, #2]
 153 0020 7968     		ldr	r1, [r7, #4]
 154 0022 8988     		ldrh	r1, [r1, #4]
 155 0024 0C1C     		mov	r4, r1
 156 0026 3868     		ldr	r0, [r7]
 157 0028 0649     		ldr	r1, .L5
 158 002a 0094     		str	r4, [sp]
 159 002c FFF7FEFF 		bl	sprintf
  59:.\main.c      ****     return strlen(outMsg);
 160              		.loc 1 59 0
 161 0030 3B68     		ldr	r3, [r7]
 162 0032 181C     		mov	r0, r3
 163 0034 FFF7FEFF 		bl	strlen
 164 0038 031C     		mov	r3, r0
  60:.\main.c      **** }
 165              		.loc 1 60 0
 166 003a 181C     		mov	r0, r3
ARM GAS  C:\Users\javier\AppData\Local\Temp\ccca5Vw8.s 			page 5


 167 003c BD46     		mov	sp, r7
 168 003e 03B0     		add	sp, sp, #12
 169              		@ sp needed for prologue
 170 0040 90BD     		pop	{r4, r7, pc}
 171              	.L6:
 172 0042 C046     		.align	2
 173              	.L5:
 174 0044 04000000 		.word	.LC0
 175              		.cfi_endproc
 176              	.LFE35:
 177              		.size	buildMsg, .-buildMsg
 178              		.section	.text.main,"ax",%progbits
 179              		.align	2
 180              		.global	main
 181              		.code	16
 182              		.thumb_func
 183              		.type	main, %function
 184              	main:
 185              	.LFB36:
  61:.\main.c      **** 
  62:.\main.c      **** int main()
  63:.\main.c      **** {    
 186              		.loc 1 63 0
 187              		.cfi_startproc
 188 0000 80B5     		push	{r7, lr}
 189              	.LCFI8:
 190              		.cfi_def_cfa_offset 8
 191              		.cfi_offset 7, -8
 192              		.cfi_offset 14, -4
 193 0002 00AF     		add	r7, sp, #0
 194              	.LCFI9:
 195              		.cfi_def_cfa_register 7
  64:.\main.c      ****     CyGlobalIntEnable;  /* Uncomment this line to enable global interrupts. */
 196              		.loc 1 64 0
 197              	@ 64 ".\main.c" 1
 198 0004 62B6     		CPSIE   i
 199              	@ 0 "" 2
  65:.\main.c      ****     
  66:.\main.c      ****     //Initialize Accelerometer
  67:.\main.c      ****     initAccelerometer();
 200              		.loc 1 67 0
 201              		.code	16
 202 0006 FFF7FEFF 		bl	initAccelerometer
  68:.\main.c      ****     //Initialize PSoC5 communication channel
  69:.\main.c      ****     initPSoC5();
 203              		.loc 1 69 0
 204 000a FFF7FEFF 		bl	initPSoC5
  70:.\main.c      ****     //Simple delay just for the sake of it
  71:.\main.c      ****     // allow other code on PSoC5 to start up, no special time
  72:.\main.c      **** 	CyDelay(500);
 205              		.loc 1 72 0
 206 000e FA23     		mov	r3, #250
 207 0010 5B00     		lsl	r3, r3, #1
 208 0012 181C     		mov	r0, r3
 209 0014 FFF7FEFF 		bl	CyDelay
  73:.\main.c      ****     
  74:.\main.c      ****     Buzz_Start();
ARM GAS  C:\Users\javier\AppData\Local\Temp\ccca5Vw8.s 			page 6


 210              		.loc 1 74 0
 211 0018 FFF7FEFF 		bl	Buzz_Start
  75:.\main.c      ****     CyDelay(3000);
 212              		.loc 1 75 0
 213 001c 1B4B     		ldr	r3, .L9
 214 001e 181C     		mov	r0, r3
 215 0020 FFF7FEFF 		bl	CyDelay
  76:.\main.c      ****     Buzz_Stop();
 216              		.loc 1 76 0
 217 0024 FFF7FEFF 		bl	Buzz_Stop
  77:.\main.c      ****     Buzz_Start();
 218              		.loc 1 77 0
 219 0028 FFF7FEFF 		bl	Buzz_Start
  78:.\main.c      ****     Clock_1_SetDivider(2);
 220              		.loc 1 78 0
 221 002c 0220     		mov	r0, #2
 222 002e 0021     		mov	r1, #0
 223 0030 FFF7FEFF 		bl	Clock_1_SetFractionalDividerRegister
  79:.\main.c      ****     CyDelay(3000);
 224              		.loc 1 79 0
 225 0034 154B     		ldr	r3, .L9
 226 0036 181C     		mov	r0, r3
 227 0038 FFF7FEFF 		bl	CyDelay
  80:.\main.c      ****     Buzz_Stop();
 228              		.loc 1 80 0
 229 003c FFF7FEFF 		bl	Buzz_Stop
  81:.\main.c      ****     Buzz_Start();
 230              		.loc 1 81 0
 231 0040 FFF7FEFF 		bl	Buzz_Start
  82:.\main.c      ****     Clock_1_SetDivider(4);
 232              		.loc 1 82 0
 233 0044 0420     		mov	r0, #4
 234 0046 0021     		mov	r1, #0
 235 0048 FFF7FEFF 		bl	Clock_1_SetFractionalDividerRegister
  83:.\main.c      ****     CyDelay(3000);
 236              		.loc 1 83 0
 237 004c 0F4B     		ldr	r3, .L9
 238 004e 181C     		mov	r0, r3
 239 0050 FFF7FEFF 		bl	CyDelay
  84:.\main.c      ****     Buzz_Stop();
 240              		.loc 1 84 0
 241 0054 FFF7FEFF 		bl	Buzz_Stop
  85:.\main.c      ****     Buzz_Start();
 242              		.loc 1 85 0
 243 0058 FFF7FEFF 		bl	Buzz_Start
  86:.\main.c      ****     Clock_1_SetDivider(6);
 244              		.loc 1 86 0
 245 005c 0620     		mov	r0, #6
 246 005e 0021     		mov	r1, #0
 247 0060 FFF7FEFF 		bl	Clock_1_SetFractionalDividerRegister
 248              	.L8:
  87:.\main.c      ****     for(;;)
  88:.\main.c      ****     {
  89:.\main.c      ****         getAccelerometer( &accStatus );
 249              		.loc 1 89 0 discriminator 1
 250 0064 0A4B     		ldr	r3, .L9+4
 251 0066 181C     		mov	r0, r3
ARM GAS  C:\Users\javier\AppData\Local\Temp\ccca5Vw8.s 			page 7


 252 0068 FFF7FEFF 		bl	getAccelerometer
  90:.\main.c      ****         buildMsg(&accStatus, psoc5_msg);
 253              		.loc 1 90 0 discriminator 1
 254 006c 084A     		ldr	r2, .L9+4
 255 006e 094B     		ldr	r3, .L9+8
 256 0070 101C     		mov	r0, r2
 257 0072 191C     		mov	r1, r3
 258 0074 FFF7FEFF 		bl	buildMsg
  91:.\main.c      ****         send2PSoC5( psoc5_msg );
 259              		.loc 1 91 0 discriminator 1
 260 0078 064B     		ldr	r3, .L9+8
 261 007a 181C     		mov	r0, r3
 262 007c FFF7FEFF 		bl	send2PSoC5
  92:.\main.c      ****         CyDelay(500);
 263              		.loc 1 92 0 discriminator 1
 264 0080 FA23     		mov	r3, #250
 265 0082 5B00     		lsl	r3, r3, #1
 266 0084 181C     		mov	r0, r3
 267 0086 FFF7FEFF 		bl	CyDelay
  93:.\main.c      ****     }
 268              		.loc 1 93 0 discriminator 1
 269 008a EBE7     		b	.L8
 270              	.L10:
 271              		.align	2
 272              	.L9:
 273 008c B80B0000 		.word	3000
 274 0090 00000000 		.word	accStatus
 275 0094 00000000 		.word	psoc5_msg
 276              		.cfi_endproc
 277              	.LFE36:
 278              		.size	main, .-main
 279              		.section	.text.initPSoC5,"ax",%progbits
 280              		.align	2
 281              		.global	initPSoC5
 282              		.code	16
 283              		.thumb_func
 284              		.type	initPSoC5, %function
 285              	initPSoC5:
 286              	.LFB37:
  94:.\main.c      ****     
  95:.\main.c      ****     return 0;
  96:.\main.c      **** }
  97:.\main.c      **** 
  98:.\main.c      **** /*
  99:.\main.c      ****     Initialize PSOC5 communication
 100:.\main.c      **** */
 101:.\main.c      **** void initPSoC5()
 102:.\main.c      **** {    
 287              		.loc 1 102 0
 288              		.cfi_startproc
 289 0000 80B5     		push	{r7, lr}
 290              	.LCFI10:
 291              		.cfi_def_cfa_offset 8
 292              		.cfi_offset 7, -8
 293              		.cfi_offset 14, -4
 294 0002 00AF     		add	r7, sp, #0
 295              	.LCFI11:
ARM GAS  C:\Users\javier\AppData\Local\Temp\ccca5Vw8.s 			page 8


 296              		.cfi_def_cfa_register 7
 103:.\main.c      ****     PSOC5_UartInit();
 297              		.loc 1 103 0
 298 0004 FFF7FEFF 		bl	PSOC5_UartInit
 104:.\main.c      ****     PSOC5_Start();
 299              		.loc 1 104 0
 300 0008 FFF7FEFF 		bl	PSOC5_Start
 105:.\main.c      ****     
 106:.\main.c      **** }
 301              		.loc 1 106 0
 302 000c BD46     		mov	sp, r7
 303              		@ sp needed for prologue
 304 000e 80BD     		pop	{r7, pc}
 305              		.cfi_endproc
 306              	.LFE37:
 307              		.size	initPSoC5, .-initPSoC5
 308              		.section	.text.send2PSoC5,"ax",%progbits
 309              		.align	2
 310              		.global	send2PSoC5
 311              		.code	16
 312              		.thumb_func
 313              		.type	send2PSoC5, %function
 314              	send2PSoC5:
 315              	.LFB38:
 107:.\main.c      **** /*
 108:.\main.c      ****     Sends buffer to PSoC5 to log the data
 109:.\main.c      **** */
 110:.\main.c      **** void send2PSoC5( char *msg )
 111:.\main.c      **** {       
 316              		.loc 1 111 0
 317              		.cfi_startproc
 318 0000 80B5     		push	{r7, lr}
 319              	.LCFI12:
 320              		.cfi_def_cfa_offset 8
 321              		.cfi_offset 7, -8
 322              		.cfi_offset 14, -4
 323 0002 82B0     		sub	sp, sp, #8
 324              	.LCFI13:
 325              		.cfi_def_cfa_offset 16
 326 0004 00AF     		add	r7, sp, #0
 327              	.LCFI14:
 328              		.cfi_def_cfa_register 7
 329 0006 7860     		str	r0, [r7, #4]
 112:.\main.c      ****     PSOC5_UartPutString(msg);    
 330              		.loc 1 112 0
 331 0008 7B68     		ldr	r3, [r7, #4]
 332 000a 181C     		mov	r0, r3
 333 000c FFF7FEFF 		bl	PSOC5_UartPutString
 113:.\main.c      ****     PSOC5_UartPutChar(13);    
 334              		.loc 1 113 0
 335 0010 0D20     		mov	r0, #13
 336 0012 FFF7FEFF 		bl	PSOC5_SpiUartWriteTxData
 114:.\main.c      **** }
 337              		.loc 1 114 0
 338 0016 BD46     		mov	sp, r7
 339 0018 02B0     		add	sp, sp, #8
 340              		@ sp needed for prologue
ARM GAS  C:\Users\javier\AppData\Local\Temp\ccca5Vw8.s 			page 9


 341 001a 80BD     		pop	{r7, pc}
 342              		.cfi_endproc
 343              	.LFE38:
 344              		.size	send2PSoC5, .-send2PSoC5
 345              		.text
 346              	.Letext0:
 347              		.file 2 "./Generated_Source/PSoC4/cytypes.h"